
zephyr.elf:     file format elf32-littlearm


Disassembly of section rom_start:

00000000 <_vector_start>:
   0:	200025a0 	.word	0x200025a0
   4:	00002809 	.word	0x00002809
   8:	00006a67 	.word	0x00006a67
   c:	000027f5 	.word	0x000027f5
  10:	000027f5 	.word	0x000027f5
  14:	000027f5 	.word	0x000027f5
  18:	000027f5 	.word	0x000027f5
	...
  2c:	00002649 	.word	0x00002649
  30:	000027f5 	.word	0x000027f5
  34:	00000000 	.word	0x00000000
  38:	000025f5 	.word	0x000025f5
  3c:	000027f5 	.word	0x000027f5

00000040 <_irq_vector_table>:
  40:	000025ad 000025ad 000025ad 000025ad     .%...%...%...%..
  50:	000025ad 000025ad 000025ad 000025ad     .%...%...%...%..
  60:	000025ad 000025ad 000025ad 000025ad     .%...%...%...%..
  70:	000025ad 000025ad 000025ad 000025ad     .%...%...%...%..
  80:	000025ad 000025ad 000025ad 000025ad     .%...%...%...%..
  90:	000025ad 000025ad 000025ad 000025ad     .%...%...%...%..
  a0:	000025ad 000025ad 000025ad 000025ad     .%...%...%...%..
  b0:	000025ad 000025ad 000025ad 000025ad     .%...%...%...%..
  c0:	000025ad 000025ad 000025ad 000025ad     .%...%...%...%..
  d0:	000025ad 000025ad 000025ad 000025ad     .%...%...%...%..
  e0:	000025ad 000025ad 000025ad 000025ad     .%...%...%...%..
  f0:	000025ad 000025ad 000025ad 000025ad     .%...%...%...%..

Disassembly of section text:

00000100 <__aeabi_fmul>:
     100:	f04f 0cff 	mov.w	ip, #255	; 0xff
     104:	ea1c 52d0 	ands.w	r2, ip, r0, lsr #23
     108:	bf1e      	ittt	ne
     10a:	ea1c 53d1 	andsne.w	r3, ip, r1, lsr #23
     10e:	ea92 0f0c 	teqne	r2, ip
     112:	ea93 0f0c 	teqne	r3, ip
     116:	d06f      	beq.n	1f8 <CONFIG_IDLE_STACK_SIZE+0xb8>
     118:	441a      	add	r2, r3
     11a:	ea80 0c01 	eor.w	ip, r0, r1
     11e:	0240      	lsls	r0, r0, #9
     120:	bf18      	it	ne
     122:	ea5f 2141 	movsne.w	r1, r1, lsl #9
     126:	d01e      	beq.n	166 <CONFIG_IDLE_STACK_SIZE+0x26>
     128:	f04f 6300 	mov.w	r3, #134217728	; 0x8000000
     12c:	ea43 1050 	orr.w	r0, r3, r0, lsr #5
     130:	ea43 1151 	orr.w	r1, r3, r1, lsr #5
     134:	fba0 3101 	umull	r3, r1, r0, r1
     138:	f00c 4000 	and.w	r0, ip, #2147483648	; 0x80000000
     13c:	f5b1 0f00 	cmp.w	r1, #8388608	; 0x800000
     140:	bf3e      	ittt	cc
     142:	0049      	lslcc	r1, r1, #1
     144:	ea41 71d3 	orrcc.w	r1, r1, r3, lsr #31
     148:	005b      	lslcc	r3, r3, #1
     14a:	ea40 0001 	orr.w	r0, r0, r1
     14e:	f162 027f 	sbc.w	r2, r2, #127	; 0x7f
     152:	2afd      	cmp	r2, #253	; 0xfd
     154:	d81d      	bhi.n	192 <CONFIG_IDLE_STACK_SIZE+0x52>
     156:	f1b3 4f00 	cmp.w	r3, #2147483648	; 0x80000000
     15a:	eb40 50c2 	adc.w	r0, r0, r2, lsl #23
     15e:	bf08      	it	eq
     160:	f020 0001 	biceq.w	r0, r0, #1
     164:	4770      	bx	lr
     166:	f090 0f00 	teq	r0, #0
     16a:	f00c 4c00 	and.w	ip, ip, #2147483648	; 0x80000000
     16e:	bf08      	it	eq
     170:	0249      	lsleq	r1, r1, #9
     172:	ea4c 2050 	orr.w	r0, ip, r0, lsr #9
     176:	ea40 2051 	orr.w	r0, r0, r1, lsr #9
     17a:	3a7f      	subs	r2, #127	; 0x7f
     17c:	bfc2      	ittt	gt
     17e:	f1d2 03ff 	rsbsgt	r3, r2, #255	; 0xff
     182:	ea40 50c2 	orrgt.w	r0, r0, r2, lsl #23
     186:	4770      	bxgt	lr
     188:	f440 0000 	orr.w	r0, r0, #8388608	; 0x800000
     18c:	f04f 0300 	mov.w	r3, #0
     190:	3a01      	subs	r2, #1
     192:	dc5d      	bgt.n	250 <__data_size+0x3c>
     194:	f112 0f19 	cmn.w	r2, #25
     198:	bfdc      	itt	le
     19a:	f000 4000 	andle.w	r0, r0, #2147483648	; 0x80000000
     19e:	4770      	bxle	lr
     1a0:	f1c2 0200 	rsb	r2, r2, #0
     1a4:	0041      	lsls	r1, r0, #1
     1a6:	fa21 f102 	lsr.w	r1, r1, r2
     1aa:	f1c2 0220 	rsb	r2, r2, #32
     1ae:	fa00 fc02 	lsl.w	ip, r0, r2
     1b2:	ea5f 0031 	movs.w	r0, r1, rrx
     1b6:	f140 0000 	adc.w	r0, r0, #0
     1ba:	ea53 034c 	orrs.w	r3, r3, ip, lsl #1
     1be:	bf08      	it	eq
     1c0:	ea20 70dc 	biceq.w	r0, r0, ip, lsr #31
     1c4:	4770      	bx	lr
     1c6:	f092 0f00 	teq	r2, #0
     1ca:	f000 4c00 	and.w	ip, r0, #2147483648	; 0x80000000
     1ce:	bf02      	ittt	eq
     1d0:	0040      	lsleq	r0, r0, #1
     1d2:	f410 0f00 	tsteq.w	r0, #8388608	; 0x800000
     1d6:	3a01      	subeq	r2, #1
     1d8:	d0f9      	beq.n	1ce <CONFIG_IDLE_STACK_SIZE+0x8e>
     1da:	ea40 000c 	orr.w	r0, r0, ip
     1de:	f093 0f00 	teq	r3, #0
     1e2:	f001 4c00 	and.w	ip, r1, #2147483648	; 0x80000000
     1e6:	bf02      	ittt	eq
     1e8:	0049      	lsleq	r1, r1, #1
     1ea:	f411 0f00 	tsteq.w	r1, #8388608	; 0x800000
     1ee:	3b01      	subeq	r3, #1
     1f0:	d0f9      	beq.n	1e6 <CONFIG_IDLE_STACK_SIZE+0xa6>
     1f2:	ea41 010c 	orr.w	r1, r1, ip
     1f6:	e78f      	b.n	118 <__aeabi_fmul+0x18>
     1f8:	ea0c 53d1 	and.w	r3, ip, r1, lsr #23
     1fc:	ea92 0f0c 	teq	r2, ip
     200:	bf18      	it	ne
     202:	ea93 0f0c 	teqne	r3, ip
     206:	d00a      	beq.n	21e <__data_size+0xa>
     208:	f030 4c00 	bics.w	ip, r0, #2147483648	; 0x80000000
     20c:	bf18      	it	ne
     20e:	f031 4c00 	bicsne.w	ip, r1, #2147483648	; 0x80000000
     212:	d1d8      	bne.n	1c6 <CONFIG_IDLE_STACK_SIZE+0x86>
     214:	ea80 0001 	eor.w	r0, r0, r1
     218:	f000 4000 	and.w	r0, r0, #2147483648	; 0x80000000
     21c:	4770      	bx	lr
     21e:	f090 0f00 	teq	r0, #0
     222:	bf17      	itett	ne
     224:	f090 4f00 	teqne	r0, #2147483648	; 0x80000000
     228:	4608      	moveq	r0, r1
     22a:	f091 0f00 	teqne	r1, #0
     22e:	f091 4f00 	teqne	r1, #2147483648	; 0x80000000
     232:	d014      	beq.n	25e <__data_size+0x4a>
     234:	ea92 0f0c 	teq	r2, ip
     238:	d101      	bne.n	23e <__data_size+0x2a>
     23a:	0242      	lsls	r2, r0, #9
     23c:	d10f      	bne.n	25e <__data_size+0x4a>
     23e:	ea93 0f0c 	teq	r3, ip
     242:	d103      	bne.n	24c <__data_size+0x38>
     244:	024b      	lsls	r3, r1, #9
     246:	bf18      	it	ne
     248:	4608      	movne	r0, r1
     24a:	d108      	bne.n	25e <__data_size+0x4a>
     24c:	ea80 0001 	eor.w	r0, r0, r1
     250:	f000 4000 	and.w	r0, r0, #2147483648	; 0x80000000
     254:	f040 40fe 	orr.w	r0, r0, #2130706432	; 0x7f000000
     258:	f440 0000 	orr.w	r0, r0, #8388608	; 0x800000
     25c:	4770      	bx	lr
     25e:	f040 40fe 	orr.w	r0, r0, #2130706432	; 0x7f000000
     262:	f440 0040 	orr.w	r0, r0, #12582912	; 0xc00000
     266:	4770      	bx	lr

00000268 <__aeabi_drsub>:
     268:	f081 4100 	eor.w	r1, r1, #2147483648	; 0x80000000
     26c:	e002      	b.n	274 <__adddf3>
     26e:	bf00      	nop

00000270 <__aeabi_dsub>:
     270:	f083 4300 	eor.w	r3, r3, #2147483648	; 0x80000000

00000274 <__adddf3>:
     274:	b530      	push	{r4, r5, lr}
     276:	ea4f 0441 	mov.w	r4, r1, lsl #1
     27a:	ea4f 0543 	mov.w	r5, r3, lsl #1
     27e:	ea94 0f05 	teq	r4, r5
     282:	bf08      	it	eq
     284:	ea90 0f02 	teqeq	r0, r2
     288:	bf1f      	itttt	ne
     28a:	ea54 0c00 	orrsne.w	ip, r4, r0
     28e:	ea55 0c02 	orrsne.w	ip, r5, r2
     292:	ea7f 5c64 	mvnsne.w	ip, r4, asr #21
     296:	ea7f 5c65 	mvnsne.w	ip, r5, asr #21
     29a:	f000 80e2 	beq.w	462 <CONFIG_FLASH_SIZE+0x62>
     29e:	ea4f 5454 	mov.w	r4, r4, lsr #21
     2a2:	ebd4 5555 	rsbs	r5, r4, r5, lsr #21
     2a6:	bfb8      	it	lt
     2a8:	426d      	neglt	r5, r5
     2aa:	dd0c      	ble.n	2c6 <__adddf3+0x52>
     2ac:	442c      	add	r4, r5
     2ae:	ea80 0202 	eor.w	r2, r0, r2
     2b2:	ea81 0303 	eor.w	r3, r1, r3
     2b6:	ea82 0000 	eor.w	r0, r2, r0
     2ba:	ea83 0101 	eor.w	r1, r3, r1
     2be:	ea80 0202 	eor.w	r2, r0, r2
     2c2:	ea81 0303 	eor.w	r3, r1, r3
     2c6:	2d36      	cmp	r5, #54	; 0x36
     2c8:	bf88      	it	hi
     2ca:	bd30      	pophi	{r4, r5, pc}
     2cc:	f011 4f00 	tst.w	r1, #2147483648	; 0x80000000
     2d0:	ea4f 3101 	mov.w	r1, r1, lsl #12
     2d4:	f44f 1c80 	mov.w	ip, #1048576	; 0x100000
     2d8:	ea4c 3111 	orr.w	r1, ip, r1, lsr #12
     2dc:	d002      	beq.n	2e4 <__adddf3+0x70>
     2de:	4240      	negs	r0, r0
     2e0:	eb61 0141 	sbc.w	r1, r1, r1, lsl #1
     2e4:	f013 4f00 	tst.w	r3, #2147483648	; 0x80000000
     2e8:	ea4f 3303 	mov.w	r3, r3, lsl #12
     2ec:	ea4c 3313 	orr.w	r3, ip, r3, lsr #12
     2f0:	d002      	beq.n	2f8 <__adddf3+0x84>
     2f2:	4252      	negs	r2, r2
     2f4:	eb63 0343 	sbc.w	r3, r3, r3, lsl #1
     2f8:	ea94 0f05 	teq	r4, r5
     2fc:	f000 80a7 	beq.w	44e <CONFIG_FLASH_SIZE+0x4e>
     300:	f1a4 0401 	sub.w	r4, r4, #1
     304:	f1d5 0e20 	rsbs	lr, r5, #32
     308:	db0d      	blt.n	326 <__adddf3+0xb2>
     30a:	fa02 fc0e 	lsl.w	ip, r2, lr
     30e:	fa22 f205 	lsr.w	r2, r2, r5
     312:	1880      	adds	r0, r0, r2
     314:	f141 0100 	adc.w	r1, r1, #0
     318:	fa03 f20e 	lsl.w	r2, r3, lr
     31c:	1880      	adds	r0, r0, r2
     31e:	fa43 f305 	asr.w	r3, r3, r5
     322:	4159      	adcs	r1, r3
     324:	e00e      	b.n	344 <__adddf3+0xd0>
     326:	f1a5 0520 	sub.w	r5, r5, #32
     32a:	f10e 0e20 	add.w	lr, lr, #32
     32e:	2a01      	cmp	r2, #1
     330:	fa03 fc0e 	lsl.w	ip, r3, lr
     334:	bf28      	it	cs
     336:	f04c 0c02 	orrcs.w	ip, ip, #2
     33a:	fa43 f305 	asr.w	r3, r3, r5
     33e:	18c0      	adds	r0, r0, r3
     340:	eb51 71e3 	adcs.w	r1, r1, r3, asr #31
     344:	f001 4500 	and.w	r5, r1, #2147483648	; 0x80000000
     348:	d507      	bpl.n	35a <__adddf3+0xe6>
     34a:	f04f 0e00 	mov.w	lr, #0
     34e:	f1dc 0c00 	rsbs	ip, ip, #0
     352:	eb7e 0000 	sbcs.w	r0, lr, r0
     356:	eb6e 0101 	sbc.w	r1, lr, r1
     35a:	f5b1 1f80 	cmp.w	r1, #1048576	; 0x100000
     35e:	d31b      	bcc.n	398 <__adddf3+0x124>
     360:	f5b1 1f00 	cmp.w	r1, #2097152	; 0x200000
     364:	d30c      	bcc.n	380 <__adddf3+0x10c>
     366:	0849      	lsrs	r1, r1, #1
     368:	ea5f 0030 	movs.w	r0, r0, rrx
     36c:	ea4f 0c3c 	mov.w	ip, ip, rrx
     370:	f104 0401 	add.w	r4, r4, #1
     374:	ea4f 5244 	mov.w	r2, r4, lsl #21
     378:	f512 0f80 	cmn.w	r2, #4194304	; 0x400000
     37c:	f080 809a 	bcs.w	4b4 <CONFIG_FLASH_SIZE+0xb4>
     380:	f1bc 4f00 	cmp.w	ip, #2147483648	; 0x80000000
     384:	bf08      	it	eq
     386:	ea5f 0c50 	movseq.w	ip, r0, lsr #1
     38a:	f150 0000 	adcs.w	r0, r0, #0
     38e:	eb41 5104 	adc.w	r1, r1, r4, lsl #20
     392:	ea41 0105 	orr.w	r1, r1, r5
     396:	bd30      	pop	{r4, r5, pc}
     398:	ea5f 0c4c 	movs.w	ip, ip, lsl #1
     39c:	4140      	adcs	r0, r0
     39e:	eb41 0101 	adc.w	r1, r1, r1
     3a2:	3c01      	subs	r4, #1
     3a4:	bf28      	it	cs
     3a6:	f5b1 1f80 	cmpcs.w	r1, #1048576	; 0x100000
     3aa:	d2e9      	bcs.n	380 <__adddf3+0x10c>
     3ac:	f091 0f00 	teq	r1, #0
     3b0:	bf04      	itt	eq
     3b2:	4601      	moveq	r1, r0
     3b4:	2000      	moveq	r0, #0
     3b6:	fab1 f381 	clz	r3, r1
     3ba:	bf08      	it	eq
     3bc:	3320      	addeq	r3, #32
     3be:	f1a3 030b 	sub.w	r3, r3, #11
     3c2:	f1b3 0220 	subs.w	r2, r3, #32
     3c6:	da0c      	bge.n	3e2 <__adddf3+0x16e>
     3c8:	320c      	adds	r2, #12
     3ca:	dd08      	ble.n	3de <__adddf3+0x16a>
     3cc:	f102 0c14 	add.w	ip, r2, #20
     3d0:	f1c2 020c 	rsb	r2, r2, #12
     3d4:	fa01 f00c 	lsl.w	r0, r1, ip
     3d8:	fa21 f102 	lsr.w	r1, r1, r2
     3dc:	e00c      	b.n	3f8 <__adddf3+0x184>
     3de:	f102 0214 	add.w	r2, r2, #20
     3e2:	bfd8      	it	le
     3e4:	f1c2 0c20 	rsble	ip, r2, #32
     3e8:	fa01 f102 	lsl.w	r1, r1, r2
     3ec:	fa20 fc0c 	lsr.w	ip, r0, ip
     3f0:	bfdc      	itt	le
     3f2:	ea41 010c 	orrle.w	r1, r1, ip
     3f6:	4090      	lslle	r0, r2
     3f8:	1ae4      	subs	r4, r4, r3
     3fa:	bfa2      	ittt	ge
     3fc:	eb01 5104 	addge.w	r1, r1, r4, lsl #20
     400:	4329      	orrge	r1, r5
     402:	bd30      	popge	{r4, r5, pc}
     404:	ea6f 0404 	mvn.w	r4, r4
     408:	3c1f      	subs	r4, #31
     40a:	da1c      	bge.n	446 <CONFIG_FLASH_SIZE+0x46>
     40c:	340c      	adds	r4, #12
     40e:	dc0e      	bgt.n	42e <CONFIG_FLASH_SIZE+0x2e>
     410:	f104 0414 	add.w	r4, r4, #20
     414:	f1c4 0220 	rsb	r2, r4, #32
     418:	fa20 f004 	lsr.w	r0, r0, r4
     41c:	fa01 f302 	lsl.w	r3, r1, r2
     420:	ea40 0003 	orr.w	r0, r0, r3
     424:	fa21 f304 	lsr.w	r3, r1, r4
     428:	ea45 0103 	orr.w	r1, r5, r3
     42c:	bd30      	pop	{r4, r5, pc}
     42e:	f1c4 040c 	rsb	r4, r4, #12
     432:	f1c4 0220 	rsb	r2, r4, #32
     436:	fa20 f002 	lsr.w	r0, r0, r2
     43a:	fa01 f304 	lsl.w	r3, r1, r4
     43e:	ea40 0003 	orr.w	r0, r0, r3
     442:	4629      	mov	r1, r5
     444:	bd30      	pop	{r4, r5, pc}
     446:	fa21 f004 	lsr.w	r0, r1, r4
     44a:	4629      	mov	r1, r5
     44c:	bd30      	pop	{r4, r5, pc}
     44e:	f094 0f00 	teq	r4, #0
     452:	f483 1380 	eor.w	r3, r3, #1048576	; 0x100000
     456:	bf06      	itte	eq
     458:	f481 1180 	eoreq.w	r1, r1, #1048576	; 0x100000
     45c:	3401      	addeq	r4, #1
     45e:	3d01      	subne	r5, #1
     460:	e74e      	b.n	300 <__adddf3+0x8c>
     462:	ea7f 5c64 	mvns.w	ip, r4, asr #21
     466:	bf18      	it	ne
     468:	ea7f 5c65 	mvnsne.w	ip, r5, asr #21
     46c:	d029      	beq.n	4c2 <CONFIG_FLASH_SIZE+0xc2>
     46e:	ea94 0f05 	teq	r4, r5
     472:	bf08      	it	eq
     474:	ea90 0f02 	teqeq	r0, r2
     478:	d005      	beq.n	486 <CONFIG_FLASH_SIZE+0x86>
     47a:	ea54 0c00 	orrs.w	ip, r4, r0
     47e:	bf04      	itt	eq
     480:	4619      	moveq	r1, r3
     482:	4610      	moveq	r0, r2
     484:	bd30      	pop	{r4, r5, pc}
     486:	ea91 0f03 	teq	r1, r3
     48a:	bf1e      	ittt	ne
     48c:	2100      	movne	r1, #0
     48e:	2000      	movne	r0, #0
     490:	bd30      	popne	{r4, r5, pc}
     492:	ea5f 5c54 	movs.w	ip, r4, lsr #21
     496:	d105      	bne.n	4a4 <CONFIG_FLASH_SIZE+0xa4>
     498:	0040      	lsls	r0, r0, #1
     49a:	4149      	adcs	r1, r1
     49c:	bf28      	it	cs
     49e:	f041 4100 	orrcs.w	r1, r1, #2147483648	; 0x80000000
     4a2:	bd30      	pop	{r4, r5, pc}
     4a4:	f514 0480 	adds.w	r4, r4, #4194304	; 0x400000
     4a8:	bf3c      	itt	cc
     4aa:	f501 1180 	addcc.w	r1, r1, #1048576	; 0x100000
     4ae:	bd30      	popcc	{r4, r5, pc}
     4b0:	f001 4500 	and.w	r5, r1, #2147483648	; 0x80000000
     4b4:	f045 41fe 	orr.w	r1, r5, #2130706432	; 0x7f000000
     4b8:	f441 0170 	orr.w	r1, r1, #15728640	; 0xf00000
     4bc:	f04f 0000 	mov.w	r0, #0
     4c0:	bd30      	pop	{r4, r5, pc}
     4c2:	ea7f 5c64 	mvns.w	ip, r4, asr #21
     4c6:	bf1a      	itte	ne
     4c8:	4619      	movne	r1, r3
     4ca:	4610      	movne	r0, r2
     4cc:	ea7f 5c65 	mvnseq.w	ip, r5, asr #21
     4d0:	bf1c      	itt	ne
     4d2:	460b      	movne	r3, r1
     4d4:	4602      	movne	r2, r0
     4d6:	ea50 3401 	orrs.w	r4, r0, r1, lsl #12
     4da:	bf06      	itte	eq
     4dc:	ea52 3503 	orrseq.w	r5, r2, r3, lsl #12
     4e0:	ea91 0f03 	teqeq	r1, r3
     4e4:	f441 2100 	orrne.w	r1, r1, #524288	; 0x80000
     4e8:	bd30      	pop	{r4, r5, pc}
     4ea:	bf00      	nop

000004ec <__aeabi_ui2d>:
     4ec:	f090 0f00 	teq	r0, #0
     4f0:	bf04      	itt	eq
     4f2:	2100      	moveq	r1, #0
     4f4:	4770      	bxeq	lr
     4f6:	b530      	push	{r4, r5, lr}
     4f8:	f44f 6480 	mov.w	r4, #1024	; 0x400
     4fc:	f104 0432 	add.w	r4, r4, #50	; 0x32
     500:	f04f 0500 	mov.w	r5, #0
     504:	f04f 0100 	mov.w	r1, #0
     508:	e750      	b.n	3ac <__adddf3+0x138>
     50a:	bf00      	nop

0000050c <__aeabi_i2d>:
     50c:	f090 0f00 	teq	r0, #0
     510:	bf04      	itt	eq
     512:	2100      	moveq	r1, #0
     514:	4770      	bxeq	lr
     516:	b530      	push	{r4, r5, lr}
     518:	f44f 6480 	mov.w	r4, #1024	; 0x400
     51c:	f104 0432 	add.w	r4, r4, #50	; 0x32
     520:	f010 4500 	ands.w	r5, r0, #2147483648	; 0x80000000
     524:	bf48      	it	mi
     526:	4240      	negmi	r0, r0
     528:	f04f 0100 	mov.w	r1, #0
     52c:	e73e      	b.n	3ac <__adddf3+0x138>
     52e:	bf00      	nop

00000530 <__aeabi_f2d>:
     530:	0042      	lsls	r2, r0, #1
     532:	ea4f 01e2 	mov.w	r1, r2, asr #3
     536:	ea4f 0131 	mov.w	r1, r1, rrx
     53a:	ea4f 7002 	mov.w	r0, r2, lsl #28
     53e:	bf1f      	itttt	ne
     540:	f012 437f 	andsne.w	r3, r2, #4278190080	; 0xff000000
     544:	f093 4f7f 	teqne	r3, #4278190080	; 0xff000000
     548:	f081 5160 	eorne.w	r1, r1, #939524096	; 0x38000000
     54c:	4770      	bxne	lr
     54e:	f032 427f 	bics.w	r2, r2, #4278190080	; 0xff000000
     552:	bf08      	it	eq
     554:	4770      	bxeq	lr
     556:	f093 4f7f 	teq	r3, #4278190080	; 0xff000000
     55a:	bf04      	itt	eq
     55c:	f441 2100 	orreq.w	r1, r1, #524288	; 0x80000
     560:	4770      	bxeq	lr
     562:	b530      	push	{r4, r5, lr}
     564:	f44f 7460 	mov.w	r4, #896	; 0x380
     568:	f001 4500 	and.w	r5, r1, #2147483648	; 0x80000000
     56c:	f021 4100 	bic.w	r1, r1, #2147483648	; 0x80000000
     570:	e71c      	b.n	3ac <__adddf3+0x138>
     572:	bf00      	nop

00000574 <__aeabi_ul2d>:
     574:	ea50 0201 	orrs.w	r2, r0, r1
     578:	bf08      	it	eq
     57a:	4770      	bxeq	lr
     57c:	b530      	push	{r4, r5, lr}
     57e:	f04f 0500 	mov.w	r5, #0
     582:	e00a      	b.n	59a <__aeabi_l2d+0x16>

00000584 <__aeabi_l2d>:
     584:	ea50 0201 	orrs.w	r2, r0, r1
     588:	bf08      	it	eq
     58a:	4770      	bxeq	lr
     58c:	b530      	push	{r4, r5, lr}
     58e:	f011 4500 	ands.w	r5, r1, #2147483648	; 0x80000000
     592:	d502      	bpl.n	59a <__aeabi_l2d+0x16>
     594:	4240      	negs	r0, r0
     596:	eb61 0141 	sbc.w	r1, r1, r1, lsl #1
     59a:	f44f 6480 	mov.w	r4, #1024	; 0x400
     59e:	f104 0432 	add.w	r4, r4, #50	; 0x32
     5a2:	ea5f 5c91 	movs.w	ip, r1, lsr #22
     5a6:	f43f aed8 	beq.w	35a <__adddf3+0xe6>
     5aa:	f04f 0203 	mov.w	r2, #3
     5ae:	ea5f 0cdc 	movs.w	ip, ip, lsr #3
     5b2:	bf18      	it	ne
     5b4:	3203      	addne	r2, #3
     5b6:	ea5f 0cdc 	movs.w	ip, ip, lsr #3
     5ba:	bf18      	it	ne
     5bc:	3203      	addne	r2, #3
     5be:	eb02 02dc 	add.w	r2, r2, ip, lsr #3
     5c2:	f1c2 0320 	rsb	r3, r2, #32
     5c6:	fa00 fc03 	lsl.w	ip, r0, r3
     5ca:	fa20 f002 	lsr.w	r0, r0, r2
     5ce:	fa01 fe03 	lsl.w	lr, r1, r3
     5d2:	ea40 000e 	orr.w	r0, r0, lr
     5d6:	fa21 f102 	lsr.w	r1, r1, r2
     5da:	4414      	add	r4, r2
     5dc:	e6bd      	b.n	35a <__adddf3+0xe6>
     5de:	bf00      	nop

000005e0 <__aeabi_dmul>:
     5e0:	b570      	push	{r4, r5, r6, lr}
     5e2:	f04f 0cff 	mov.w	ip, #255	; 0xff
     5e6:	f44c 6ce0 	orr.w	ip, ip, #1792	; 0x700
     5ea:	ea1c 5411 	ands.w	r4, ip, r1, lsr #20
     5ee:	bf1d      	ittte	ne
     5f0:	ea1c 5513 	andsne.w	r5, ip, r3, lsr #20
     5f4:	ea94 0f0c 	teqne	r4, ip
     5f8:	ea95 0f0c 	teqne	r5, ip
     5fc:	f000 f8de 	bleq	7bc <__aeabi_dmul+0x1dc>
     600:	442c      	add	r4, r5
     602:	ea81 0603 	eor.w	r6, r1, r3
     606:	ea21 514c 	bic.w	r1, r1, ip, lsl #21
     60a:	ea23 534c 	bic.w	r3, r3, ip, lsl #21
     60e:	ea50 3501 	orrs.w	r5, r0, r1, lsl #12
     612:	bf18      	it	ne
     614:	ea52 3503 	orrsne.w	r5, r2, r3, lsl #12
     618:	f441 1180 	orr.w	r1, r1, #1048576	; 0x100000
     61c:	f443 1380 	orr.w	r3, r3, #1048576	; 0x100000
     620:	d038      	beq.n	694 <__aeabi_dmul+0xb4>
     622:	fba0 ce02 	umull	ip, lr, r0, r2
     626:	f04f 0500 	mov.w	r5, #0
     62a:	fbe1 e502 	umlal	lr, r5, r1, r2
     62e:	f006 4200 	and.w	r2, r6, #2147483648	; 0x80000000
     632:	fbe0 e503 	umlal	lr, r5, r0, r3
     636:	f04f 0600 	mov.w	r6, #0
     63a:	fbe1 5603 	umlal	r5, r6, r1, r3
     63e:	f09c 0f00 	teq	ip, #0
     642:	bf18      	it	ne
     644:	f04e 0e01 	orrne.w	lr, lr, #1
     648:	f1a4 04ff 	sub.w	r4, r4, #255	; 0xff
     64c:	f5b6 7f00 	cmp.w	r6, #512	; 0x200
     650:	f564 7440 	sbc.w	r4, r4, #768	; 0x300
     654:	d204      	bcs.n	660 <__aeabi_dmul+0x80>
     656:	ea5f 0e4e 	movs.w	lr, lr, lsl #1
     65a:	416d      	adcs	r5, r5
     65c:	eb46 0606 	adc.w	r6, r6, r6
     660:	ea42 21c6 	orr.w	r1, r2, r6, lsl #11
     664:	ea41 5155 	orr.w	r1, r1, r5, lsr #21
     668:	ea4f 20c5 	mov.w	r0, r5, lsl #11
     66c:	ea40 505e 	orr.w	r0, r0, lr, lsr #21
     670:	ea4f 2ece 	mov.w	lr, lr, lsl #11
     674:	f1b4 0cfd 	subs.w	ip, r4, #253	; 0xfd
     678:	bf88      	it	hi
     67a:	f5bc 6fe0 	cmphi.w	ip, #1792	; 0x700
     67e:	d81e      	bhi.n	6be <__aeabi_dmul+0xde>
     680:	f1be 4f00 	cmp.w	lr, #2147483648	; 0x80000000
     684:	bf08      	it	eq
     686:	ea5f 0e50 	movseq.w	lr, r0, lsr #1
     68a:	f150 0000 	adcs.w	r0, r0, #0
     68e:	eb41 5104 	adc.w	r1, r1, r4, lsl #20
     692:	bd70      	pop	{r4, r5, r6, pc}
     694:	f006 4600 	and.w	r6, r6, #2147483648	; 0x80000000
     698:	ea46 0101 	orr.w	r1, r6, r1
     69c:	ea40 0002 	orr.w	r0, r0, r2
     6a0:	ea81 0103 	eor.w	r1, r1, r3
     6a4:	ebb4 045c 	subs.w	r4, r4, ip, lsr #1
     6a8:	bfc2      	ittt	gt
     6aa:	ebd4 050c 	rsbsgt	r5, r4, ip
     6ae:	ea41 5104 	orrgt.w	r1, r1, r4, lsl #20
     6b2:	bd70      	popgt	{r4, r5, r6, pc}
     6b4:	f441 1180 	orr.w	r1, r1, #1048576	; 0x100000
     6b8:	f04f 0e00 	mov.w	lr, #0
     6bc:	3c01      	subs	r4, #1
     6be:	f300 80ab 	bgt.w	818 <CONFIG_ISR_STACK_SIZE+0x18>
     6c2:	f114 0f36 	cmn.w	r4, #54	; 0x36
     6c6:	bfde      	ittt	le
     6c8:	2000      	movle	r0, #0
     6ca:	f001 4100 	andle.w	r1, r1, #2147483648	; 0x80000000
     6ce:	bd70      	pople	{r4, r5, r6, pc}
     6d0:	f1c4 0400 	rsb	r4, r4, #0
     6d4:	3c20      	subs	r4, #32
     6d6:	da35      	bge.n	744 <__aeabi_dmul+0x164>
     6d8:	340c      	adds	r4, #12
     6da:	dc1b      	bgt.n	714 <__aeabi_dmul+0x134>
     6dc:	f104 0414 	add.w	r4, r4, #20
     6e0:	f1c4 0520 	rsb	r5, r4, #32
     6e4:	fa00 f305 	lsl.w	r3, r0, r5
     6e8:	fa20 f004 	lsr.w	r0, r0, r4
     6ec:	fa01 f205 	lsl.w	r2, r1, r5
     6f0:	ea40 0002 	orr.w	r0, r0, r2
     6f4:	f001 4200 	and.w	r2, r1, #2147483648	; 0x80000000
     6f8:	f021 4100 	bic.w	r1, r1, #2147483648	; 0x80000000
     6fc:	eb10 70d3 	adds.w	r0, r0, r3, lsr #31
     700:	fa21 f604 	lsr.w	r6, r1, r4
     704:	eb42 0106 	adc.w	r1, r2, r6
     708:	ea5e 0e43 	orrs.w	lr, lr, r3, lsl #1
     70c:	bf08      	it	eq
     70e:	ea20 70d3 	biceq.w	r0, r0, r3, lsr #31
     712:	bd70      	pop	{r4, r5, r6, pc}
     714:	f1c4 040c 	rsb	r4, r4, #12
     718:	f1c4 0520 	rsb	r5, r4, #32
     71c:	fa00 f304 	lsl.w	r3, r0, r4
     720:	fa20 f005 	lsr.w	r0, r0, r5
     724:	fa01 f204 	lsl.w	r2, r1, r4
     728:	ea40 0002 	orr.w	r0, r0, r2
     72c:	f001 4100 	and.w	r1, r1, #2147483648	; 0x80000000
     730:	eb10 70d3 	adds.w	r0, r0, r3, lsr #31
     734:	f141 0100 	adc.w	r1, r1, #0
     738:	ea5e 0e43 	orrs.w	lr, lr, r3, lsl #1
     73c:	bf08      	it	eq
     73e:	ea20 70d3 	biceq.w	r0, r0, r3, lsr #31
     742:	bd70      	pop	{r4, r5, r6, pc}
     744:	f1c4 0520 	rsb	r5, r4, #32
     748:	fa00 f205 	lsl.w	r2, r0, r5
     74c:	ea4e 0e02 	orr.w	lr, lr, r2
     750:	fa20 f304 	lsr.w	r3, r0, r4
     754:	fa01 f205 	lsl.w	r2, r1, r5
     758:	ea43 0302 	orr.w	r3, r3, r2
     75c:	fa21 f004 	lsr.w	r0, r1, r4
     760:	f001 4100 	and.w	r1, r1, #2147483648	; 0x80000000
     764:	fa21 f204 	lsr.w	r2, r1, r4
     768:	ea20 0002 	bic.w	r0, r0, r2
     76c:	eb00 70d3 	add.w	r0, r0, r3, lsr #31
     770:	ea5e 0e43 	orrs.w	lr, lr, r3, lsl #1
     774:	bf08      	it	eq
     776:	ea20 70d3 	biceq.w	r0, r0, r3, lsr #31
     77a:	bd70      	pop	{r4, r5, r6, pc}
     77c:	f094 0f00 	teq	r4, #0
     780:	d10f      	bne.n	7a2 <__aeabi_dmul+0x1c2>
     782:	f001 4600 	and.w	r6, r1, #2147483648	; 0x80000000
     786:	0040      	lsls	r0, r0, #1
     788:	eb41 0101 	adc.w	r1, r1, r1
     78c:	f411 1f80 	tst.w	r1, #1048576	; 0x100000
     790:	bf08      	it	eq
     792:	3c01      	subeq	r4, #1
     794:	d0f7      	beq.n	786 <__aeabi_dmul+0x1a6>
     796:	ea41 0106 	orr.w	r1, r1, r6
     79a:	f095 0f00 	teq	r5, #0
     79e:	bf18      	it	ne
     7a0:	4770      	bxne	lr
     7a2:	f003 4600 	and.w	r6, r3, #2147483648	; 0x80000000
     7a6:	0052      	lsls	r2, r2, #1
     7a8:	eb43 0303 	adc.w	r3, r3, r3
     7ac:	f413 1f80 	tst.w	r3, #1048576	; 0x100000
     7b0:	bf08      	it	eq
     7b2:	3d01      	subeq	r5, #1
     7b4:	d0f7      	beq.n	7a6 <__aeabi_dmul+0x1c6>
     7b6:	ea43 0306 	orr.w	r3, r3, r6
     7ba:	4770      	bx	lr
     7bc:	ea94 0f0c 	teq	r4, ip
     7c0:	ea0c 5513 	and.w	r5, ip, r3, lsr #20
     7c4:	bf18      	it	ne
     7c6:	ea95 0f0c 	teqne	r5, ip
     7ca:	d00c      	beq.n	7e6 <__aeabi_dmul+0x206>
     7cc:	ea50 0641 	orrs.w	r6, r0, r1, lsl #1
     7d0:	bf18      	it	ne
     7d2:	ea52 0643 	orrsne.w	r6, r2, r3, lsl #1
     7d6:	d1d1      	bne.n	77c <__aeabi_dmul+0x19c>
     7d8:	ea81 0103 	eor.w	r1, r1, r3
     7dc:	f001 4100 	and.w	r1, r1, #2147483648	; 0x80000000
     7e0:	f04f 0000 	mov.w	r0, #0
     7e4:	bd70      	pop	{r4, r5, r6, pc}
     7e6:	ea50 0641 	orrs.w	r6, r0, r1, lsl #1
     7ea:	bf06      	itte	eq
     7ec:	4610      	moveq	r0, r2
     7ee:	4619      	moveq	r1, r3
     7f0:	ea52 0643 	orrsne.w	r6, r2, r3, lsl #1
     7f4:	d019      	beq.n	82a <CONFIG_ISR_STACK_SIZE+0x2a>
     7f6:	ea94 0f0c 	teq	r4, ip
     7fa:	d102      	bne.n	802 <CONFIG_ISR_STACK_SIZE+0x2>
     7fc:	ea50 3601 	orrs.w	r6, r0, r1, lsl #12
     800:	d113      	bne.n	82a <CONFIG_ISR_STACK_SIZE+0x2a>
     802:	ea95 0f0c 	teq	r5, ip
     806:	d105      	bne.n	814 <CONFIG_ISR_STACK_SIZE+0x14>
     808:	ea52 3603 	orrs.w	r6, r2, r3, lsl #12
     80c:	bf1c      	itt	ne
     80e:	4610      	movne	r0, r2
     810:	4619      	movne	r1, r3
     812:	d10a      	bne.n	82a <CONFIG_ISR_STACK_SIZE+0x2a>
     814:	ea81 0103 	eor.w	r1, r1, r3
     818:	f001 4100 	and.w	r1, r1, #2147483648	; 0x80000000
     81c:	f041 41fe 	orr.w	r1, r1, #2130706432	; 0x7f000000
     820:	f441 0170 	orr.w	r1, r1, #15728640	; 0xf00000
     824:	f04f 0000 	mov.w	r0, #0
     828:	bd70      	pop	{r4, r5, r6, pc}
     82a:	f041 41fe 	orr.w	r1, r1, #2130706432	; 0x7f000000
     82e:	f441 0178 	orr.w	r1, r1, #16252928	; 0xf80000
     832:	bd70      	pop	{r4, r5, r6, pc}

00000834 <__aeabi_ddiv>:
     834:	b570      	push	{r4, r5, r6, lr}
     836:	f04f 0cff 	mov.w	ip, #255	; 0xff
     83a:	f44c 6ce0 	orr.w	ip, ip, #1792	; 0x700
     83e:	ea1c 5411 	ands.w	r4, ip, r1, lsr #20
     842:	bf1d      	ittte	ne
     844:	ea1c 5513 	andsne.w	r5, ip, r3, lsr #20
     848:	ea94 0f0c 	teqne	r4, ip
     84c:	ea95 0f0c 	teqne	r5, ip
     850:	f000 f8a7 	bleq	9a2 <__aeabi_ddiv+0x16e>
     854:	eba4 0405 	sub.w	r4, r4, r5
     858:	ea81 0e03 	eor.w	lr, r1, r3
     85c:	ea52 3503 	orrs.w	r5, r2, r3, lsl #12
     860:	ea4f 3101 	mov.w	r1, r1, lsl #12
     864:	f000 8088 	beq.w	978 <__aeabi_ddiv+0x144>
     868:	ea4f 3303 	mov.w	r3, r3, lsl #12
     86c:	f04f 5580 	mov.w	r5, #268435456	; 0x10000000
     870:	ea45 1313 	orr.w	r3, r5, r3, lsr #4
     874:	ea43 6312 	orr.w	r3, r3, r2, lsr #24
     878:	ea4f 2202 	mov.w	r2, r2, lsl #8
     87c:	ea45 1511 	orr.w	r5, r5, r1, lsr #4
     880:	ea45 6510 	orr.w	r5, r5, r0, lsr #24
     884:	ea4f 2600 	mov.w	r6, r0, lsl #8
     888:	f00e 4100 	and.w	r1, lr, #2147483648	; 0x80000000
     88c:	429d      	cmp	r5, r3
     88e:	bf08      	it	eq
     890:	4296      	cmpeq	r6, r2
     892:	f144 04fd 	adc.w	r4, r4, #253	; 0xfd
     896:	f504 7440 	add.w	r4, r4, #768	; 0x300
     89a:	d202      	bcs.n	8a2 <__aeabi_ddiv+0x6e>
     89c:	085b      	lsrs	r3, r3, #1
     89e:	ea4f 0232 	mov.w	r2, r2, rrx
     8a2:	1ab6      	subs	r6, r6, r2
     8a4:	eb65 0503 	sbc.w	r5, r5, r3
     8a8:	085b      	lsrs	r3, r3, #1
     8aa:	ea4f 0232 	mov.w	r2, r2, rrx
     8ae:	f44f 1080 	mov.w	r0, #1048576	; 0x100000
     8b2:	f44f 2c00 	mov.w	ip, #524288	; 0x80000
     8b6:	ebb6 0e02 	subs.w	lr, r6, r2
     8ba:	eb75 0e03 	sbcs.w	lr, r5, r3
     8be:	bf22      	ittt	cs
     8c0:	1ab6      	subcs	r6, r6, r2
     8c2:	4675      	movcs	r5, lr
     8c4:	ea40 000c 	orrcs.w	r0, r0, ip
     8c8:	085b      	lsrs	r3, r3, #1
     8ca:	ea4f 0232 	mov.w	r2, r2, rrx
     8ce:	ebb6 0e02 	subs.w	lr, r6, r2
     8d2:	eb75 0e03 	sbcs.w	lr, r5, r3
     8d6:	bf22      	ittt	cs
     8d8:	1ab6      	subcs	r6, r6, r2
     8da:	4675      	movcs	r5, lr
     8dc:	ea40 005c 	orrcs.w	r0, r0, ip, lsr #1
     8e0:	085b      	lsrs	r3, r3, #1
     8e2:	ea4f 0232 	mov.w	r2, r2, rrx
     8e6:	ebb6 0e02 	subs.w	lr, r6, r2
     8ea:	eb75 0e03 	sbcs.w	lr, r5, r3
     8ee:	bf22      	ittt	cs
     8f0:	1ab6      	subcs	r6, r6, r2
     8f2:	4675      	movcs	r5, lr
     8f4:	ea40 009c 	orrcs.w	r0, r0, ip, lsr #2
     8f8:	085b      	lsrs	r3, r3, #1
     8fa:	ea4f 0232 	mov.w	r2, r2, rrx
     8fe:	ebb6 0e02 	subs.w	lr, r6, r2
     902:	eb75 0e03 	sbcs.w	lr, r5, r3
     906:	bf22      	ittt	cs
     908:	1ab6      	subcs	r6, r6, r2
     90a:	4675      	movcs	r5, lr
     90c:	ea40 00dc 	orrcs.w	r0, r0, ip, lsr #3
     910:	ea55 0e06 	orrs.w	lr, r5, r6
     914:	d018      	beq.n	948 <__aeabi_ddiv+0x114>
     916:	ea4f 1505 	mov.w	r5, r5, lsl #4
     91a:	ea45 7516 	orr.w	r5, r5, r6, lsr #28
     91e:	ea4f 1606 	mov.w	r6, r6, lsl #4
     922:	ea4f 03c3 	mov.w	r3, r3, lsl #3
     926:	ea43 7352 	orr.w	r3, r3, r2, lsr #29
     92a:	ea4f 02c2 	mov.w	r2, r2, lsl #3
     92e:	ea5f 1c1c 	movs.w	ip, ip, lsr #4
     932:	d1c0      	bne.n	8b6 <__aeabi_ddiv+0x82>
     934:	f411 1f80 	tst.w	r1, #1048576	; 0x100000
     938:	d10b      	bne.n	952 <__aeabi_ddiv+0x11e>
     93a:	ea41 0100 	orr.w	r1, r1, r0
     93e:	f04f 0000 	mov.w	r0, #0
     942:	f04f 4c00 	mov.w	ip, #2147483648	; 0x80000000
     946:	e7b6      	b.n	8b6 <__aeabi_ddiv+0x82>
     948:	f411 1f80 	tst.w	r1, #1048576	; 0x100000
     94c:	bf04      	itt	eq
     94e:	4301      	orreq	r1, r0
     950:	2000      	moveq	r0, #0
     952:	f1b4 0cfd 	subs.w	ip, r4, #253	; 0xfd
     956:	bf88      	it	hi
     958:	f5bc 6fe0 	cmphi.w	ip, #1792	; 0x700
     95c:	f63f aeaf 	bhi.w	6be <__aeabi_dmul+0xde>
     960:	ebb5 0c03 	subs.w	ip, r5, r3
     964:	bf04      	itt	eq
     966:	ebb6 0c02 	subseq.w	ip, r6, r2
     96a:	ea5f 0c50 	movseq.w	ip, r0, lsr #1
     96e:	f150 0000 	adcs.w	r0, r0, #0
     972:	eb41 5104 	adc.w	r1, r1, r4, lsl #20
     976:	bd70      	pop	{r4, r5, r6, pc}
     978:	f00e 4e00 	and.w	lr, lr, #2147483648	; 0x80000000
     97c:	ea4e 3111 	orr.w	r1, lr, r1, lsr #12
     980:	eb14 045c 	adds.w	r4, r4, ip, lsr #1
     984:	bfc2      	ittt	gt
     986:	ebd4 050c 	rsbsgt	r5, r4, ip
     98a:	ea41 5104 	orrgt.w	r1, r1, r4, lsl #20
     98e:	bd70      	popgt	{r4, r5, r6, pc}
     990:	f441 1180 	orr.w	r1, r1, #1048576	; 0x100000
     994:	f04f 0e00 	mov.w	lr, #0
     998:	3c01      	subs	r4, #1
     99a:	e690      	b.n	6be <__aeabi_dmul+0xde>
     99c:	ea45 0e06 	orr.w	lr, r5, r6
     9a0:	e68d      	b.n	6be <__aeabi_dmul+0xde>
     9a2:	ea0c 5513 	and.w	r5, ip, r3, lsr #20
     9a6:	ea94 0f0c 	teq	r4, ip
     9aa:	bf08      	it	eq
     9ac:	ea95 0f0c 	teqeq	r5, ip
     9b0:	f43f af3b 	beq.w	82a <CONFIG_ISR_STACK_SIZE+0x2a>
     9b4:	ea94 0f0c 	teq	r4, ip
     9b8:	d10a      	bne.n	9d0 <__aeabi_ddiv+0x19c>
     9ba:	ea50 3401 	orrs.w	r4, r0, r1, lsl #12
     9be:	f47f af34 	bne.w	82a <CONFIG_ISR_STACK_SIZE+0x2a>
     9c2:	ea95 0f0c 	teq	r5, ip
     9c6:	f47f af25 	bne.w	814 <CONFIG_ISR_STACK_SIZE+0x14>
     9ca:	4610      	mov	r0, r2
     9cc:	4619      	mov	r1, r3
     9ce:	e72c      	b.n	82a <CONFIG_ISR_STACK_SIZE+0x2a>
     9d0:	ea95 0f0c 	teq	r5, ip
     9d4:	d106      	bne.n	9e4 <__aeabi_ddiv+0x1b0>
     9d6:	ea52 3503 	orrs.w	r5, r2, r3, lsl #12
     9da:	f43f aefd 	beq.w	7d8 <__aeabi_dmul+0x1f8>
     9de:	4610      	mov	r0, r2
     9e0:	4619      	mov	r1, r3
     9e2:	e722      	b.n	82a <CONFIG_ISR_STACK_SIZE+0x2a>
     9e4:	ea50 0641 	orrs.w	r6, r0, r1, lsl #1
     9e8:	bf18      	it	ne
     9ea:	ea52 0643 	orrsne.w	r6, r2, r3, lsl #1
     9ee:	f47f aec5 	bne.w	77c <__aeabi_dmul+0x19c>
     9f2:	ea50 0441 	orrs.w	r4, r0, r1, lsl #1
     9f6:	f47f af0d 	bne.w	814 <CONFIG_ISR_STACK_SIZE+0x14>
     9fa:	ea52 0543 	orrs.w	r5, r2, r3, lsl #1
     9fe:	f47f aeeb 	bne.w	7d8 <__aeabi_dmul+0x1f8>
     a02:	e712      	b.n	82a <CONFIG_ISR_STACK_SIZE+0x2a>

00000a04 <__aeabi_d2iz>:
     a04:	ea4f 0241 	mov.w	r2, r1, lsl #1
     a08:	f512 1200 	adds.w	r2, r2, #2097152	; 0x200000
     a0c:	d215      	bcs.n	a3a <__aeabi_d2iz+0x36>
     a0e:	d511      	bpl.n	a34 <__aeabi_d2iz+0x30>
     a10:	f46f 7378 	mvn.w	r3, #992	; 0x3e0
     a14:	ebb3 5262 	subs.w	r2, r3, r2, asr #21
     a18:	d912      	bls.n	a40 <__aeabi_d2iz+0x3c>
     a1a:	ea4f 23c1 	mov.w	r3, r1, lsl #11
     a1e:	f043 4300 	orr.w	r3, r3, #2147483648	; 0x80000000
     a22:	ea43 5350 	orr.w	r3, r3, r0, lsr #21
     a26:	f011 4f00 	tst.w	r1, #2147483648	; 0x80000000
     a2a:	fa23 f002 	lsr.w	r0, r3, r2
     a2e:	bf18      	it	ne
     a30:	4240      	negne	r0, r0
     a32:	4770      	bx	lr
     a34:	f04f 0000 	mov.w	r0, #0
     a38:	4770      	bx	lr
     a3a:	ea50 3001 	orrs.w	r0, r0, r1, lsl #12
     a3e:	d105      	bne.n	a4c <__aeabi_d2iz+0x48>
     a40:	f011 4000 	ands.w	r0, r1, #2147483648	; 0x80000000
     a44:	bf08      	it	eq
     a46:	f06f 4000 	mvneq.w	r0, #2147483648	; 0x80000000
     a4a:	4770      	bx	lr
     a4c:	f04f 0000 	mov.w	r0, #0
     a50:	4770      	bx	lr
     a52:	bf00      	nop

00000a54 <__aeabi_frsub>:
     a54:	f080 4000 	eor.w	r0, r0, #2147483648	; 0x80000000
     a58:	e002      	b.n	a60 <__addsf3>
     a5a:	bf00      	nop

00000a5c <__aeabi_fsub>:
     a5c:	f081 4100 	eor.w	r1, r1, #2147483648	; 0x80000000

00000a60 <__addsf3>:
     a60:	0042      	lsls	r2, r0, #1
     a62:	bf1f      	itttt	ne
     a64:	ea5f 0341 	movsne.w	r3, r1, lsl #1
     a68:	ea92 0f03 	teqne	r2, r3
     a6c:	ea7f 6c22 	mvnsne.w	ip, r2, asr #24
     a70:	ea7f 6c23 	mvnsne.w	ip, r3, asr #24
     a74:	d06a      	beq.n	b4c <__addsf3+0xec>
     a76:	ea4f 6212 	mov.w	r2, r2, lsr #24
     a7a:	ebd2 6313 	rsbs	r3, r2, r3, lsr #24
     a7e:	bfc1      	itttt	gt
     a80:	18d2      	addgt	r2, r2, r3
     a82:	4041      	eorgt	r1, r0
     a84:	4048      	eorgt	r0, r1
     a86:	4041      	eorgt	r1, r0
     a88:	bfb8      	it	lt
     a8a:	425b      	neglt	r3, r3
     a8c:	2b19      	cmp	r3, #25
     a8e:	bf88      	it	hi
     a90:	4770      	bxhi	lr
     a92:	f010 4f00 	tst.w	r0, #2147483648	; 0x80000000
     a96:	f440 0000 	orr.w	r0, r0, #8388608	; 0x800000
     a9a:	f020 407f 	bic.w	r0, r0, #4278190080	; 0xff000000
     a9e:	bf18      	it	ne
     aa0:	4240      	negne	r0, r0
     aa2:	f011 4f00 	tst.w	r1, #2147483648	; 0x80000000
     aa6:	f441 0100 	orr.w	r1, r1, #8388608	; 0x800000
     aaa:	f021 417f 	bic.w	r1, r1, #4278190080	; 0xff000000
     aae:	bf18      	it	ne
     ab0:	4249      	negne	r1, r1
     ab2:	ea92 0f03 	teq	r2, r3
     ab6:	d03f      	beq.n	b38 <__addsf3+0xd8>
     ab8:	f1a2 0201 	sub.w	r2, r2, #1
     abc:	fa41 fc03 	asr.w	ip, r1, r3
     ac0:	eb10 000c 	adds.w	r0, r0, ip
     ac4:	f1c3 0320 	rsb	r3, r3, #32
     ac8:	fa01 f103 	lsl.w	r1, r1, r3
     acc:	f000 4300 	and.w	r3, r0, #2147483648	; 0x80000000
     ad0:	d502      	bpl.n	ad8 <__addsf3+0x78>
     ad2:	4249      	negs	r1, r1
     ad4:	eb60 0040 	sbc.w	r0, r0, r0, lsl #1
     ad8:	f5b0 0f00 	cmp.w	r0, #8388608	; 0x800000
     adc:	d313      	bcc.n	b06 <__addsf3+0xa6>
     ade:	f1b0 7f80 	cmp.w	r0, #16777216	; 0x1000000
     ae2:	d306      	bcc.n	af2 <__addsf3+0x92>
     ae4:	0840      	lsrs	r0, r0, #1
     ae6:	ea4f 0131 	mov.w	r1, r1, rrx
     aea:	f102 0201 	add.w	r2, r2, #1
     aee:	2afe      	cmp	r2, #254	; 0xfe
     af0:	d251      	bcs.n	b96 <__addsf3+0x136>
     af2:	f1b1 4f00 	cmp.w	r1, #2147483648	; 0x80000000
     af6:	eb40 50c2 	adc.w	r0, r0, r2, lsl #23
     afa:	bf08      	it	eq
     afc:	f020 0001 	biceq.w	r0, r0, #1
     b00:	ea40 0003 	orr.w	r0, r0, r3
     b04:	4770      	bx	lr
     b06:	0049      	lsls	r1, r1, #1
     b08:	eb40 0000 	adc.w	r0, r0, r0
     b0c:	3a01      	subs	r2, #1
     b0e:	bf28      	it	cs
     b10:	f5b0 0f00 	cmpcs.w	r0, #8388608	; 0x800000
     b14:	d2ed      	bcs.n	af2 <__addsf3+0x92>
     b16:	fab0 fc80 	clz	ip, r0
     b1a:	f1ac 0c08 	sub.w	ip, ip, #8
     b1e:	ebb2 020c 	subs.w	r2, r2, ip
     b22:	fa00 f00c 	lsl.w	r0, r0, ip
     b26:	bfaa      	itet	ge
     b28:	eb00 50c2 	addge.w	r0, r0, r2, lsl #23
     b2c:	4252      	neglt	r2, r2
     b2e:	4318      	orrge	r0, r3
     b30:	bfbc      	itt	lt
     b32:	40d0      	lsrlt	r0, r2
     b34:	4318      	orrlt	r0, r3
     b36:	4770      	bx	lr
     b38:	f092 0f00 	teq	r2, #0
     b3c:	f481 0100 	eor.w	r1, r1, #8388608	; 0x800000
     b40:	bf06      	itte	eq
     b42:	f480 0000 	eoreq.w	r0, r0, #8388608	; 0x800000
     b46:	3201      	addeq	r2, #1
     b48:	3b01      	subne	r3, #1
     b4a:	e7b5      	b.n	ab8 <__addsf3+0x58>
     b4c:	ea4f 0341 	mov.w	r3, r1, lsl #1
     b50:	ea7f 6c22 	mvns.w	ip, r2, asr #24
     b54:	bf18      	it	ne
     b56:	ea7f 6c23 	mvnsne.w	ip, r3, asr #24
     b5a:	d021      	beq.n	ba0 <__addsf3+0x140>
     b5c:	ea92 0f03 	teq	r2, r3
     b60:	d004      	beq.n	b6c <__addsf3+0x10c>
     b62:	f092 0f00 	teq	r2, #0
     b66:	bf08      	it	eq
     b68:	4608      	moveq	r0, r1
     b6a:	4770      	bx	lr
     b6c:	ea90 0f01 	teq	r0, r1
     b70:	bf1c      	itt	ne
     b72:	2000      	movne	r0, #0
     b74:	4770      	bxne	lr
     b76:	f012 4f7f 	tst.w	r2, #4278190080	; 0xff000000
     b7a:	d104      	bne.n	b86 <__addsf3+0x126>
     b7c:	0040      	lsls	r0, r0, #1
     b7e:	bf28      	it	cs
     b80:	f040 4000 	orrcs.w	r0, r0, #2147483648	; 0x80000000
     b84:	4770      	bx	lr
     b86:	f112 7200 	adds.w	r2, r2, #33554432	; 0x2000000
     b8a:	bf3c      	itt	cc
     b8c:	f500 0000 	addcc.w	r0, r0, #8388608	; 0x800000
     b90:	4770      	bxcc	lr
     b92:	f000 4300 	and.w	r3, r0, #2147483648	; 0x80000000
     b96:	f043 40fe 	orr.w	r0, r3, #2130706432	; 0x7f000000
     b9a:	f440 0000 	orr.w	r0, r0, #8388608	; 0x800000
     b9e:	4770      	bx	lr
     ba0:	ea7f 6222 	mvns.w	r2, r2, asr #24
     ba4:	bf16      	itet	ne
     ba6:	4608      	movne	r0, r1
     ba8:	ea7f 6323 	mvnseq.w	r3, r3, asr #24
     bac:	4601      	movne	r1, r0
     bae:	0242      	lsls	r2, r0, #9
     bb0:	bf06      	itte	eq
     bb2:	ea5f 2341 	movseq.w	r3, r1, lsl #9
     bb6:	ea90 0f01 	teqeq	r0, r1
     bba:	f440 0080 	orrne.w	r0, r0, #4194304	; 0x400000
     bbe:	4770      	bx	lr

00000bc0 <__aeabi_ui2f>:
     bc0:	f04f 0300 	mov.w	r3, #0
     bc4:	e004      	b.n	bd0 <__aeabi_i2f+0x8>
     bc6:	bf00      	nop

00000bc8 <__aeabi_i2f>:
     bc8:	f010 4300 	ands.w	r3, r0, #2147483648	; 0x80000000
     bcc:	bf48      	it	mi
     bce:	4240      	negmi	r0, r0
     bd0:	ea5f 0c00 	movs.w	ip, r0
     bd4:	bf08      	it	eq
     bd6:	4770      	bxeq	lr
     bd8:	f043 4396 	orr.w	r3, r3, #1258291200	; 0x4b000000
     bdc:	4601      	mov	r1, r0
     bde:	f04f 0000 	mov.w	r0, #0
     be2:	e01c      	b.n	c1e <__aeabi_l2f+0x2a>

00000be4 <__aeabi_ul2f>:
     be4:	ea50 0201 	orrs.w	r2, r0, r1
     be8:	bf08      	it	eq
     bea:	4770      	bxeq	lr
     bec:	f04f 0300 	mov.w	r3, #0
     bf0:	e00a      	b.n	c08 <__aeabi_l2f+0x14>
     bf2:	bf00      	nop

00000bf4 <__aeabi_l2f>:
     bf4:	ea50 0201 	orrs.w	r2, r0, r1
     bf8:	bf08      	it	eq
     bfa:	4770      	bxeq	lr
     bfc:	f011 4300 	ands.w	r3, r1, #2147483648	; 0x80000000
     c00:	d502      	bpl.n	c08 <__aeabi_l2f+0x14>
     c02:	4240      	negs	r0, r0
     c04:	eb61 0141 	sbc.w	r1, r1, r1, lsl #1
     c08:	ea5f 0c01 	movs.w	ip, r1
     c0c:	bf02      	ittt	eq
     c0e:	4684      	moveq	ip, r0
     c10:	4601      	moveq	r1, r0
     c12:	2000      	moveq	r0, #0
     c14:	f043 43b6 	orr.w	r3, r3, #1526726656	; 0x5b000000
     c18:	bf08      	it	eq
     c1a:	f1a3 5380 	subeq.w	r3, r3, #268435456	; 0x10000000
     c1e:	f5a3 0300 	sub.w	r3, r3, #8388608	; 0x800000
     c22:	fabc f28c 	clz	r2, ip
     c26:	3a08      	subs	r2, #8
     c28:	eba3 53c2 	sub.w	r3, r3, r2, lsl #23
     c2c:	db10      	blt.n	c50 <__aeabi_l2f+0x5c>
     c2e:	fa01 fc02 	lsl.w	ip, r1, r2
     c32:	4463      	add	r3, ip
     c34:	fa00 fc02 	lsl.w	ip, r0, r2
     c38:	f1c2 0220 	rsb	r2, r2, #32
     c3c:	f1bc 4f00 	cmp.w	ip, #2147483648	; 0x80000000
     c40:	fa20 f202 	lsr.w	r2, r0, r2
     c44:	eb43 0002 	adc.w	r0, r3, r2
     c48:	bf08      	it	eq
     c4a:	f020 0001 	biceq.w	r0, r0, #1
     c4e:	4770      	bx	lr
     c50:	f102 0220 	add.w	r2, r2, #32
     c54:	fa01 fc02 	lsl.w	ip, r1, r2
     c58:	f1c2 0220 	rsb	r2, r2, #32
     c5c:	ea50 004c 	orrs.w	r0, r0, ip, lsl #1
     c60:	fa21 f202 	lsr.w	r2, r1, r2
     c64:	eb43 0002 	adc.w	r0, r3, r2
     c68:	bf08      	it	eq
     c6a:	ea20 70dc 	biceq.w	r0, r0, ip, lsr #31
     c6e:	4770      	bx	lr

00000c70 <__aeabi_f2uiz>:
     c70:	0042      	lsls	r2, r0, #1
     c72:	d20e      	bcs.n	c92 <__aeabi_f2uiz+0x22>
     c74:	f1b2 4ffe 	cmp.w	r2, #2130706432	; 0x7f000000
     c78:	d30b      	bcc.n	c92 <__aeabi_f2uiz+0x22>
     c7a:	f04f 039e 	mov.w	r3, #158	; 0x9e
     c7e:	ebb3 6212 	subs.w	r2, r3, r2, lsr #24
     c82:	d409      	bmi.n	c98 <__aeabi_f2uiz+0x28>
     c84:	ea4f 2300 	mov.w	r3, r0, lsl #8
     c88:	f043 4300 	orr.w	r3, r3, #2147483648	; 0x80000000
     c8c:	fa23 f002 	lsr.w	r0, r3, r2
     c90:	4770      	bx	lr
     c92:	f04f 0000 	mov.w	r0, #0
     c96:	4770      	bx	lr
     c98:	f112 0f61 	cmn.w	r2, #97	; 0x61
     c9c:	d101      	bne.n	ca2 <__aeabi_f2uiz+0x32>
     c9e:	0242      	lsls	r2, r0, #9
     ca0:	d102      	bne.n	ca8 <__aeabi_f2uiz+0x38>
     ca2:	f04f 30ff 	mov.w	r0, #4294967295
     ca6:	4770      	bx	lr
     ca8:	f04f 0000 	mov.w	r0, #0
     cac:	4770      	bx	lr
     cae:	bf00      	nop

00000cb0 <__aeabi_uldivmod>:
     cb0:	b953      	cbnz	r3, cc8 <__aeabi_uldivmod+0x18>
     cb2:	b94a      	cbnz	r2, cc8 <__aeabi_uldivmod+0x18>
     cb4:	2900      	cmp	r1, #0
     cb6:	bf08      	it	eq
     cb8:	2800      	cmpeq	r0, #0
     cba:	bf1c      	itt	ne
     cbc:	f04f 31ff 	movne.w	r1, #4294967295
     cc0:	f04f 30ff 	movne.w	r0, #4294967295
     cc4:	f000 b96c 	b.w	fa0 <__aeabi_idiv0>
     cc8:	f1ad 0c08 	sub.w	ip, sp, #8
     ccc:	e96d ce04 	strd	ip, lr, [sp, #-16]!
     cd0:	f000 f806 	bl	ce0 <__udivmoddi4>
     cd4:	f8dd e004 	ldr.w	lr, [sp, #4]
     cd8:	e9dd 2302 	ldrd	r2, r3, [sp, #8]
     cdc:	b004      	add	sp, #16
     cde:	4770      	bx	lr

00000ce0 <__udivmoddi4>:
     ce0:	e92d 47f0 	stmdb	sp!, {r4, r5, r6, r7, r8, r9, sl, lr}
     ce4:	9e08      	ldr	r6, [sp, #32]
     ce6:	460d      	mov	r5, r1
     ce8:	4604      	mov	r4, r0
     cea:	468e      	mov	lr, r1
     cec:	2b00      	cmp	r3, #0
     cee:	f040 8082 	bne.w	df6 <__udivmoddi4+0x116>
     cf2:	428a      	cmp	r2, r1
     cf4:	4617      	mov	r7, r2
     cf6:	d946      	bls.n	d86 <__udivmoddi4+0xa6>
     cf8:	fab2 f282 	clz	r2, r2
     cfc:	b14a      	cbz	r2, d12 <__udivmoddi4+0x32>
     cfe:	f1c2 0120 	rsb	r1, r2, #32
     d02:	fa05 f302 	lsl.w	r3, r5, r2
     d06:	fa20 f101 	lsr.w	r1, r0, r1
     d0a:	4097      	lsls	r7, r2
     d0c:	ea41 0e03 	orr.w	lr, r1, r3
     d10:	4094      	lsls	r4, r2
     d12:	ea4f 4817 	mov.w	r8, r7, lsr #16
     d16:	0c23      	lsrs	r3, r4, #16
     d18:	fbbe fcf8 	udiv	ip, lr, r8
     d1c:	b2b9      	uxth	r1, r7
     d1e:	fb08 ee1c 	mls	lr, r8, ip, lr
     d22:	ea43 430e 	orr.w	r3, r3, lr, lsl #16
     d26:	fb0c f001 	mul.w	r0, ip, r1
     d2a:	4298      	cmp	r0, r3
     d2c:	d90a      	bls.n	d44 <__udivmoddi4+0x64>
     d2e:	18fb      	adds	r3, r7, r3
     d30:	f10c 35ff 	add.w	r5, ip, #4294967295
     d34:	f080 8116 	bcs.w	f64 <__udivmoddi4+0x284>
     d38:	4298      	cmp	r0, r3
     d3a:	f240 8113 	bls.w	f64 <__udivmoddi4+0x284>
     d3e:	f1ac 0c02 	sub.w	ip, ip, #2
     d42:	443b      	add	r3, r7
     d44:	1a1b      	subs	r3, r3, r0
     d46:	b2a4      	uxth	r4, r4
     d48:	fbb3 f0f8 	udiv	r0, r3, r8
     d4c:	fb08 3310 	mls	r3, r8, r0, r3
     d50:	ea44 4403 	orr.w	r4, r4, r3, lsl #16
     d54:	fb00 f101 	mul.w	r1, r0, r1
     d58:	42a1      	cmp	r1, r4
     d5a:	d909      	bls.n	d70 <__udivmoddi4+0x90>
     d5c:	193c      	adds	r4, r7, r4
     d5e:	f100 33ff 	add.w	r3, r0, #4294967295
     d62:	f080 8101 	bcs.w	f68 <__udivmoddi4+0x288>
     d66:	42a1      	cmp	r1, r4
     d68:	f240 80fe 	bls.w	f68 <__udivmoddi4+0x288>
     d6c:	3802      	subs	r0, #2
     d6e:	443c      	add	r4, r7
     d70:	1a64      	subs	r4, r4, r1
     d72:	ea40 400c 	orr.w	r0, r0, ip, lsl #16
     d76:	2100      	movs	r1, #0
     d78:	b11e      	cbz	r6, d82 <__udivmoddi4+0xa2>
     d7a:	40d4      	lsrs	r4, r2
     d7c:	2300      	movs	r3, #0
     d7e:	e9c6 4300 	strd	r4, r3, [r6]
     d82:	e8bd 87f0 	ldmia.w	sp!, {r4, r5, r6, r7, r8, r9, sl, pc}
     d86:	b902      	cbnz	r2, d8a <__udivmoddi4+0xaa>
     d88:	deff      	udf	#255	; 0xff
     d8a:	fab2 f282 	clz	r2, r2
     d8e:	2a00      	cmp	r2, #0
     d90:	d14f      	bne.n	e32 <__udivmoddi4+0x152>
     d92:	1bcb      	subs	r3, r1, r7
     d94:	ea4f 4e17 	mov.w	lr, r7, lsr #16
     d98:	fa1f f887 	uxth.w	r8, r7
     d9c:	2101      	movs	r1, #1
     d9e:	fbb3 fcfe 	udiv	ip, r3, lr
     da2:	0c25      	lsrs	r5, r4, #16
     da4:	fb0e 331c 	mls	r3, lr, ip, r3
     da8:	ea45 4503 	orr.w	r5, r5, r3, lsl #16
     dac:	fb08 f30c 	mul.w	r3, r8, ip
     db0:	42ab      	cmp	r3, r5
     db2:	d907      	bls.n	dc4 <__udivmoddi4+0xe4>
     db4:	197d      	adds	r5, r7, r5
     db6:	f10c 30ff 	add.w	r0, ip, #4294967295
     dba:	d202      	bcs.n	dc2 <__udivmoddi4+0xe2>
     dbc:	42ab      	cmp	r3, r5
     dbe:	f200 80e7 	bhi.w	f90 <__udivmoddi4+0x2b0>
     dc2:	4684      	mov	ip, r0
     dc4:	1aed      	subs	r5, r5, r3
     dc6:	b2a3      	uxth	r3, r4
     dc8:	fbb5 f0fe 	udiv	r0, r5, lr
     dcc:	fb0e 5510 	mls	r5, lr, r0, r5
     dd0:	ea43 4405 	orr.w	r4, r3, r5, lsl #16
     dd4:	fb08 f800 	mul.w	r8, r8, r0
     dd8:	45a0      	cmp	r8, r4
     dda:	d907      	bls.n	dec <__udivmoddi4+0x10c>
     ddc:	193c      	adds	r4, r7, r4
     dde:	f100 33ff 	add.w	r3, r0, #4294967295
     de2:	d202      	bcs.n	dea <__udivmoddi4+0x10a>
     de4:	45a0      	cmp	r8, r4
     de6:	f200 80d7 	bhi.w	f98 <__udivmoddi4+0x2b8>
     dea:	4618      	mov	r0, r3
     dec:	eba4 0408 	sub.w	r4, r4, r8
     df0:	ea40 400c 	orr.w	r0, r0, ip, lsl #16
     df4:	e7c0      	b.n	d78 <__udivmoddi4+0x98>
     df6:	428b      	cmp	r3, r1
     df8:	d908      	bls.n	e0c <__udivmoddi4+0x12c>
     dfa:	2e00      	cmp	r6, #0
     dfc:	f000 80af 	beq.w	f5e <__udivmoddi4+0x27e>
     e00:	2100      	movs	r1, #0
     e02:	e9c6 0500 	strd	r0, r5, [r6]
     e06:	4608      	mov	r0, r1
     e08:	e8bd 87f0 	ldmia.w	sp!, {r4, r5, r6, r7, r8, r9, sl, pc}
     e0c:	fab3 f183 	clz	r1, r3
     e10:	2900      	cmp	r1, #0
     e12:	d14b      	bne.n	eac <__udivmoddi4+0x1cc>
     e14:	42ab      	cmp	r3, r5
     e16:	d302      	bcc.n	e1e <__udivmoddi4+0x13e>
     e18:	4282      	cmp	r2, r0
     e1a:	f200 80b7 	bhi.w	f8c <__udivmoddi4+0x2ac>
     e1e:	1a84      	subs	r4, r0, r2
     e20:	eb65 0303 	sbc.w	r3, r5, r3
     e24:	2001      	movs	r0, #1
     e26:	469e      	mov	lr, r3
     e28:	2e00      	cmp	r6, #0
     e2a:	d0aa      	beq.n	d82 <__udivmoddi4+0xa2>
     e2c:	e9c6 4e00 	strd	r4, lr, [r6]
     e30:	e7a7      	b.n	d82 <__udivmoddi4+0xa2>
     e32:	f1c2 0c20 	rsb	ip, r2, #32
     e36:	fa01 f302 	lsl.w	r3, r1, r2
     e3a:	4097      	lsls	r7, r2
     e3c:	fa20 f00c 	lsr.w	r0, r0, ip
     e40:	ea4f 4e17 	mov.w	lr, r7, lsr #16
     e44:	fa21 fc0c 	lsr.w	ip, r1, ip
     e48:	4318      	orrs	r0, r3
     e4a:	fbbc f1fe 	udiv	r1, ip, lr
     e4e:	0c05      	lsrs	r5, r0, #16
     e50:	fb0e cc11 	mls	ip, lr, r1, ip
     e54:	fa1f f887 	uxth.w	r8, r7
     e58:	ea45 450c 	orr.w	r5, r5, ip, lsl #16
     e5c:	fb01 f308 	mul.w	r3, r1, r8
     e60:	42ab      	cmp	r3, r5
     e62:	fa04 f402 	lsl.w	r4, r4, r2
     e66:	d909      	bls.n	e7c <__udivmoddi4+0x19c>
     e68:	197d      	adds	r5, r7, r5
     e6a:	f101 3cff 	add.w	ip, r1, #4294967295
     e6e:	f080 808b 	bcs.w	f88 <__udivmoddi4+0x2a8>
     e72:	42ab      	cmp	r3, r5
     e74:	f240 8088 	bls.w	f88 <__udivmoddi4+0x2a8>
     e78:	3902      	subs	r1, #2
     e7a:	443d      	add	r5, r7
     e7c:	1aeb      	subs	r3, r5, r3
     e7e:	b285      	uxth	r5, r0
     e80:	fbb3 f0fe 	udiv	r0, r3, lr
     e84:	fb0e 3310 	mls	r3, lr, r0, r3
     e88:	ea45 4503 	orr.w	r5, r5, r3, lsl #16
     e8c:	fb00 f308 	mul.w	r3, r0, r8
     e90:	42ab      	cmp	r3, r5
     e92:	d907      	bls.n	ea4 <__udivmoddi4+0x1c4>
     e94:	197d      	adds	r5, r7, r5
     e96:	f100 3cff 	add.w	ip, r0, #4294967295
     e9a:	d271      	bcs.n	f80 <__udivmoddi4+0x2a0>
     e9c:	42ab      	cmp	r3, r5
     e9e:	d96f      	bls.n	f80 <__udivmoddi4+0x2a0>
     ea0:	3802      	subs	r0, #2
     ea2:	443d      	add	r5, r7
     ea4:	1aeb      	subs	r3, r5, r3
     ea6:	ea40 4101 	orr.w	r1, r0, r1, lsl #16
     eaa:	e778      	b.n	d9e <__udivmoddi4+0xbe>
     eac:	f1c1 0c20 	rsb	ip, r1, #32
     eb0:	408b      	lsls	r3, r1
     eb2:	fa22 f70c 	lsr.w	r7, r2, ip
     eb6:	431f      	orrs	r7, r3
     eb8:	fa20 f40c 	lsr.w	r4, r0, ip
     ebc:	fa05 f301 	lsl.w	r3, r5, r1
     ec0:	ea4f 4e17 	mov.w	lr, r7, lsr #16
     ec4:	fa25 f50c 	lsr.w	r5, r5, ip
     ec8:	431c      	orrs	r4, r3
     eca:	0c23      	lsrs	r3, r4, #16
     ecc:	fbb5 f9fe 	udiv	r9, r5, lr
     ed0:	fa1f f887 	uxth.w	r8, r7
     ed4:	fb0e 5519 	mls	r5, lr, r9, r5
     ed8:	ea43 4505 	orr.w	r5, r3, r5, lsl #16
     edc:	fb09 fa08 	mul.w	sl, r9, r8
     ee0:	45aa      	cmp	sl, r5
     ee2:	fa02 f201 	lsl.w	r2, r2, r1
     ee6:	fa00 f301 	lsl.w	r3, r0, r1
     eea:	d908      	bls.n	efe <__udivmoddi4+0x21e>
     eec:	197d      	adds	r5, r7, r5
     eee:	f109 30ff 	add.w	r0, r9, #4294967295
     ef2:	d247      	bcs.n	f84 <__udivmoddi4+0x2a4>
     ef4:	45aa      	cmp	sl, r5
     ef6:	d945      	bls.n	f84 <__udivmoddi4+0x2a4>
     ef8:	f1a9 0902 	sub.w	r9, r9, #2
     efc:	443d      	add	r5, r7
     efe:	eba5 050a 	sub.w	r5, r5, sl
     f02:	b2a4      	uxth	r4, r4
     f04:	fbb5 f0fe 	udiv	r0, r5, lr
     f08:	fb0e 5510 	mls	r5, lr, r0, r5
     f0c:	ea44 4405 	orr.w	r4, r4, r5, lsl #16
     f10:	fb00 f808 	mul.w	r8, r0, r8
     f14:	45a0      	cmp	r8, r4
     f16:	d907      	bls.n	f28 <__udivmoddi4+0x248>
     f18:	193c      	adds	r4, r7, r4
     f1a:	f100 35ff 	add.w	r5, r0, #4294967295
     f1e:	d22d      	bcs.n	f7c <__udivmoddi4+0x29c>
     f20:	45a0      	cmp	r8, r4
     f22:	d92b      	bls.n	f7c <__udivmoddi4+0x29c>
     f24:	3802      	subs	r0, #2
     f26:	443c      	add	r4, r7
     f28:	ea40 4009 	orr.w	r0, r0, r9, lsl #16
     f2c:	eba4 0408 	sub.w	r4, r4, r8
     f30:	fba0 8902 	umull	r8, r9, r0, r2
     f34:	454c      	cmp	r4, r9
     f36:	46c6      	mov	lr, r8
     f38:	464d      	mov	r5, r9
     f3a:	d319      	bcc.n	f70 <__udivmoddi4+0x290>
     f3c:	d016      	beq.n	f6c <__udivmoddi4+0x28c>
     f3e:	b15e      	cbz	r6, f58 <__udivmoddi4+0x278>
     f40:	ebb3 020e 	subs.w	r2, r3, lr
     f44:	eb64 0405 	sbc.w	r4, r4, r5
     f48:	fa04 fc0c 	lsl.w	ip, r4, ip
     f4c:	40ca      	lsrs	r2, r1
     f4e:	ea4c 0202 	orr.w	r2, ip, r2
     f52:	40cc      	lsrs	r4, r1
     f54:	e9c6 2400 	strd	r2, r4, [r6]
     f58:	2100      	movs	r1, #0
     f5a:	e8bd 87f0 	ldmia.w	sp!, {r4, r5, r6, r7, r8, r9, sl, pc}
     f5e:	4631      	mov	r1, r6
     f60:	4630      	mov	r0, r6
     f62:	e70e      	b.n	d82 <__udivmoddi4+0xa2>
     f64:	46ac      	mov	ip, r5
     f66:	e6ed      	b.n	d44 <__udivmoddi4+0x64>
     f68:	4618      	mov	r0, r3
     f6a:	e701      	b.n	d70 <__udivmoddi4+0x90>
     f6c:	4543      	cmp	r3, r8
     f6e:	d2e6      	bcs.n	f3e <__udivmoddi4+0x25e>
     f70:	ebb8 0e02 	subs.w	lr, r8, r2
     f74:	eb69 0507 	sbc.w	r5, r9, r7
     f78:	3801      	subs	r0, #1
     f7a:	e7e0      	b.n	f3e <__udivmoddi4+0x25e>
     f7c:	4628      	mov	r0, r5
     f7e:	e7d3      	b.n	f28 <__udivmoddi4+0x248>
     f80:	4660      	mov	r0, ip
     f82:	e78f      	b.n	ea4 <__udivmoddi4+0x1c4>
     f84:	4681      	mov	r9, r0
     f86:	e7ba      	b.n	efe <__udivmoddi4+0x21e>
     f88:	4661      	mov	r1, ip
     f8a:	e777      	b.n	e7c <__udivmoddi4+0x19c>
     f8c:	4608      	mov	r0, r1
     f8e:	e74b      	b.n	e28 <__udivmoddi4+0x148>
     f90:	f1ac 0c02 	sub.w	ip, ip, #2
     f94:	443d      	add	r5, r7
     f96:	e715      	b.n	dc4 <__udivmoddi4+0xe4>
     f98:	3802      	subs	r0, #2
     f9a:	443c      	add	r4, r7
     f9c:	e726      	b.n	dec <__udivmoddi4+0x10c>
     f9e:	bf00      	nop

00000fa0 <__aeabi_idiv0>:
     fa0:	4770      	bx	lr
     fa2:	bf00      	nop
     fa4:	0000      	movs	r0, r0
	...

00000fa8 <action_thread_code>:
    }
}


void action_thread_code(void *argA , void *argB, void *argC)
{
     fa8:	e92d 4ff0 	stmdb	sp!, {r4, r5, r6, r7, r8, r9, sl, fp, lr}
    printk("\nAction Thread init\n");
     fac:	484e      	ldr	r0, [pc, #312]	; (10e8 <CONFIG_FPROTECT_BLOCK_SIZE+0xe8>)
{
     fae:	b08f      	sub	sp, #60	; 0x3c
    printk("\nAction Thread init\n");
     fb0:	f005 fba0 	bl	66f4 <printk>
    //int adc_out_per;
    int dif1, dif2, sum1, sum2, average, i, k, j;
    int values_in[10] = {0,0,0,0,0,0,0,0,0,0};
     fb4:	2228      	movs	r2, #40	; 0x28
     fb6:	2100      	movs	r1, #0
     fb8:	a804      	add	r0, sp, #16
     fba:	f005 fd87 	bl	6acc <memset>
		/* coverity[OVERRUN] */
		return (int) arch_syscall_invoke3(*(uintptr_t *)&sem, parm0.split.lo, parm0.split.hi, K_SYSCALL_K_SEM_TAKE);
	}
#endif
	compiler_barrier();
	return z_impl_k_sem_take(sem, timeout);
     fbe:	f04f 33ff 	mov.w	r3, #4294967295
     fc2:	484a      	ldr	r0, [pc, #296]	; (10ec <CONFIG_FPROTECT_BLOCK_SIZE+0xec>)
     fc4:	f04f 32ff 	mov.w	r2, #4294967295
     fc8:	f004 fcd4 	bl	5974 <z_impl_k_sem_take>
            {
              // shift left das posi??es
              values_in[k] = values_in[k+1];
              // inserir valor lido na ultima posi??o do array
              if(k == 8)
                values_in[k+1] = 1023 - adc_sample_buffer[0];
     fcc:	4b48      	ldr	r3, [pc, #288]	; (10f0 <CONFIG_FPROTECT_BLOCK_SIZE+0xf0>)
     fce:	881d      	ldrh	r5, [r3, #0]
     fd0:	4b48      	ldr	r3, [pc, #288]	; (10f4 <CONFIG_FPROTECT_BLOCK_SIZE+0xf4>)
     fd2:	2400      	movs	r4, #0
     fd4:	f5c5 757f 	rsb	r5, r5, #1020	; 0x3fc
     fd8:	f8b3 b000 	ldrh.w	fp, [r3]
     fdc:	3503      	adds	r5, #3
        j = 0;
     fde:	4626      	mov	r6, r4
        for(i = 0; i <= 9; i++)
     fe0:	4623      	mov	r3, r4
        sum2 = 0;
     fe2:	4627      	mov	r7, r4
        sum1 = 0;
     fe4:	46a2      	mov	sl, r4
          if(i == 0)
     fe6:	b93b      	cbnz	r3, ff8 <action_thread_code+0x50>
     fe8:	a904      	add	r1, sp, #16
     fea:	2209      	movs	r2, #9
              values_in[k] = values_in[k+1];
     fec:	6848      	ldr	r0, [r1, #4]
     fee:	f841 0b04 	str.w	r0, [r1], #4
              if(k == 8)
     ff2:	3a01      	subs	r2, #1
     ff4:	d1fa      	bne.n	fec <action_thread_code+0x44>
                values_in[k+1] = 1023 - adc_sample_buffer[0];
     ff6:	950d      	str	r5, [sp, #52]	; 0x34
            }
          }
          // Calcular soma dos valores do array
          sum1 += values_in[i];
     ff8:	aa0e      	add	r2, sp, #56	; 0x38
     ffa:	eb02 0283 	add.w	r2, r2, r3, lsl #2

          if(i == 9)
     ffe:	2b09      	cmp	r3, #9
          sum1 += values_in[i];
    1000:	f852 2c28 	ldr.w	r2, [r2, #-40]
    1004:	4492      	add	sl, r2
          if(i == 9)
    1006:	d135      	bne.n	1074 <CONFIG_FPROTECT_BLOCK_SIZE+0x74>
          {
            // m?dia e diferen?as para condi??es
            average = sum1 / 10;
            //printk("\naverage: %d\n",average);
            dif1 = average + average*0.1;
    1008:	230a      	movs	r3, #10
    100a:	fb9a f0f3 	sdiv	r0, sl, r3
    100e:	f7ff fa7d 	bl	50c <__aeabi_i2d>
    1012:	4602      	mov	r2, r0
    1014:	460b      	mov	r3, r1
    1016:	e9cd 2300 	strd	r2, r3, [sp]
    101a:	a331      	add	r3, pc, #196	; (adr r3, 10e0 <CONFIG_FPROTECT_BLOCK_SIZE+0xe0>)
    101c:	e9d3 2300 	ldrd	r2, r3, [r3]
    1020:	f7ff fade 	bl	5e0 <__aeabi_dmul>
    1024:	4602      	mov	r2, r0
    1026:	460b      	mov	r3, r1
    1028:	4680      	mov	r8, r0
    102a:	4689      	mov	r9, r1
    102c:	e9dd 0100 	ldrd	r0, r1, [sp]
    1030:	f7ff f920 	bl	274 <__adddf3>
    1034:	f7ff fce6 	bl	a04 <__aeabi_d2iz>
            dif2 = average - average*0.1;
    1038:	464b      	mov	r3, r9
            dif1 = average + average*0.1;
    103a:	9003      	str	r0, [sp, #12]
            dif2 = average - average*0.1;
    103c:	4642      	mov	r2, r8
    103e:	e9dd 0100 	ldrd	r0, r1, [sp]
    1042:	f7ff f915 	bl	270 <__aeabi_dsub>
    1046:	f7ff fcdd 	bl	a04 <__aeabi_d2iz>
        
            for(i = 0; i <= 9; i++)
    104a:	f10d 0c10 	add.w	ip, sp, #16
    104e:	2300      	movs	r3, #0
            {
              // soma dos valores aprovados pelo filtro
              if((values_in[i] < dif1) && (values_in[i] > dif2))
    1050:	f85c 2b04 	ldr.w	r2, [ip], #4
    1054:	9903      	ldr	r1, [sp, #12]
    1056:	428a      	cmp	r2, r1
    1058:	da03      	bge.n	1062 <CONFIG_FPROTECT_BLOCK_SIZE+0x62>
    105a:	4282      	cmp	r2, r0
              {
                sum2 += values_in[i];
    105c:	bfc4      	itt	gt
    105e:	18bf      	addgt	r7, r7, r2
                j++;
    1060:	3601      	addgt	r6, #1
            for(i = 0; i <= 9; i++)
    1062:	3301      	adds	r3, #1
    1064:	2b0a      	cmp	r3, #10
    1066:	d1f3      	bne.n	1050 <CONFIG_FPROTECT_BLOCK_SIZE+0x50>
              }
            }
            
            // if porque ? impossivel dividir por 0
            if(j != 0)
    1068:	b126      	cbz	r6, 1074 <CONFIG_FPROTECT_BLOCK_SIZE+0x74>
              aux2 = sum2 / j;
    106a:	fb97 f2f6 	sdiv	r2, r7, r6
    106e:	2401      	movs	r4, #1
    1070:	fa1f fb82 	uxth.w	fp, r2
        for(i = 0; i <= 9; i++)
    1074:	3301      	adds	r3, #1
    1076:	2b09      	cmp	r3, #9
    1078:	ddb5      	ble.n	fe6 <action_thread_code+0x3e>
    107a:	b114      	cbz	r4, 1082 <CONFIG_FPROTECT_BLOCK_SIZE+0x82>
    107c:	4b1d      	ldr	r3, [pc, #116]	; (10f4 <CONFIG_FPROTECT_BLOCK_SIZE+0xf4>)
    107e:	f8a3 b000 	strh.w	fp, [r3]
        // Conta fodida

        uint8_t c;
        uint16_t aux = 0;
        
        if(print_flag == 0)
    1082:	4b1d      	ldr	r3, [pc, #116]	; (10f8 <CONFIG_FPROTECT_BLOCK_SIZE+0xf8>)
    1084:	681c      	ldr	r4, [r3, #0]
    1086:	bb1c      	cbnz	r4, 10d0 <CONFIG_FPROTECT_BLOCK_SIZE+0xd0>
        {
          printk("\nInsira a intensidade em %%: ");
    1088:	481c      	ldr	r0, [pc, #112]	; (10fc <CONFIG_FPROTECT_BLOCK_SIZE+0xfc>)
    108a:	f005 fb33 	bl	66f4 <printk>
    108e:	2603      	movs	r6, #3
          for(int i = 0; i <= 2; i++)
          {
            c = console_getchar();
    1090:	f000 ff22 	bl	1ed8 <console_getchar>
    1094:	4605      	mov	r5, r0
            console_putchar(c);
            c = c-48;
    1096:	3d30      	subs	r5, #48	; 0x30
    1098:	b2ed      	uxtb	r5, r5
            console_putchar(c);
    109a:	b2c0      	uxtb	r0, r0
    109c:	f000 ff0e 	bl	1ebc <console_putchar>
            
            if(c >= 0 && c <= 9)
    10a0:	2d09      	cmp	r5, #9
              aux = aux*10 + c;
    10a2:	bf9e      	ittt	ls
    10a4:	eb04 0484 	addls.w	r4, r4, r4, lsl #2
    10a8:	eb05 0444 	addls.w	r4, r5, r4, lsl #1
    10ac:	b2a4      	uxthls	r4, r4
          for(int i = 0; i <= 2; i++)
    10ae:	3e01      	subs	r6, #1
    10b0:	d1ee      	bne.n	1090 <CONFIG_FPROTECT_BLOCK_SIZE+0x90>
          }
          adc_out = (uint16_t)(aux*1023/100);
    10b2:	2364      	movs	r3, #100	; 0x64
    10b4:	ebc4 2484 	rsb	r4, r4, r4, lsl #10
    10b8:	fbb4 f4f3 	udiv	r4, r4, r3
    10bc:	4b10      	ldr	r3, [pc, #64]	; (1100 <CONFIG_FPROTECT_BLOCK_SIZE+0x100>)
          printk("avg: %4u", aux2);
    10be:	4811      	ldr	r0, [pc, #68]	; (1104 <CONFIG_FPROTECT_BLOCK_SIZE+0x104>)
          adc_out = (uint16_t)(aux*1023/100);
    10c0:	801c      	strh	r4, [r3, #0]
          printk("avg: %4u", aux2);
    10c2:	4b0c      	ldr	r3, [pc, #48]	; (10f4 <CONFIG_FPROTECT_BLOCK_SIZE+0xf4>)
    10c4:	8819      	ldrh	r1, [r3, #0]
    10c6:	f005 fb15 	bl	66f4 <printk>
          printk("\n");
    10ca:	480f      	ldr	r0, [pc, #60]	; (1108 <CONFIG_FPROTECT_BLOCK_SIZE+0x108>)
    10cc:	f005 fb12 	bl	66f4 <printk>
        }
        print_flag = 1;
    10d0:	4a09      	ldr	r2, [pc, #36]	; (10f8 <CONFIG_FPROTECT_BLOCK_SIZE+0xf8>)
    10d2:	2301      	movs	r3, #1
    10d4:	6013      	str	r3, [r2, #0]
		arch_syscall_invoke1(*(uintptr_t *)&sem, K_SYSCALL_K_SEM_GIVE);
		return;
	}
#endif
	compiler_barrier();
	z_impl_k_sem_give(sem);
    10d6:	480d      	ldr	r0, [pc, #52]	; (110c <CONFIG_FPROTECT_BLOCK_SIZE+0x10c>)
    10d8:	f004 fc2c 	bl	5934 <z_impl_k_sem_give>
    {
    10dc:	e76f      	b.n	fbe <action_thread_code+0x16>
    10de:	bf00      	nop
    10e0:	9999999a 	.word	0x9999999a
    10e4:	3fb99999 	.word	0x3fb99999
    10e8:	00007aaf 	.word	0x00007aaf
    10ec:	20000604 	.word	0x20000604
    10f0:	20000cc2 	.word	0x20000cc2
    10f4:	20000cc4 	.word	0x20000cc4
    10f8:	2000009c 	.word	0x2000009c
    10fc:	00007ac4 	.word	0x00007ac4
    1100:	20000cc0 	.word	0x20000cc0
    1104:	00007ae2 	.word	0x00007ae2
    1108:	00007dd7 	.word	0x00007dd7
    110c:	20000614 	.word	0x20000614

00001110 <button3_pressed>:
    ON_flag = 1;
    1110:	4b01      	ldr	r3, [pc, #4]	; (1118 <button3_pressed+0x8>)
    1112:	2201      	movs	r2, #1
    1114:	601a      	str	r2, [r3, #0]
}
    1116:	4770      	bx	lr
    1118:	20000098 	.word	0x20000098

0000111c <button4_pressed>:
    ON_flag = 0;
    111c:	4a02      	ldr	r2, [pc, #8]	; (1128 <button4_pressed+0xc>)
    111e:	2300      	movs	r3, #0
    1120:	6013      	str	r3, [r2, #0]
    print_flag = 0;
    1122:	4a02      	ldr	r2, [pc, #8]	; (112c <button4_pressed+0x10>)
    1124:	6013      	str	r3, [r2, #0]
}
    1126:	4770      	bx	lr
    1128:	20000098 	.word	0x20000098
    112c:	2000009c 	.word	0x2000009c

00001130 <button1_pressed>:
  if(ON_flag == 1)
    1130:	4b07      	ldr	r3, [pc, #28]	; (1150 <button1_pressed+0x20>)
    1132:	681b      	ldr	r3, [r3, #0]
    1134:	2b01      	cmp	r3, #1
    1136:	d109      	bne.n	114c <button1_pressed+0x1c>
    if(adc_out+93 >= 1023)
    1138:	4a06      	ldr	r2, [pc, #24]	; (1154 <button1_pressed+0x24>)
    113a:	8813      	ldrh	r3, [r2, #0]
    113c:	f240 31fe 	movw	r1, #1022	; 0x3fe
    1140:	335d      	adds	r3, #93	; 0x5d
    1142:	428b      	cmp	r3, r1
      adc_out = 1023;
    1144:	bfc8      	it	gt
    1146:	f240 33ff 	movwgt	r3, #1023	; 0x3ff
      adc_out += 93;
    114a:	8013      	strh	r3, [r2, #0]
}
    114c:	4770      	bx	lr
    114e:	bf00      	nop
    1150:	20000098 	.word	0x20000098
    1154:	20000cc0 	.word	0x20000cc0

00001158 <button2_pressed>:
  if(ON_flag == 1)
    1158:	4b05      	ldr	r3, [pc, #20]	; (1170 <button2_pressed+0x18>)
    115a:	681b      	ldr	r3, [r3, #0]
    115c:	2b01      	cmp	r3, #1
    115e:	d106      	bne.n	116e <button2_pressed+0x16>
    if(adc_out-93 <= 0)
    1160:	4a04      	ldr	r2, [pc, #16]	; (1174 <button2_pressed+0x1c>)
    1162:	8813      	ldrh	r3, [r2, #0]
    1164:	3b5d      	subs	r3, #93	; 0x5d
    1166:	2b00      	cmp	r3, #0
      adc_out = 0;
    1168:	bfd8      	it	le
    116a:	2300      	movle	r3, #0
      adc_out -= 93;
    116c:	8013      	strh	r3, [r2, #0]
}
    116e:	4770      	bx	lr
    1170:	20000098 	.word	0x20000098
    1174:	20000cc0 	.word	0x20000cc0

00001178 <pwm_pin_set_usec.constprop.0>:
 * @param flags Flags for pin configuration (polarity).
 *
 * @retval 0 If successful.
 * @retval Negative errno code if failure.
 */
static inline int pwm_pin_set_usec(const struct device *dev, uint32_t pwm,
    1178:	e92d 4ff0 	stmdb	sp!, {r4, r5, r6, r7, r8, r9, sl, fp, lr}
    117c:	4606      	mov	r6, r0
    117e:	b087      	sub	sp, #28
    1180:	460d      	mov	r5, r1
    1182:	4617      	mov	r7, r2
	return api->get_cycles_per_sec(dev, pwm, cycles);
    1184:	6883      	ldr	r3, [r0, #8]
    1186:	aa04      	add	r2, sp, #16
    1188:	685b      	ldr	r3, [r3, #4]
    118a:	210d      	movs	r1, #13
    118c:	4798      	blx	r3
				   uint32_t period, uint32_t pulse,
				   pwm_flags_t flags)
{
	uint64_t period_cycles, pulse_cycles, cycles_per_sec;

	if (pwm_get_cycles_per_sec(dev, pwm, &cycles_per_sec) != 0) {
    118e:	9003      	str	r0, [sp, #12]
    1190:	bb80      	cbnz	r0, 11f4 <pwm_pin_set_usec.constprop.0+0x7c>
		return -EIO;
	}

	period_cycles = (period * cycles_per_sec) / USEC_PER_SEC;
    1192:	e9dd 4b04 	ldrd	r4, fp, [sp, #16]
    1196:	fba5 8904 	umull	r8, r9, r5, r4
    119a:	fb05 990b 	mla	r9, r5, fp, r9
    119e:	4a18      	ldr	r2, [pc, #96]	; (1200 <pwm_pin_set_usec.constprop.0+0x88>)
    11a0:	2300      	movs	r3, #0
    11a2:	4640      	mov	r0, r8
    11a4:	4649      	mov	r1, r9
    11a6:	f7ff fd83 	bl	cb0 <__aeabi_uldivmod>
	if (period_cycles >= ((uint64_t)1 << 32)) {
    11aa:	4b16      	ldr	r3, [pc, #88]	; (1204 <pwm_pin_set_usec.constprop.0+0x8c>)
    11ac:	f04f 32ff 	mov.w	r2, #4294967295
    11b0:	454b      	cmp	r3, r9
    11b2:	bf08      	it	eq
    11b4:	4542      	cmpeq	r2, r8
	period_cycles = (period * cycles_per_sec) / USEC_PER_SEC;
    11b6:	4682      	mov	sl, r0
	if (period_cycles >= ((uint64_t)1 << 32)) {
    11b8:	d31f      	bcc.n	11fa <pwm_pin_set_usec.constprop.0+0x82>
		return -ENOTSUP;
	}

	pulse_cycles = (pulse * cycles_per_sec) / USEC_PER_SEC;
    11ba:	fba7 4504 	umull	r4, r5, r7, r4
    11be:	fb07 550b 	mla	r5, r7, fp, r5
    11c2:	4a0f      	ldr	r2, [pc, #60]	; (1200 <pwm_pin_set_usec.constprop.0+0x88>)
    11c4:	2300      	movs	r3, #0
    11c6:	4620      	mov	r0, r4
    11c8:	4629      	mov	r1, r5
    11ca:	f7ff fd71 	bl	cb0 <__aeabi_uldivmod>
	if (pulse_cycles >= ((uint64_t)1 << 32)) {
    11ce:	4a0d      	ldr	r2, [pc, #52]	; (1204 <pwm_pin_set_usec.constprop.0+0x8c>)
    11d0:	f04f 31ff 	mov.w	r1, #4294967295
    11d4:	42aa      	cmp	r2, r5
    11d6:	bf08      	it	eq
    11d8:	42a1      	cmpeq	r1, r4
	pulse_cycles = (pulse * cycles_per_sec) / USEC_PER_SEC;
    11da:	4603      	mov	r3, r0
	if (pulse_cycles >= ((uint64_t)1 << 32)) {
    11dc:	d30d      	bcc.n	11fa <pwm_pin_set_usec.constprop.0+0x82>
	return api->pin_set(dev, pwm, period, pulse, flags);
    11de:	68b2      	ldr	r2, [r6, #8]
    11e0:	9903      	ldr	r1, [sp, #12]
    11e2:	9100      	str	r1, [sp, #0]
    11e4:	6814      	ldr	r4, [r2, #0]
    11e6:	210d      	movs	r1, #13
    11e8:	4652      	mov	r2, sl
    11ea:	4630      	mov	r0, r6
    11ec:	47a0      	blx	r4
		return -ENOTSUP;
	}

	return pwm_pin_set_cycles(dev, pwm, (uint32_t)period_cycles,
				  (uint32_t)pulse_cycles, flags);
}
    11ee:	b007      	add	sp, #28
    11f0:	e8bd 8ff0 	ldmia.w	sp!, {r4, r5, r6, r7, r8, r9, sl, fp, pc}
		return -EIO;
    11f4:	f06f 0004 	mvn.w	r0, #4
    11f8:	e7f9      	b.n	11ee <pwm_pin_set_usec.constprop.0+0x76>
		return -ENOTSUP;
    11fa:	f06f 0085 	mvn.w	r0, #133	; 0x85
    11fe:	e7f6      	b.n	11ee <pwm_pin_set_usec.constprop.0+0x76>
    1200:	000f4240 	.word	0x000f4240
    1204:	000f423f 	.word	0x000f423f

00001208 <gpio_add_callback.constprop.0>:
 * handler invocation, but whether they are invoked for the current
 * GPIO event is not specified.
 *
 * Note: enables to add as many callback as needed on the same port.
 */
static inline int gpio_add_callback(const struct device *port,
    1208:	4601      	mov	r1, r0
				    struct gpio_callback *callback)
{
	const struct gpio_driver_api *api =
    120a:	4804      	ldr	r0, [pc, #16]	; (121c <gpio_add_callback.constprop.0+0x14>)
		(const struct gpio_driver_api *)port->api;

	if (api->manage_callback == NULL) {
    120c:	6883      	ldr	r3, [r0, #8]
    120e:	69db      	ldr	r3, [r3, #28]
    1210:	b10b      	cbz	r3, 1216 <gpio_add_callback.constprop.0+0xe>
		return -ENOTSUP;
	}

	return api->manage_callback(port, callback, true);
    1212:	2201      	movs	r2, #1
    1214:	4718      	bx	r3
}
    1216:	f06f 0085 	mvn.w	r0, #133	; 0x85
    121a:	4770      	bx	lr
    121c:	000075f0 	.word	0x000075f0

00001220 <auto_out_thread_code>:
    }
}


void auto_out_thread_code(void *argA , void *argB, void *argC)
{
    1220:	b570      	push	{r4, r5, r6, lr}
    printk("\nOut Thread init\n");
    1222:	4813      	ldr	r0, [pc, #76]	; (1270 <auto_out_thread_code+0x50>)
	return z_impl_k_sem_take(sem, timeout);
    1224:	4e13      	ldr	r6, [pc, #76]	; (1274 <auto_out_thread_code+0x54>)
    //int out;
    while(1)
    {
        k_sem_take(&sem_auto2, K_FOREVER);

        ret = 0;
    1226:	4c14      	ldr	r4, [pc, #80]	; (1278 <auto_out_thread_code+0x58>)

        pwm_value = 1023-adc_out;
    1228:	4d14      	ldr	r5, [pc, #80]	; (127c <auto_out_thread_code+0x5c>)
    printk("\nOut Thread init\n");
    122a:	f005 fa63 	bl	66f4 <printk>
    122e:	f04f 32ff 	mov.w	r2, #4294967295
    1232:	f04f 33ff 	mov.w	r3, #4294967295
    1236:	4630      	mov	r0, r6
    1238:	f004 fb9c 	bl	5974 <z_impl_k_sem_take>
        ret = 0;
    123c:	2300      	movs	r3, #0
    123e:	6023      	str	r3, [r4, #0]
        pwm_value = 1023-adc_out;
    1240:	882b      	ldrh	r3, [r5, #0]
    1242:	490f      	ldr	r1, [pc, #60]	; (1280 <auto_out_thread_code+0x60>)
    1244:	f240 32ff 	movw	r2, #1023	; 0x3ff
    1248:	1ad3      	subs	r3, r2, r3
    124a:	600b      	str	r3, [r1, #0]

        ret = pwm_pin_set_usec(pwm0_dev, NLED1,
    124c:	490d      	ldr	r1, [pc, #52]	; (1284 <auto_out_thread_code+0x64>)
    124e:	6809      	ldr	r1, [r1, #0]
		      pwmPeriod_us,(unsigned int)((pwmPeriod_us*pwm_value)/1023), PWM_POLARITY_NORMAL);
    1250:	434b      	muls	r3, r1
        ret = pwm_pin_set_usec(pwm0_dev, NLED1,
    1252:	fbb3 f2f2 	udiv	r2, r3, r2
    1256:	4b0c      	ldr	r3, [pc, #48]	; (1288 <auto_out_thread_code+0x68>)
    1258:	6818      	ldr	r0, [r3, #0]
    125a:	f7ff ff8d 	bl	1178 <pwm_pin_set_usec.constprop.0>
    125e:	4601      	mov	r1, r0
    1260:	6020      	str	r0, [r4, #0]
        if (ret)
    1262:	2800      	cmp	r0, #0
    1264:	d0e3      	beq.n	122e <auto_out_thread_code+0xe>
          printk("Error %d: failed to set pulse width\n", ret);
    1266:	4809      	ldr	r0, [pc, #36]	; (128c <auto_out_thread_code+0x6c>)
    1268:	f005 fa44 	bl	66f4 <printk>
    {
    126c:	e7df      	b.n	122e <auto_out_thread_code+0xe>
    126e:	bf00      	nop
    1270:	00007a78 	.word	0x00007a78
    1274:	20000614 	.word	0x20000614
    1278:	20000600 	.word	0x20000600
    127c:	20000cc0 	.word	0x20000cc0
    1280:	200005f8 	.word	0x200005f8
    1284:	200000a0 	.word	0x200000a0
    1288:	200005f4 	.word	0x200005f4
    128c:	00007a8a 	.word	0x00007a8a

00001290 <manual_out_thread_code>:
{
    1290:	b570      	push	{r4, r5, r6, lr}
    printk("\nOut Thread init\n");
    1292:	4813      	ldr	r0, [pc, #76]	; (12e0 <manual_out_thread_code+0x50>)
    1294:	4e13      	ldr	r6, [pc, #76]	; (12e4 <manual_out_thread_code+0x54>)
        ret = 0;
    1296:	4c14      	ldr	r4, [pc, #80]	; (12e8 <manual_out_thread_code+0x58>)
        pwm_value = 1023-adc_out;
    1298:	4d14      	ldr	r5, [pc, #80]	; (12ec <manual_out_thread_code+0x5c>)
    printk("\nOut Thread init\n");
    129a:	f005 fa2b 	bl	66f4 <printk>
    129e:	f04f 32ff 	mov.w	r2, #4294967295
    12a2:	f04f 33ff 	mov.w	r3, #4294967295
    12a6:	4630      	mov	r0, r6
    12a8:	f004 fb64 	bl	5974 <z_impl_k_sem_take>
        ret = 0;
    12ac:	2300      	movs	r3, #0
    12ae:	6023      	str	r3, [r4, #0]
        pwm_value = 1023-adc_out;
    12b0:	882b      	ldrh	r3, [r5, #0]
    12b2:	490f      	ldr	r1, [pc, #60]	; (12f0 <manual_out_thread_code+0x60>)
    12b4:	f240 32ff 	movw	r2, #1023	; 0x3ff
    12b8:	1ad3      	subs	r3, r2, r3
    12ba:	600b      	str	r3, [r1, #0]
        ret = pwm_pin_set_usec(pwm0_dev, NLED1,
    12bc:	490d      	ldr	r1, [pc, #52]	; (12f4 <manual_out_thread_code+0x64>)
    12be:	6809      	ldr	r1, [r1, #0]
		      pwmPeriod_us,(unsigned int)((pwmPeriod_us*pwm_value)/1023), PWM_POLARITY_NORMAL);
    12c0:	434b      	muls	r3, r1
        ret = pwm_pin_set_usec(pwm0_dev, NLED1,
    12c2:	fbb3 f2f2 	udiv	r2, r3, r2
    12c6:	4b0c      	ldr	r3, [pc, #48]	; (12f8 <manual_out_thread_code+0x68>)
    12c8:	6818      	ldr	r0, [r3, #0]
    12ca:	f7ff ff55 	bl	1178 <pwm_pin_set_usec.constprop.0>
    12ce:	4601      	mov	r1, r0
    12d0:	6020      	str	r0, [r4, #0]
        if (ret)
    12d2:	2800      	cmp	r0, #0
    12d4:	d0e3      	beq.n	129e <manual_out_thread_code+0xe>
          printk("Error %d: failed to set pulse width\n", ret);
    12d6:	4809      	ldr	r0, [pc, #36]	; (12fc <manual_out_thread_code+0x6c>)
    12d8:	f005 fa0c 	bl	66f4 <printk>
    {
    12dc:	e7df      	b.n	129e <manual_out_thread_code+0xe>
    12de:	bf00      	nop
    12e0:	00007a78 	.word	0x00007a78
    12e4:	20000624 	.word	0x20000624
    12e8:	20000600 	.word	0x20000600
    12ec:	20000cc0 	.word	0x20000cc0
    12f0:	200005f8 	.word	0x200005f8
    12f4:	200000a0 	.word	0x200000a0
    12f8:	200005f4 	.word	0x200005f4
    12fc:	00007a8a 	.word	0x00007a8a

00001300 <read_thread_code>:
{
    1300:	e92d 43f0 	stmdb	sp!, {r4, r5, r6, r7, r8, r9, lr}
    printk("\nRead Thread init\n");
    1304:	484d      	ldr	r0, [pc, #308]	; (143c <read_thread_code+0x13c>)
{
    1306:	b087      	sub	sp, #28
    printk("\nRead Thread init\n");
    1308:	f005 f9f4 	bl	66f4 <printk>
	return z_impl_k_uptime_ticks();
    130c:	f006 f8f9 	bl	7502 <z_impl_k_uptime_ticks>
		}
	} else {
		if (result32) {
			return (uint32_t)((t * to_hz + off) / from_hz);
		} else {
			return (t * to_hz + off) / from_hz;
    1310:	f44f 737a 	mov.w	r3, #1000	; 0x3e8
    1314:	460a      	mov	r2, r1
    1316:	fba0 0103 	umull	r0, r1, r0, r3
    131a:	fb03 1102 	mla	r1, r3, r2, r1
    131e:	0bc3      	lsrs	r3, r0, #15
    1320:	ea43 4341 	orr.w	r3, r3, r1, lsl #17
    1324:	0bca      	lsrs	r2, r1, #15
    release_time = k_uptime_get() + read_thread_period;
    1326:	f113 0464 	adds.w	r4, r3, #100	; 0x64
	ret = adc_read(adc_dev, &sequence);
    132a:	4e45      	ldr	r6, [pc, #276]	; (1440 <read_thread_code+0x140>)
                adc_value = (uint16_t)(1000*adc_sample_buffer[0]*((float)3/1023));
    132c:	4f45      	ldr	r7, [pc, #276]	; (1444 <read_thread_code+0x144>)
    release_time = k_uptime_get() + read_thread_period;
    132e:	f142 0500 	adc.w	r5, r2, #0
	const struct adc_sequence sequence = {
    1332:	f8df 9140 	ldr.w	r9, [pc, #320]	; 1474 <read_thread_code+0x174>
    1336:	f8df 8140 	ldr.w	r8, [pc, #320]	; 1478 <read_thread_code+0x178>
    133a:	2214      	movs	r2, #20
    133c:	2100      	movs	r1, #0
    133e:	a801      	add	r0, sp, #4
    1340:	f005 fbc4 	bl	6acc <memset>
    1344:	2302      	movs	r3, #2
    1346:	e9cd 9303 	strd	r9, r3, [sp, #12]
    134a:	9302      	str	r3, [sp, #8]
    134c:	230a      	movs	r3, #10
    134e:	f88d 3014 	strb.w	r3, [sp, #20]
	if (adc_dev == NULL) {
    1352:	4b3d      	ldr	r3, [pc, #244]	; (1448 <read_thread_code+0x148>)
    1354:	6818      	ldr	r0, [r3, #0]
    1356:	bbc8      	cbnz	r0, 13cc <read_thread_code+0xcc>
            printk("adc_sample(): error, must bind to adc first \n\r");
    1358:	483c      	ldr	r0, [pc, #240]	; (144c <read_thread_code+0x14c>)
    135a:	f005 f9cb 	bl	66f4 <printk>
        err=adc_sample();
    135e:	f04f 31ff 	mov.w	r1, #4294967295
    1362:	f8c8 1000 	str.w	r1, [r8]
            printk("adc_sample() failed with error code %d\n",err);
    1366:	483a      	ldr	r0, [pc, #232]	; (1450 <read_thread_code+0x150>)
    1368:	f005 f9c4 	bl	66f4 <printk>
        if (ON_flag == 1)
    136c:	4b39      	ldr	r3, [pc, #228]	; (1454 <read_thread_code+0x154>)
    136e:	681b      	ldr	r3, [r3, #0]
    1370:	2b01      	cmp	r3, #1
    1372:	d15f      	bne.n	1434 <read_thread_code+0x134>
	z_impl_k_sem_give(sem);
    1374:	4838      	ldr	r0, [pc, #224]	; (1458 <read_thread_code+0x158>)
    1376:	f004 fadd 	bl	5934 <z_impl_k_sem_give>
	return z_impl_k_uptime_ticks();
    137a:	f006 f8c2 	bl	7502 <z_impl_k_uptime_ticks>
    137e:	f44f 737a 	mov.w	r3, #1000	; 0x3e8
    1382:	460a      	mov	r2, r1
    1384:	fba0 0103 	umull	r0, r1, r0, r3
    1388:	fb03 1102 	mla	r1, r3, r2, r1
    138c:	0bc2      	lsrs	r2, r0, #15
    138e:	ea42 4241 	orr.w	r2, r2, r1, lsl #17
    1392:	0bcb      	lsrs	r3, r1, #15
        if( fin_time < release_time) {
    1394:	42a2      	cmp	r2, r4
    1396:	eb73 0105 	sbcs.w	r1, r3, r5
    139a:	daca      	bge.n	1332 <read_thread_code+0x32>
            k_msleep(release_time - fin_time);
    139c:	1aa1      	subs	r1, r4, r2
 * @return Zero if the requested time has elapsed or the number of milliseconds
 * left to sleep, if thread was woken up by \ref k_wakeup call.
 */
static inline int32_t k_msleep(int32_t ms)
{
	return k_sleep(Z_TIMEOUT_MS(ms));
    139e:	ea21 71e1 	bic.w	r1, r1, r1, asr #31
    13a2:	f44f 4000 	mov.w	r0, #32768	; 0x8000
    13a6:	f240 38e7 	movw	r8, #999	; 0x3e7
    13aa:	f04f 0900 	mov.w	r9, #0
    13ae:	fbc0 8901 	smlal	r8, r9, r0, r1
    13b2:	f44f 727a 	mov.w	r2, #1000	; 0x3e8
    13b6:	2300      	movs	r3, #0
    13b8:	4640      	mov	r0, r8
    13ba:	4649      	mov	r1, r9
    13bc:	f7ff fc78 	bl	cb0 <__aeabi_uldivmod>
	return z_impl_k_sleep(timeout);
    13c0:	f004 fa46 	bl	5850 <z_impl_k_sleep>
            release_time += read_thread_period;
    13c4:	3464      	adds	r4, #100	; 0x64
    13c6:	f145 0500 	adc.w	r5, r5, #0
    13ca:	e7b2      	b.n	1332 <read_thread_code+0x32>
				  const struct adc_sequence *sequence)
{
	const struct adc_driver_api *api =
				(const struct adc_driver_api *)dev->api;

	return api->read(dev, sequence);
    13cc:	6883      	ldr	r3, [r0, #8]
    13ce:	a901      	add	r1, sp, #4
    13d0:	685b      	ldr	r3, [r3, #4]
    13d2:	4798      	blx	r3
    13d4:	4601      	mov	r1, r0
	ret = adc_read(adc_dev, &sequence);
    13d6:	6030      	str	r0, [r6, #0]
	if (ret) {
    13d8:	b110      	cbz	r0, 13e0 <read_thread_code+0xe0>
            printk("adc_read() failed with code %d\n", ret);
    13da:	4820      	ldr	r0, [pc, #128]	; (145c <read_thread_code+0x15c>)
    13dc:	f005 f98a 	bl	66f4 <printk>
	return ret;
    13e0:	6831      	ldr	r1, [r6, #0]
        err=adc_sample();
    13e2:	f8c8 1000 	str.w	r1, [r8]
        if(err) {
    13e6:	2900      	cmp	r1, #0
    13e8:	d1bd      	bne.n	1366 <read_thread_code+0x66>
            if(adc_sample_buffer[0] > 1023) {
    13ea:	f8b9 8000 	ldrh.w	r8, [r9]
    13ee:	f5b8 6f80 	cmp.w	r8, #1024	; 0x400
    13f2:	d303      	bcc.n	13fc <read_thread_code+0xfc>
                printk("adc reading out of range\n");
    13f4:	481a      	ldr	r0, [pc, #104]	; (1460 <read_thread_code+0x160>)
    13f6:	f005 f97d 	bl	66f4 <printk>
    13fa:	e7b7      	b.n	136c <read_thread_code+0x6c>
                adc_value = (uint16_t)(1000*adc_sample_buffer[0]*((float)3/1023));
    13fc:	f44f 707a 	mov.w	r0, #1000	; 0x3e8
    1400:	fb00 f008 	mul.w	r0, r0, r8
    1404:	f7ff fbe0 	bl	bc8 <__aeabi_i2f>
    1408:	4639      	mov	r1, r7
    140a:	f7fe fe79 	bl	100 <__aeabi_fmul>
    140e:	f7ff fc2f 	bl	c70 <__aeabi_f2uiz>
    1412:	4b14      	ldr	r3, [pc, #80]	; (1464 <read_thread_code+0x164>)
    1414:	b282      	uxth	r2, r0
    1416:	601a      	str	r2, [r3, #0]
                if(print_flag == 1)
    1418:	4b13      	ldr	r3, [pc, #76]	; (1468 <read_thread_code+0x168>)
    141a:	681b      	ldr	r3, [r3, #0]
    141c:	2b01      	cmp	r3, #1
    141e:	d1a5      	bne.n	136c <read_thread_code+0x6c>
                  printk("\33[2K\rAdc reading: raw:%4u / %4u mV",1023-adc_sample_buffer[0],3000-adc_value);
    1420:	f5c8 717f 	rsb	r1, r8, #1020	; 0x3fc
    1424:	f5c2 623b 	rsb	r2, r2, #2992	; 0xbb0
    1428:	4810      	ldr	r0, [pc, #64]	; (146c <read_thread_code+0x16c>)
    142a:	3208      	adds	r2, #8
    142c:	3103      	adds	r1, #3
    142e:	f005 f961 	bl	66f4 <printk>
    1432:	e79b      	b.n	136c <read_thread_code+0x6c>
        else if (ON_flag == 0)
    1434:	2b00      	cmp	r3, #0
    1436:	d1a0      	bne.n	137a <read_thread_code+0x7a>
	z_impl_k_sem_give(sem);
    1438:	480d      	ldr	r0, [pc, #52]	; (1470 <read_thread_code+0x170>)
    143a:	e79c      	b.n	1376 <read_thread_code+0x76>
    143c:	00007aeb 	.word	0x00007aeb
    1440:	20000600 	.word	0x20000600
    1444:	3b40300c 	.word	0x3b40300c
    1448:	200005ac 	.word	0x200005ac
    144c:	00007afe 	.word	0x00007afe
    1450:	00007b4d 	.word	0x00007b4d
    1454:	20000098 	.word	0x20000098
    1458:	20000624 	.word	0x20000624
    145c:	00007b2d 	.word	0x00007b2d
    1460:	00007b75 	.word	0x00007b75
    1464:	200005b0 	.word	0x200005b0
    1468:	2000009c 	.word	0x2000009c
    146c:	00007b8f 	.word	0x00007b8f
    1470:	20000604 	.word	0x20000604
    1474:	20000cc2 	.word	0x20000cc2
    1478:	200005e8 	.word	0x200005e8

0000147c <conf>:
{
    147c:	b510      	push	{r4, lr}
    console_init();
    147e:	f000 fd3b 	bl	1ef8 <console_init>
    console_write(NULL, prompt, sizeof(prompt) - 1);
    1482:	4940      	ldr	r1, [pc, #256]	; (1584 <conf+0x108>)
    1484:	221c      	movs	r2, #28
    1486:	2000      	movs	r0, #0
    1488:	f000 fd12 	bl	1eb0 <console_write>
		/* coverity[OVERRUN] */
		return (const struct device *) arch_syscall_invoke1(*(uintptr_t *)&name, K_SYSCALL_DEVICE_GET_BINDING);
	}
#endif
	compiler_barrier();
	return z_impl_device_get_binding(name);
    148c:	483e      	ldr	r0, [pc, #248]	; (1588 <conf+0x10c>)
    gpio0_dev = device_get_binding(DT_LABEL(GPIO0_NID));
    148e:	4c3f      	ldr	r4, [pc, #252]	; (158c <conf+0x110>)
    1490:	f003 fcd4 	bl	4e3c <z_impl_device_get_binding>
    1494:	6020      	str	r0, [r4, #0]
    if (gpio0_dev == NULL) {
    1496:	b920      	cbnz	r0, 14a2 <conf+0x26>
        printk("Error: Failed to bind to GPIO0\n\r");        
    1498:	483d      	ldr	r0, [pc, #244]	; (1590 <conf+0x114>)
}
    149a:	e8bd 4010 	ldmia.w	sp!, {r4, lr}
	printk("Error: Failed to bind to PWM0\n\r");
    149e:	f005 b929 	b.w	66f4 <printk>
        printk("Bind to GPIO0 successfull\n\r");        
    14a2:	483c      	ldr	r0, [pc, #240]	; (1594 <conf+0x118>)
    14a4:	f005 f926 	bl	66f4 <printk>
    14a8:	483b      	ldr	r0, [pc, #236]	; (1598 <conf+0x11c>)
    14aa:	f003 fcc7 	bl	4e3c <z_impl_device_get_binding>
    pwm0_dev = device_get_binding(DT_LABEL(PWM0_NID));
    14ae:	4b3b      	ldr	r3, [pc, #236]	; (159c <conf+0x120>)
    14b0:	6018      	str	r0, [r3, #0]
    if (pwm0_dev == NULL) {
    14b2:	b908      	cbnz	r0, 14b8 <conf+0x3c>
	printk("Error: Failed to bind to PWM0\n\r");
    14b4:	483a      	ldr	r0, [pc, #232]	; (15a0 <conf+0x124>)
    14b6:	e7f0      	b.n	149a <conf+0x1e>
        printk("Bind to PWM0 successful\n\r");            
    14b8:	483a      	ldr	r0, [pc, #232]	; (15a4 <conf+0x128>)
    14ba:	f005 f91b 	bl	66f4 <printk>
    ret = gpio_pin_configure(gpio0_dev, NPOT, GPIO_INPUT);
    14be:	6820      	ldr	r0, [r4, #0]
		/* coverity[OVERRUN] */
		return (int) arch_syscall_invoke3(*(uintptr_t *)&port, *(uintptr_t *)&pin, *(uintptr_t *)&flags, K_SYSCALL_GPIO_PIN_CONFIGURE);
	}
#endif
	compiler_barrier();
	return z_impl_gpio_pin_configure(port, pin, flags);
    14c0:	2103      	movs	r1, #3
    14c2:	f44f 7280 	mov.w	r2, #256	; 0x100
    14c6:	f004 ff55 	bl	6374 <z_impl_gpio_pin_configure>
    14ca:	4c37      	ldr	r4, [pc, #220]	; (15a8 <conf+0x12c>)
    if (ret < 0) {
    14cc:	2800      	cmp	r0, #0
    14ce:	4601      	mov	r1, r0
    ret = gpio_pin_configure(gpio0_dev, NPOT, GPIO_INPUT);
    14d0:	6020      	str	r0, [r4, #0]
    if (ret < 0) {
    14d2:	da04      	bge.n	14de <conf+0x62>
}
    14d4:	e8bd 4010 	ldmia.w	sp!, {r4, lr}
        printk("Error %d: Failed to configure POT\n\r", ret);
    14d8:	4834      	ldr	r0, [pc, #208]	; (15ac <conf+0x130>)
    14da:	f005 b90b 	b.w	66f4 <printk>
    14de:	f240 1211 	movw	r2, #273	; 0x111
    14e2:	210b      	movs	r1, #11
    14e4:	4832      	ldr	r0, [pc, #200]	; (15b0 <conf+0x134>)
    14e6:	f004 ff45 	bl	6374 <z_impl_gpio_pin_configure>
    ret = gpio_pin_configure_dt(&button1, GPIO_INPUT);
    14ea:	6020      	str	r0, [r4, #0]
	return z_impl_gpio_pin_interrupt_configure(port, pin, flags);
    14ec:	210b      	movs	r1, #11
    14ee:	4830      	ldr	r0, [pc, #192]	; (15b0 <conf+0x134>)
    14f0:	f004 ff5a 	bl	63a8 <z_impl_gpio_pin_interrupt_configure.constprop.0>
    ret = gpio_pin_interrupt_configure_dt(&button1, GPIO_INT_EDGE_TO_ACTIVE);
    14f4:	6020      	str	r0, [r4, #0]
	callback->handler = handler;
    14f6:	482f      	ldr	r0, [pc, #188]	; (15b4 <conf+0x138>)
    14f8:	4b2f      	ldr	r3, [pc, #188]	; (15b8 <conf+0x13c>)
    14fa:	6043      	str	r3, [r0, #4]
	callback->pin_mask = pin_mask;
    14fc:	f44f 6300 	mov.w	r3, #2048	; 0x800
    1500:	6083      	str	r3, [r0, #8]
    gpio_add_callback(button1.port, &button1_cb_data);
    1502:	f7ff fe81 	bl	1208 <gpio_add_callback.constprop.0>
	return z_impl_gpio_pin_configure(port, pin, flags);
    1506:	f240 1211 	movw	r2, #273	; 0x111
    150a:	210c      	movs	r1, #12
    150c:	4828      	ldr	r0, [pc, #160]	; (15b0 <conf+0x134>)
    150e:	f004 ff31 	bl	6374 <z_impl_gpio_pin_configure>
    ret = gpio_pin_configure_dt(&button2, GPIO_INPUT);
    1512:	6020      	str	r0, [r4, #0]
	return z_impl_gpio_pin_interrupt_configure(port, pin, flags);
    1514:	210c      	movs	r1, #12
    1516:	4826      	ldr	r0, [pc, #152]	; (15b0 <conf+0x134>)
    1518:	f004 ff46 	bl	63a8 <z_impl_gpio_pin_interrupt_configure.constprop.0>
    ret = gpio_pin_interrupt_configure_dt(&button2, GPIO_INT_EDGE_TO_ACTIVE);
    151c:	6020      	str	r0, [r4, #0]
	callback->handler = handler;
    151e:	4827      	ldr	r0, [pc, #156]	; (15bc <conf+0x140>)
    1520:	4b27      	ldr	r3, [pc, #156]	; (15c0 <conf+0x144>)
    1522:	6043      	str	r3, [r0, #4]
	callback->pin_mask = pin_mask;
    1524:	f44f 5380 	mov.w	r3, #4096	; 0x1000
    1528:	6083      	str	r3, [r0, #8]
    gpio_add_callback(button2.port, &button2_cb_data);
    152a:	f7ff fe6d 	bl	1208 <gpio_add_callback.constprop.0>
	return z_impl_gpio_pin_configure(port, pin, flags);
    152e:	f240 1211 	movw	r2, #273	; 0x111
    1532:	2118      	movs	r1, #24
    1534:	481e      	ldr	r0, [pc, #120]	; (15b0 <conf+0x134>)
    1536:	f004 ff1d 	bl	6374 <z_impl_gpio_pin_configure>
    ret = gpio_pin_configure_dt(&button3, GPIO_INPUT);
    153a:	6020      	str	r0, [r4, #0]
	return z_impl_gpio_pin_interrupt_configure(port, pin, flags);
    153c:	2118      	movs	r1, #24
    153e:	481c      	ldr	r0, [pc, #112]	; (15b0 <conf+0x134>)
    1540:	f004 ff32 	bl	63a8 <z_impl_gpio_pin_interrupt_configure.constprop.0>
    ret = gpio_pin_interrupt_configure_dt(&button3, GPIO_INT_EDGE_TO_ACTIVE);
    1544:	6020      	str	r0, [r4, #0]
	callback->handler = handler;
    1546:	481f      	ldr	r0, [pc, #124]	; (15c4 <conf+0x148>)
    1548:	4b1f      	ldr	r3, [pc, #124]	; (15c8 <conf+0x14c>)
    154a:	6043      	str	r3, [r0, #4]
	callback->pin_mask = pin_mask;
    154c:	f04f 7380 	mov.w	r3, #16777216	; 0x1000000
    1550:	6083      	str	r3, [r0, #8]
    gpio_add_callback(button3.port, &button3_cb_data);
    1552:	f7ff fe59 	bl	1208 <gpio_add_callback.constprop.0>
	return z_impl_gpio_pin_configure(port, pin, flags);
    1556:	f240 1211 	movw	r2, #273	; 0x111
    155a:	2119      	movs	r1, #25
    155c:	4814      	ldr	r0, [pc, #80]	; (15b0 <conf+0x134>)
    155e:	f004 ff09 	bl	6374 <z_impl_gpio_pin_configure>
    ret = gpio_pin_configure_dt(&button4, GPIO_INPUT);
    1562:	6020      	str	r0, [r4, #0]
	return z_impl_gpio_pin_interrupt_configure(port, pin, flags);
    1564:	4812      	ldr	r0, [pc, #72]	; (15b0 <conf+0x134>)
    1566:	2119      	movs	r1, #25
    1568:	f004 ff1e 	bl	63a8 <z_impl_gpio_pin_interrupt_configure.constprop.0>
    ret = gpio_pin_interrupt_configure_dt(&button4, GPIO_INT_EDGE_TO_ACTIVE);
    156c:	6020      	str	r0, [r4, #0]
	callback->handler = handler;
    156e:	4817      	ldr	r0, [pc, #92]	; (15cc <conf+0x150>)
    1570:	4b17      	ldr	r3, [pc, #92]	; (15d0 <conf+0x154>)
    1572:	6043      	str	r3, [r0, #4]
}
    1574:	e8bd 4010 	ldmia.w	sp!, {r4, lr}
	callback->pin_mask = pin_mask;
    1578:	f04f 7300 	mov.w	r3, #33554432	; 0x2000000
    157c:	6083      	str	r3, [r0, #8]
    gpio_add_callback(button4.port, &button4_cb_data);
    157e:	f7ff be43 	b.w	1208 <gpio_add_callback.constprop.0>
    1582:	bf00      	nop
    1584:	00007cc3 	.word	0x00007cc3
    1588:	00007bb2 	.word	0x00007bb2
    158c:	200005ec 	.word	0x200005ec
    1590:	00007bb9 	.word	0x00007bb9
    1594:	00007bda 	.word	0x00007bda
    1598:	00007bf6 	.word	0x00007bf6
    159c:	200005f4 	.word	0x200005f4
    15a0:	00007bfc 	.word	0x00007bfc
    15a4:	00007c1c 	.word	0x00007c1c
    15a8:	20000600 	.word	0x20000600
    15ac:	00007c36 	.word	0x00007c36
    15b0:	000075f0 	.word	0x000075f0
    15b4:	200005b8 	.word	0x200005b8
    15b8:	00001131 	.word	0x00001131
    15bc:	200005c4 	.word	0x200005c4
    15c0:	00001159 	.word	0x00001159
    15c4:	200005d0 	.word	0x200005d0
    15c8:	00001111 	.word	0x00001111
    15cc:	200005dc 	.word	0x200005dc
    15d0:	0000111d 	.word	0x0000111d

000015d4 <adc_setup>:
{
    15d4:	b510      	push	{r4, lr}
    15d6:	480c      	ldr	r0, [pc, #48]	; (1608 <adc_setup+0x34>)
    adc_dev = device_get_binding(DT_LABEL(ADC_NID));
    15d8:	4c0c      	ldr	r4, [pc, #48]	; (160c <adc_setup+0x38>)
    15da:	f003 fc2f 	bl	4e3c <z_impl_device_get_binding>
    15de:	6020      	str	r0, [r4, #0]
	if (!adc_dev) {
    15e0:	b910      	cbnz	r0, 15e8 <adc_setup+0x14>
        printk("ADC device_get_binding() failed\n\r");
    15e2:	480b      	ldr	r0, [pc, #44]	; (1610 <adc_setup+0x3c>)
    15e4:	f005 f886 	bl	66f4 <printk>
    err = adc_channel_setup(adc_dev, &my_channel_cfg);
    15e8:	6820      	ldr	r0, [r4, #0]
	return api->channel_setup(dev, channel_cfg);
    15ea:	6883      	ldr	r3, [r0, #8]
    15ec:	4909      	ldr	r1, [pc, #36]	; (1614 <adc_setup+0x40>)
    15ee:	681b      	ldr	r3, [r3, #0]
    15f0:	4798      	blx	r3
    15f2:	4b09      	ldr	r3, [pc, #36]	; (1618 <adc_setup+0x44>)
    15f4:	4601      	mov	r1, r0
    15f6:	6018      	str	r0, [r3, #0]
    if (err) {
    15f8:	b110      	cbz	r0, 1600 <adc_setup+0x2c>
        printk("adc_channel_setup() failed with error code %d\n\r", err);
    15fa:	4808      	ldr	r0, [pc, #32]	; (161c <adc_setup+0x48>)
    15fc:	f005 f87a 	bl	66f4 <printk>
    NRF_SAADC->TASKS_CALIBRATEOFFSET = 1;
    1600:	4b07      	ldr	r3, [pc, #28]	; (1620 <adc_setup+0x4c>)
    1602:	2201      	movs	r2, #1
    1604:	60da      	str	r2, [r3, #12]
}
    1606:	bd10      	pop	{r4, pc}
    1608:	00007c5a 	.word	0x00007c5a
    160c:	200005ac 	.word	0x200005ac
    1610:	00007c60 	.word	0x00007c60
    1614:	00007a70 	.word	0x00007a70
    1618:	200005e8 	.word	0x200005e8
    161c:	00007c82 	.word	0x00007c82
    1620:	40007000 	.word	0x40007000

00001624 <main>:
{
    1624:	b5f0      	push	{r4, r5, r6, r7, lr}
    1626:	b089      	sub	sp, #36	; 0x24
    conf();
    1628:	f7ff ff28 	bl	147c <conf>
    adc_setup();
    162c:	f7ff ffd2 	bl	15d4 <adc_setup>
    printf("\n\r Buenos Dias\n\r");
    1630:	482b      	ldr	r0, [pc, #172]	; (16e0 <main+0xbc>)
    1632:	f001 fb21 	bl	2c78 <printf>
	return z_impl_k_sem_init(sem, initial_count, limit);
    1636:	2201      	movs	r2, #1
    1638:	2100      	movs	r1, #0
    163a:	482a      	ldr	r0, [pc, #168]	; (16e4 <main+0xc0>)
    163c:	f005 ff0b 	bl	7456 <z_impl_k_sem_init>
    1640:	2201      	movs	r2, #1
    1642:	2100      	movs	r1, #0
    1644:	4828      	ldr	r0, [pc, #160]	; (16e8 <main+0xc4>)
    1646:	f005 ff06 	bl	7456 <z_impl_k_sem_init>
    164a:	2201      	movs	r2, #1
    164c:	2100      	movs	r1, #0
    164e:	4827      	ldr	r0, [pc, #156]	; (16ec <main+0xc8>)
    1650:	f005 ff01 	bl	7456 <z_impl_k_sem_init>
    read_thread_tid = k_thread_create(&read_thread_data, read_thread_stack,
    1654:	2600      	movs	r6, #0
    1656:	2700      	movs	r7, #0
	return z_impl_k_thread_create(new_thread, stack, stack_size, entry, p1, p2, p3, prio, options, delay);
    1658:	2400      	movs	r4, #0
    165a:	2501      	movs	r5, #1
    165c:	e9cd 6706 	strd	r6, r7, [sp, #24]
    1660:	e9cd 5403 	strd	r5, r4, [sp, #12]
    1664:	e9cd 4401 	strd	r4, r4, [sp, #4]
    1668:	4b21      	ldr	r3, [pc, #132]	; (16f0 <main+0xcc>)
    166a:	4922      	ldr	r1, [pc, #136]	; (16f4 <main+0xd0>)
    166c:	9400      	str	r4, [sp, #0]
    166e:	f44f 6280 	mov.w	r2, #1024	; 0x400
    1672:	4821      	ldr	r0, [pc, #132]	; (16f8 <main+0xd4>)
    1674:	f004 f9da 	bl	5a2c <z_impl_k_thread_create>
    1678:	4b20      	ldr	r3, [pc, #128]	; (16fc <main+0xd8>)
    167a:	6018      	str	r0, [r3, #0]
    167c:	4b20      	ldr	r3, [pc, #128]	; (1700 <main+0xdc>)
    167e:	4921      	ldr	r1, [pc, #132]	; (1704 <main+0xe0>)
    1680:	9400      	str	r4, [sp, #0]
    1682:	e9cd 6706 	strd	r6, r7, [sp, #24]
    1686:	e9cd 5403 	strd	r5, r4, [sp, #12]
    168a:	e9cd 4401 	strd	r4, r4, [sp, #4]
    168e:	f44f 6280 	mov.w	r2, #1024	; 0x400
    1692:	481d      	ldr	r0, [pc, #116]	; (1708 <main+0xe4>)
    1694:	f004 f9ca 	bl	5a2c <z_impl_k_thread_create>
    manual_out_thread_tid = k_thread_create(&manual_out_thread_data, manual_out_thread_stack,
    1698:	4b1c      	ldr	r3, [pc, #112]	; (170c <main+0xe8>)
    169a:	6018      	str	r0, [r3, #0]
    169c:	4b1c      	ldr	r3, [pc, #112]	; (1710 <main+0xec>)
    169e:	491d      	ldr	r1, [pc, #116]	; (1714 <main+0xf0>)
    16a0:	9400      	str	r4, [sp, #0]
    16a2:	e9cd 6706 	strd	r6, r7, [sp, #24]
    16a6:	e9cd 5403 	strd	r5, r4, [sp, #12]
    16aa:	e9cd 4401 	strd	r4, r4, [sp, #4]
    16ae:	f44f 6280 	mov.w	r2, #1024	; 0x400
    16b2:	4819      	ldr	r0, [pc, #100]	; (1718 <main+0xf4>)
    16b4:	f004 f9ba 	bl	5a2c <z_impl_k_thread_create>
    action_thread_tid = k_thread_create(&action_thread_data, action_thread_stack,
    16b8:	4b18      	ldr	r3, [pc, #96]	; (171c <main+0xf8>)
    16ba:	6018      	str	r0, [r3, #0]
    16bc:	4b18      	ldr	r3, [pc, #96]	; (1720 <main+0xfc>)
    16be:	4919      	ldr	r1, [pc, #100]	; (1724 <main+0x100>)
    16c0:	9400      	str	r4, [sp, #0]
    16c2:	e9cd 6706 	strd	r6, r7, [sp, #24]
    16c6:	e9cd 5403 	strd	r5, r4, [sp, #12]
    16ca:	e9cd 4401 	strd	r4, r4, [sp, #4]
    16ce:	f44f 6280 	mov.w	r2, #1024	; 0x400
    16d2:	4815      	ldr	r0, [pc, #84]	; (1728 <main+0x104>)
    16d4:	f004 f9aa 	bl	5a2c <z_impl_k_thread_create>
    auto_out_thread_tid = k_thread_create(&auto_out_thread_data, auto_out_thread_stack,
    16d8:	4b14      	ldr	r3, [pc, #80]	; (172c <main+0x108>)
    16da:	6018      	str	r0, [r3, #0]
}
    16dc:	b009      	add	sp, #36	; 0x24
    16de:	bdf0      	pop	{r4, r5, r6, r7, pc}
    16e0:	00007cb2 	.word	0x00007cb2
    16e4:	20000624 	.word	0x20000624
    16e8:	20000604 	.word	0x20000604
    16ec:	20000614 	.word	0x20000614
    16f0:	00001301 	.word	0x00001301
    16f4:	20001120 	.word	0x20001120
    16f8:	20000400 	.word	0x20000400
    16fc:	200005fc 	.word	0x200005fc
    1700:	00001291 	.word	0x00001291
    1704:	20001540 	.word	0x20001540
    1708:	20000380 	.word	0x20000380
    170c:	200005f0 	.word	0x200005f0
    1710:	00000fa9 	.word	0x00000fa9
    1714:	20001960 	.word	0x20001960
    1718:	20000280 	.word	0x20000280
    171c:	200005a8 	.word	0x200005a8
    1720:	00001221 	.word	0x00001221
    1724:	20001d80 	.word	0x20001d80
    1728:	20000300 	.word	0x20000300
    172c:	200005b4 	.word	0x200005b4

00001730 <cbvprintf>:

	return (int)count;
}

int cbvprintf(cbprintf_cb out, void *ctx, const char *fp, va_list ap)
{
    1730:	e92d 4ff0 	stmdb	sp!, {r4, r5, r6, r7, r8, r9, sl, fp, lr}
    1734:	b091      	sub	sp, #68	; 0x44
    1736:	468b      	mov	fp, r1
    1738:	9002      	str	r0, [sp, #8]
    173a:	4692      	mov	sl, r2
    173c:	461c      	mov	r4, r3
	char buf[CONVERTED_BUFLEN];
	size_t count = 0;
    173e:	2500      	movs	r5, #0
		return rc; \
	} \
	count += rc; \
} while (false)

	while (*fp != 0) {
    1740:	f89a 0000 	ldrb.w	r0, [sl]
    1744:	b908      	cbnz	r0, 174a <cbvprintf+0x1a>
			OUTC(' ');
			--width;
		}
	}

	return count;
    1746:	4628      	mov	r0, r5
    1748:	e35e      	b.n	1e08 <cbvprintf+0x6d8>
		if (*fp != '%') {
    174a:	2825      	cmp	r0, #37	; 0x25
    174c:	f10a 0701 	add.w	r7, sl, #1
    1750:	d007      	beq.n	1762 <cbvprintf+0x32>
			OUTC('%');
    1752:	9b02      	ldr	r3, [sp, #8]
    1754:	4659      	mov	r1, fp
    1756:	4798      	blx	r3
    1758:	2800      	cmp	r0, #0
    175a:	f2c0 8355 	blt.w	1e08 <cbvprintf+0x6d8>
    175e:	3501      	adds	r5, #1
			break;
    1760:	e210      	b.n	1b84 <cbvprintf+0x454>
		} state = {
    1762:	2218      	movs	r2, #24
    1764:	2100      	movs	r1, #0
    1766:	a80a      	add	r0, sp, #40	; 0x28
    1768:	f005 f9b0 	bl	6acc <memset>
	if (*sp == '%') {
    176c:	f89a 3001 	ldrb.w	r3, [sl, #1]
    1770:	2b25      	cmp	r3, #37	; 0x25
    1772:	d078      	beq.n	1866 <cbvprintf+0x136>
    1774:	2200      	movs	r2, #0
    1776:	4694      	mov	ip, r2
    1778:	4616      	mov	r6, r2
    177a:	4696      	mov	lr, r2
    177c:	4610      	mov	r0, r2
    177e:	4639      	mov	r1, r7
		switch (*sp) {
    1780:	f817 3b01 	ldrb.w	r3, [r7], #1
    1784:	2b2b      	cmp	r3, #43	; 0x2b
    1786:	f000 809d 	beq.w	18c4 <cbvprintf+0x194>
    178a:	f200 8094 	bhi.w	18b6 <cbvprintf+0x186>
    178e:	2b20      	cmp	r3, #32
    1790:	f000 809b 	beq.w	18ca <cbvprintf+0x19a>
    1794:	2b23      	cmp	r3, #35	; 0x23
    1796:	f000 809a 	beq.w	18ce <cbvprintf+0x19e>
    179a:	b128      	cbz	r0, 17a8 <cbvprintf+0x78>
    179c:	f89d 0030 	ldrb.w	r0, [sp, #48]	; 0x30
    17a0:	f040 0004 	orr.w	r0, r0, #4
    17a4:	f88d 0030 	strb.w	r0, [sp, #48]	; 0x30
    17a8:	f1be 0f00 	cmp.w	lr, #0
    17ac:	d005      	beq.n	17ba <cbvprintf+0x8a>
    17ae:	f89d 0030 	ldrb.w	r0, [sp, #48]	; 0x30
    17b2:	f040 0008 	orr.w	r0, r0, #8
    17b6:	f88d 0030 	strb.w	r0, [sp, #48]	; 0x30
    17ba:	b12e      	cbz	r6, 17c8 <cbvprintf+0x98>
    17bc:	f89d 0030 	ldrb.w	r0, [sp, #48]	; 0x30
    17c0:	f040 0010 	orr.w	r0, r0, #16
    17c4:	f88d 0030 	strb.w	r0, [sp, #48]	; 0x30
    17c8:	f1bc 0f00 	cmp.w	ip, #0
    17cc:	d005      	beq.n	17da <cbvprintf+0xaa>
    17ce:	f89d 0030 	ldrb.w	r0, [sp, #48]	; 0x30
    17d2:	f040 0020 	orr.w	r0, r0, #32
    17d6:	f88d 0030 	strb.w	r0, [sp, #48]	; 0x30
    17da:	b12a      	cbz	r2, 17e8 <cbvprintf+0xb8>
    17dc:	f89d 2030 	ldrb.w	r2, [sp, #48]	; 0x30
    17e0:	f042 0240 	orr.w	r2, r2, #64	; 0x40
    17e4:	f88d 2030 	strb.w	r2, [sp, #48]	; 0x30
	if (conv->flag_zero && conv->flag_dash) {
    17e8:	f89d 2030 	ldrb.w	r2, [sp, #48]	; 0x30
    17ec:	f002 0044 	and.w	r0, r2, #68	; 0x44
    17f0:	2844      	cmp	r0, #68	; 0x44
    17f2:	d103      	bne.n	17fc <cbvprintf+0xcc>
		conv->flag_zero = false;
    17f4:	f36f 1286 	bfc	r2, #6, #1
    17f8:	f88d 2030 	strb.w	r2, [sp, #48]	; 0x30
	conv->width_present = true;
    17fc:	f89d 2030 	ldrb.w	r2, [sp, #48]	; 0x30
	if (*sp == '*') {
    1800:	2b2a      	cmp	r3, #42	; 0x2a
	conv->width_present = true;
    1802:	f042 0280 	orr.w	r2, r2, #128	; 0x80
    1806:	f88d 2030 	strb.w	r2, [sp, #48]	; 0x30
	if (*sp == '*') {
    180a:	d17b      	bne.n	1904 <cbvprintf+0x1d4>
		conv->width_star = true;
    180c:	f89d 2031 	ldrb.w	r2, [sp, #49]	; 0x31
    1810:	f042 0201 	orr.w	r2, r2, #1
    1814:	1c4b      	adds	r3, r1, #1
    1816:	f88d 2031 	strb.w	r2, [sp, #49]	; 0x31
	conv->prec_present = (*sp == '.');
    181a:	781a      	ldrb	r2, [r3, #0]
    181c:	2a2e      	cmp	r2, #46	; 0x2e
    181e:	f89d 2031 	ldrb.w	r2, [sp, #49]	; 0x31
    1822:	bf0c      	ite	eq
    1824:	2101      	moveq	r1, #1
    1826:	2100      	movne	r1, #0
    1828:	f361 0241 	bfi	r2, r1, #1, #1
    182c:	f88d 2031 	strb.w	r2, [sp, #49]	; 0x31
	if (!conv->prec_present) {
    1830:	d174      	bne.n	191c <cbvprintf+0x1ec>
	if (*sp == '*') {
    1832:	785a      	ldrb	r2, [r3, #1]
    1834:	2a2a      	cmp	r2, #42	; 0x2a
    1836:	d06a      	beq.n	190e <cbvprintf+0x1de>
    1838:	3301      	adds	r3, #1
	size_t val = 0;
    183a:	2100      	movs	r1, #0
		val = 10U * val + *sp++ - '0';
    183c:	260a      	movs	r6, #10
			(((unsigned)c) <= (unsigned)'~'));
}

static inline int isdigit(int a)
{
	return (int)(((unsigned)(a)-(unsigned)'0') < 10U);
    183e:	4618      	mov	r0, r3
    1840:	f810 2b01 	ldrb.w	r2, [r0], #1
    1844:	f1a2 0730 	sub.w	r7, r2, #48	; 0x30
	while (isdigit((int)(unsigned char)*sp)) {
    1848:	2f09      	cmp	r7, #9
    184a:	f240 808e 	bls.w	196a <cbvprintf+0x23a>
	conv->unsupported |= ((conv->prec_value < 0)
    184e:	f89d 2030 	ldrb.w	r2, [sp, #48]	; 0x30
	conv->prec_value = prec;
    1852:	910e      	str	r1, [sp, #56]	; 0x38
	conv->unsupported |= ((conv->prec_value < 0)
    1854:	f3c2 0040 	ubfx	r0, r2, #1, #1
    1858:	ea40 71d1 	orr.w	r1, r0, r1, lsr #31
    185c:	f361 0241 	bfi	r2, r1, #1, #1
    1860:	f88d 2030 	strb.w	r2, [sp, #48]	; 0x30
	return sp;
    1864:	e05a      	b.n	191c <cbvprintf+0x1ec>
		conv->specifier = *sp++;
    1866:	f10a 0702 	add.w	r7, sl, #2
    186a:	f88d 3033 	strb.w	r3, [sp, #51]	; 0x33
		if (conv->width_star) {
    186e:	f89d 3031 	ldrb.w	r3, [sp, #49]	; 0x31
    1872:	07d9      	lsls	r1, r3, #31
    1874:	f140 8149 	bpl.w	1b0a <cbvprintf+0x3da>
			width = va_arg(ap, int);
    1878:	f854 9b04 	ldr.w	r9, [r4], #4
			if (width < 0) {
    187c:	f1b9 0f00 	cmp.w	r9, #0
    1880:	da07      	bge.n	1892 <cbvprintf+0x162>
				conv->flag_dash = true;
    1882:	f89d 2030 	ldrb.w	r2, [sp, #48]	; 0x30
    1886:	f042 0204 	orr.w	r2, r2, #4
    188a:	f88d 2030 	strb.w	r2, [sp, #48]	; 0x30
				width = -width;
    188e:	f1c9 0900 	rsb	r9, r9, #0
		if (conv->prec_star) {
    1892:	075a      	lsls	r2, r3, #29
    1894:	f140 8142 	bpl.w	1b1c <cbvprintf+0x3ec>
			int arg = va_arg(ap, int);
    1898:	f854 8b04 	ldr.w	r8, [r4], #4
			if (arg < 0) {
    189c:	f1b8 0f00 	cmp.w	r8, #0
    18a0:	f280 8141 	bge.w	1b26 <cbvprintf+0x3f6>
				conv->prec_present = false;
    18a4:	f89d 3031 	ldrb.w	r3, [sp, #49]	; 0x31
    18a8:	f36f 0341 	bfc	r3, #1, #1
    18ac:	f88d 3031 	strb.w	r3, [sp, #49]	; 0x31
		int precision = -1;
    18b0:	f04f 38ff 	mov.w	r8, #4294967295
    18b4:	e137      	b.n	1b26 <cbvprintf+0x3f6>
		switch (*sp) {
    18b6:	2b2d      	cmp	r3, #45	; 0x2d
    18b8:	d00c      	beq.n	18d4 <cbvprintf+0x1a4>
    18ba:	2b30      	cmp	r3, #48	; 0x30
    18bc:	f47f af6d 	bne.w	179a <cbvprintf+0x6a>
			conv->flag_zero = true;
    18c0:	2201      	movs	r2, #1
	} while (loop);
    18c2:	e75c      	b.n	177e <cbvprintf+0x4e>
			conv->flag_plus = true;
    18c4:	f04f 0e01 	mov.w	lr, #1
    18c8:	e759      	b.n	177e <cbvprintf+0x4e>
			conv->flag_space = true;
    18ca:	2601      	movs	r6, #1
    18cc:	e757      	b.n	177e <cbvprintf+0x4e>
			conv->flag_hash = true;
    18ce:	f04f 0c01 	mov.w	ip, #1
    18d2:	e754      	b.n	177e <cbvprintf+0x4e>
		switch (*sp) {
    18d4:	2001      	movs	r0, #1
    18d6:	e752      	b.n	177e <cbvprintf+0x4e>
		val = 10U * val + *sp++ - '0';
    18d8:	fb0c 0202 	mla	r2, ip, r2, r0
    18dc:	3a30      	subs	r2, #48	; 0x30
    18de:	4633      	mov	r3, r6
    18e0:	461e      	mov	r6, r3
    18e2:	f816 0b01 	ldrb.w	r0, [r6], #1
    18e6:	f1a0 0730 	sub.w	r7, r0, #48	; 0x30
	while (isdigit((int)(unsigned char)*sp)) {
    18ea:	2f09      	cmp	r7, #9
    18ec:	d9f4      	bls.n	18d8 <cbvprintf+0x1a8>
	if (sp != wp) {
    18ee:	4299      	cmp	r1, r3
    18f0:	d093      	beq.n	181a <cbvprintf+0xea>
		conv->unsupported |= ((conv->width_value < 0)
    18f2:	f89d 1030 	ldrb.w	r1, [sp, #48]	; 0x30
		conv->width_value = width;
    18f6:	920d      	str	r2, [sp, #52]	; 0x34
				      || (width != (size_t)conv->width_value));
    18f8:	0fd2      	lsrs	r2, r2, #31
		conv->unsupported |= ((conv->width_value < 0)
    18fa:	f362 0141 	bfi	r1, r2, #1, #1
    18fe:	f88d 1030 	strb.w	r1, [sp, #48]	; 0x30
    1902:	e78a      	b.n	181a <cbvprintf+0xea>
    1904:	460b      	mov	r3, r1
	size_t val = 0;
    1906:	2200      	movs	r2, #0
		val = 10U * val + *sp++ - '0';
    1908:	f04f 0c0a 	mov.w	ip, #10
    190c:	e7e8      	b.n	18e0 <cbvprintf+0x1b0>
		conv->prec_star = true;
    190e:	f89d 2031 	ldrb.w	r2, [sp, #49]	; 0x31
    1912:	f042 0204 	orr.w	r2, r2, #4
    1916:	f88d 2031 	strb.w	r2, [sp, #49]	; 0x31
		return ++sp;
    191a:	3302      	adds	r3, #2
	switch (*sp) {
    191c:	461f      	mov	r7, r3
    191e:	f817 2b01 	ldrb.w	r2, [r7], #1
    1922:	2a6c      	cmp	r2, #108	; 0x6c
    1924:	d041      	beq.n	19aa <cbvprintf+0x27a>
    1926:	d825      	bhi.n	1974 <cbvprintf+0x244>
    1928:	2a68      	cmp	r2, #104	; 0x68
    192a:	d02b      	beq.n	1984 <cbvprintf+0x254>
    192c:	2a6a      	cmp	r2, #106	; 0x6a
    192e:	d046      	beq.n	19be <cbvprintf+0x28e>
    1930:	2a4c      	cmp	r2, #76	; 0x4c
    1932:	d04c      	beq.n	19ce <cbvprintf+0x29e>
    1934:	461f      	mov	r7, r3
	conv->specifier = *sp++;
    1936:	f817 2b01 	ldrb.w	r2, [r7], #1
    193a:	f89d 3031 	ldrb.w	r3, [sp, #49]	; 0x31
    193e:	f88d 2033 	strb.w	r2, [sp, #51]	; 0x33
	switch (conv->specifier) {
    1942:	2a78      	cmp	r2, #120	; 0x78
    1944:	f200 80d9 	bhi.w	1afa <cbvprintf+0x3ca>
    1948:	2a57      	cmp	r2, #87	; 0x57
    194a:	d84d      	bhi.n	19e8 <cbvprintf+0x2b8>
    194c:	2a41      	cmp	r2, #65	; 0x41
    194e:	d003      	beq.n	1958 <cbvprintf+0x228>
    1950:	3a45      	subs	r2, #69	; 0x45
    1952:	2a02      	cmp	r2, #2
    1954:	f200 80d1 	bhi.w	1afa <cbvprintf+0x3ca>
		conv->specifier_cat = SPECIFIER_FP;
    1958:	f89d 3032 	ldrb.w	r3, [sp, #50]	; 0x32
    195c:	2204      	movs	r2, #4
    195e:	f362 0302 	bfi	r3, r2, #0, #3
    1962:	f88d 3032 	strb.w	r3, [sp, #50]	; 0x32
			unsupported = true;
    1966:	2301      	movs	r3, #1
			break;
    1968:	e09e      	b.n	1aa8 <cbvprintf+0x378>
		val = 10U * val + *sp++ - '0';
    196a:	fb06 2101 	mla	r1, r6, r1, r2
    196e:	3930      	subs	r1, #48	; 0x30
    1970:	4603      	mov	r3, r0
    1972:	e764      	b.n	183e <cbvprintf+0x10e>
	switch (*sp) {
    1974:	2a74      	cmp	r2, #116	; 0x74
    1976:	d026      	beq.n	19c6 <cbvprintf+0x296>
    1978:	2a7a      	cmp	r2, #122	; 0x7a
    197a:	d1db      	bne.n	1934 <cbvprintf+0x204>
		conv->length_mod = LENGTH_Z;
    197c:	f89d 3031 	ldrb.w	r3, [sp, #49]	; 0x31
    1980:	2206      	movs	r2, #6
    1982:	e00d      	b.n	19a0 <cbvprintf+0x270>
		if (*++sp == 'h') {
    1984:	785a      	ldrb	r2, [r3, #1]
    1986:	2a68      	cmp	r2, #104	; 0x68
    1988:	f89d 2031 	ldrb.w	r2, [sp, #49]	; 0x31
    198c:	d106      	bne.n	199c <cbvprintf+0x26c>
			conv->length_mod = LENGTH_HH;
    198e:	2101      	movs	r1, #1
			conv->length_mod = LENGTH_LL;
    1990:	f361 02c6 	bfi	r2, r1, #3, #4
    1994:	f88d 2031 	strb.w	r2, [sp, #49]	; 0x31
			++sp;
    1998:	1c9f      	adds	r7, r3, #2
    199a:	e7cc      	b.n	1936 <cbvprintf+0x206>
			conv->length_mod = LENGTH_H;
    199c:	4613      	mov	r3, r2
    199e:	2202      	movs	r2, #2
		conv->length_mod = LENGTH_T;
    19a0:	f362 03c6 	bfi	r3, r2, #3, #4
    19a4:	f88d 3031 	strb.w	r3, [sp, #49]	; 0x31
		break;
    19a8:	e7c5      	b.n	1936 <cbvprintf+0x206>
		if (*++sp == 'l') {
    19aa:	785a      	ldrb	r2, [r3, #1]
    19ac:	2a6c      	cmp	r2, #108	; 0x6c
    19ae:	f89d 2031 	ldrb.w	r2, [sp, #49]	; 0x31
    19b2:	d101      	bne.n	19b8 <cbvprintf+0x288>
			conv->length_mod = LENGTH_LL;
    19b4:	2104      	movs	r1, #4
    19b6:	e7eb      	b.n	1990 <cbvprintf+0x260>
			conv->length_mod = LENGTH_L;
    19b8:	4613      	mov	r3, r2
    19ba:	2203      	movs	r2, #3
    19bc:	e7f0      	b.n	19a0 <cbvprintf+0x270>
		conv->length_mod = LENGTH_J;
    19be:	f89d 3031 	ldrb.w	r3, [sp, #49]	; 0x31
    19c2:	2205      	movs	r2, #5
    19c4:	e7ec      	b.n	19a0 <cbvprintf+0x270>
		conv->length_mod = LENGTH_T;
    19c6:	f89d 3031 	ldrb.w	r3, [sp, #49]	; 0x31
    19ca:	2207      	movs	r2, #7
    19cc:	e7e8      	b.n	19a0 <cbvprintf+0x270>
		conv->unsupported = true;
    19ce:	f8bd 3030 	ldrh.w	r3, [sp, #48]	; 0x30
    19d2:	f423 43f0 	bic.w	r3, r3, #30720	; 0x7800
    19d6:	f023 0302 	bic.w	r3, r3, #2
    19da:	f443 4380 	orr.w	r3, r3, #16384	; 0x4000
    19de:	f043 0302 	orr.w	r3, r3, #2
    19e2:	f8ad 3030 	strh.w	r3, [sp, #48]	; 0x30
		break;
    19e6:	e7a6      	b.n	1936 <cbvprintf+0x206>
    19e8:	f1a2 0158 	sub.w	r1, r2, #88	; 0x58
    19ec:	2920      	cmp	r1, #32
    19ee:	f200 8084 	bhi.w	1afa <cbvprintf+0x3ca>
    19f2:	a001      	add	r0, pc, #4	; (adr r0, 19f8 <cbvprintf+0x2c8>)
    19f4:	f850 f021 	ldr.w	pc, [r0, r1, lsl #2]
    19f8:	00001abd 	.word	0x00001abd
    19fc:	00001afb 	.word	0x00001afb
    1a00:	00001afb 	.word	0x00001afb
    1a04:	00001afb 	.word	0x00001afb
    1a08:	00001afb 	.word	0x00001afb
    1a0c:	00001afb 	.word	0x00001afb
    1a10:	00001afb 	.word	0x00001afb
    1a14:	00001afb 	.word	0x00001afb
    1a18:	00001afb 	.word	0x00001afb
    1a1c:	00001959 	.word	0x00001959
    1a20:	00001afb 	.word	0x00001afb
    1a24:	00001abd 	.word	0x00001abd
    1a28:	00001a7d 	.word	0x00001a7d
    1a2c:	00001959 	.word	0x00001959
    1a30:	00001959 	.word	0x00001959
    1a34:	00001959 	.word	0x00001959
    1a38:	00001afb 	.word	0x00001afb
    1a3c:	00001a7d 	.word	0x00001a7d
    1a40:	00001afb 	.word	0x00001afb
    1a44:	00001afb 	.word	0x00001afb
    1a48:	00001afb 	.word	0x00001afb
    1a4c:	00001afb 	.word	0x00001afb
    1a50:	00001ac5 	.word	0x00001ac5
    1a54:	00001abd 	.word	0x00001abd
    1a58:	00001ae1 	.word	0x00001ae1
    1a5c:	00001afb 	.word	0x00001afb
    1a60:	00001afb 	.word	0x00001afb
    1a64:	00001ae1 	.word	0x00001ae1
    1a68:	00001afb 	.word	0x00001afb
    1a6c:	00001abd 	.word	0x00001abd
    1a70:	00001afb 	.word	0x00001afb
    1a74:	00001afb 	.word	0x00001afb
    1a78:	00001abd 	.word	0x00001abd
		conv->specifier_cat = SPECIFIER_SINT;
    1a7c:	f89d 1032 	ldrb.w	r1, [sp, #50]	; 0x32
    1a80:	2001      	movs	r0, #1
		if (conv->length_mod == LENGTH_UPPER_L) {
    1a82:	f003 0378 	and.w	r3, r3, #120	; 0x78
		conv->specifier_cat = SPECIFIER_UINT;
    1a86:	f360 0102 	bfi	r1, r0, #0, #3
		if (conv->length_mod == LENGTH_UPPER_L) {
    1a8a:	2b40      	cmp	r3, #64	; 0x40
		conv->specifier_cat = SPECIFIER_UINT;
    1a8c:	f88d 1032 	strb.w	r1, [sp, #50]	; 0x32
			conv->invalid = true;
    1a90:	bf02      	ittt	eq
    1a92:	f89d 1030 	ldrbeq.w	r1, [sp, #48]	; 0x30
    1a96:	f041 0101 	orreq.w	r1, r1, #1
    1a9a:	f88d 1030 	strbeq.w	r1, [sp, #48]	; 0x30
		if (conv->specifier == 'c') {
    1a9e:	2a63      	cmp	r2, #99	; 0x63
    1aa0:	d131      	bne.n	1b06 <cbvprintf+0x3d6>
			unsupported = (conv->length_mod != LENGTH_NONE);
    1aa2:	3b00      	subs	r3, #0
    1aa4:	bf18      	it	ne
    1aa6:	2301      	movne	r3, #1
	conv->unsupported |= unsupported;
    1aa8:	f89d 2030 	ldrb.w	r2, [sp, #48]	; 0x30
    1aac:	f3c2 0140 	ubfx	r1, r2, #1, #1
    1ab0:	430b      	orrs	r3, r1
    1ab2:	f363 0241 	bfi	r2, r3, #1, #1
    1ab6:	f88d 2030 	strb.w	r2, [sp, #48]	; 0x30
	return sp;
    1aba:	e6d8      	b.n	186e <cbvprintf+0x13e>
		conv->specifier_cat = SPECIFIER_UINT;
    1abc:	f89d 1032 	ldrb.w	r1, [sp, #50]	; 0x32
    1ac0:	2002      	movs	r0, #2
    1ac2:	e7de      	b.n	1a82 <cbvprintf+0x352>
		conv->specifier_cat = SPECIFIER_PTR;
    1ac4:	f89d 2032 	ldrb.w	r2, [sp, #50]	; 0x32
		if (conv->length_mod == LENGTH_UPPER_L) {
    1ac8:	f003 0378 	and.w	r3, r3, #120	; 0x78
    1acc:	f1a3 0040 	sub.w	r0, r3, #64	; 0x40
		conv->specifier_cat = SPECIFIER_PTR;
    1ad0:	2103      	movs	r1, #3
    1ad2:	f361 0202 	bfi	r2, r1, #0, #3
		if (conv->length_mod == LENGTH_UPPER_L) {
    1ad6:	4243      	negs	r3, r0
		conv->specifier_cat = SPECIFIER_PTR;
    1ad8:	f88d 2032 	strb.w	r2, [sp, #50]	; 0x32
		if (conv->length_mod == LENGTH_UPPER_L) {
    1adc:	4143      	adcs	r3, r0
    1ade:	e7e3      	b.n	1aa8 <cbvprintf+0x378>
		conv->specifier_cat = SPECIFIER_PTR;
    1ae0:	f89d 2032 	ldrb.w	r2, [sp, #50]	; 0x32
    1ae4:	2103      	movs	r1, #3
		if (conv->length_mod != LENGTH_NONE) {
    1ae6:	f013 0f78 	tst.w	r3, #120	; 0x78
		conv->specifier_cat = SPECIFIER_PTR;
    1aea:	f361 0202 	bfi	r2, r1, #0, #3
    1aee:	f88d 2032 	strb.w	r2, [sp, #50]	; 0x32
		if (conv->length_mod != LENGTH_NONE) {
    1af2:	bf14      	ite	ne
    1af4:	2301      	movne	r3, #1
    1af6:	2300      	moveq	r3, #0
    1af8:	e7d6      	b.n	1aa8 <cbvprintf+0x378>
		conv->invalid = true;
    1afa:	f89d 3030 	ldrb.w	r3, [sp, #48]	; 0x30
    1afe:	f043 0301 	orr.w	r3, r3, #1
    1b02:	f88d 3030 	strb.w	r3, [sp, #48]	; 0x30
	bool unsupported = false;
    1b06:	2300      	movs	r3, #0
    1b08:	e7ce      	b.n	1aa8 <cbvprintf+0x378>
		} else if (conv->width_present) {
    1b0a:	f99d 2030 	ldrsb.w	r2, [sp, #48]	; 0x30
    1b0e:	2a00      	cmp	r2, #0
			width = conv->width_value;
    1b10:	bfb4      	ite	lt
    1b12:	f8dd 9034 	ldrlt.w	r9, [sp, #52]	; 0x34
		int width = -1;
    1b16:	f04f 39ff 	movge.w	r9, #4294967295
    1b1a:	e6ba      	b.n	1892 <cbvprintf+0x162>
		} else if (conv->prec_present) {
    1b1c:	079b      	lsls	r3, r3, #30
    1b1e:	f57f aec7 	bpl.w	18b0 <cbvprintf+0x180>
			precision = conv->prec_value;
    1b22:	f8dd 8038 	ldr.w	r8, [sp, #56]	; 0x38
			= (enum length_mod_enum)conv->length_mod;
    1b26:	f89d 2031 	ldrb.w	r2, [sp, #49]	; 0x31
		conv->pad0_value = 0;
    1b2a:	2300      	movs	r3, #0
		conv->pad0_pre_exp = 0;
    1b2c:	e9cd 330d 	strd	r3, r3, [sp, #52]	; 0x34
			= (enum specifier_cat_enum)conv->specifier_cat;
    1b30:	f89d 3032 	ldrb.w	r3, [sp, #50]	; 0x32
		enum specifier_cat_enum specifier_cat
    1b34:	f003 0307 	and.w	r3, r3, #7
		if (specifier_cat == SPECIFIER_SINT) {
    1b38:	2b01      	cmp	r3, #1
			= (enum length_mod_enum)conv->length_mod;
    1b3a:	f3c2 02c3 	ubfx	r2, r2, #3, #4
		if (specifier_cat == SPECIFIER_SINT) {
    1b3e:	d136      	bne.n	1bae <cbvprintf+0x47e>
			switch (length_mod) {
    1b40:	1ed3      	subs	r3, r2, #3
    1b42:	2b04      	cmp	r3, #4
    1b44:	d820      	bhi.n	1b88 <cbvprintf+0x458>
    1b46:	e8df f003 	tbb	[pc, r3]
    1b4a:	0703      	.short	0x0703
    1b4c:	1f07      	.short	0x1f07
    1b4e:	1f          	.byte	0x1f
    1b4f:	00          	.byte	0x00
					value->sint = va_arg(ap, long);
    1b50:	f854 0b04 	ldr.w	r0, [r4], #4
				value->sint = (short)value->sint;
    1b54:	17c1      	asrs	r1, r0, #31
    1b56:	e004      	b.n	1b62 <cbvprintf+0x432>
					(sint_value_type)va_arg(ap, intmax_t);
    1b58:	3407      	adds	r4, #7
    1b5a:	f024 0407 	bic.w	r4, r4, #7
				value->sint =
    1b5e:	e8f4 0102 	ldrd	r0, r1, [r4], #8
				value->sint = (short)value->sint;
    1b62:	e9cd 010a 	strd	r0, r1, [sp, #40]	; 0x28
		if (conv->invalid || conv->unsupported) {
    1b66:	f89d 3030 	ldrb.w	r3, [sp, #48]	; 0x30
    1b6a:	f013 0603 	ands.w	r6, r3, #3
    1b6e:	d054      	beq.n	1c1a <cbvprintf+0x4ea>
			OUTS(sp, fp);
    1b70:	9802      	ldr	r0, [sp, #8]
    1b72:	463b      	mov	r3, r7
    1b74:	4652      	mov	r2, sl
    1b76:	4659      	mov	r1, fp
    1b78:	f004 fc74 	bl	6464 <outs>
    1b7c:	2800      	cmp	r0, #0
    1b7e:	f2c0 8143 	blt.w	1e08 <cbvprintf+0x6d8>
    1b82:	4405      	add	r5, r0
			continue;
    1b84:	46ba      	mov	sl, r7
    1b86:	e5db      	b.n	1740 <cbvprintf+0x10>
					(sint_value_type)va_arg(ap, ptrdiff_t);
    1b88:	f854 0b04 	ldr.w	r0, [r4], #4
			if (length_mod == LENGTH_HH) {
    1b8c:	2a01      	cmp	r2, #1
					(sint_value_type)va_arg(ap, ptrdiff_t);
    1b8e:	ea4f 71e0 	mov.w	r1, r0, asr #31
    1b92:	e9cd 010a 	strd	r0, r1, [sp, #40]	; 0x28
			if (length_mod == LENGTH_HH) {
    1b96:	d105      	bne.n	1ba4 <cbvprintf+0x474>
				value->uint = (unsigned char)value->uint;
    1b98:	f89d 3028 	ldrb.w	r3, [sp, #40]	; 0x28
				value->uint = (unsigned short)value->uint;
    1b9c:	930a      	str	r3, [sp, #40]	; 0x28
    1b9e:	2300      	movs	r3, #0
    1ba0:	930b      	str	r3, [sp, #44]	; 0x2c
    1ba2:	e7e0      	b.n	1b66 <cbvprintf+0x436>
			} else if (length_mod == LENGTH_H) {
    1ba4:	2a02      	cmp	r2, #2
    1ba6:	d1de      	bne.n	1b66 <cbvprintf+0x436>
				value->sint = (short)value->sint;
    1ba8:	f9bd 0028 	ldrsh.w	r0, [sp, #40]	; 0x28
    1bac:	e7d2      	b.n	1b54 <cbvprintf+0x424>
		} else if (specifier_cat == SPECIFIER_UINT) {
    1bae:	2b02      	cmp	r3, #2
    1bb0:	d123      	bne.n	1bfa <cbvprintf+0x4ca>
			switch (length_mod) {
    1bb2:	1ed3      	subs	r3, r2, #3
    1bb4:	2b04      	cmp	r3, #4
    1bb6:	d813      	bhi.n	1be0 <cbvprintf+0x4b0>
    1bb8:	e8df f003 	tbb	[pc, r3]
    1bbc:	120a0a03 	.word	0x120a0a03
    1bc0:	12          	.byte	0x12
    1bc1:	00          	.byte	0x00
					value->uint = (wchar_t)va_arg(ap,
    1bc2:	6820      	ldr	r0, [r4, #0]
    1bc4:	900a      	str	r0, [sp, #40]	; 0x28
    1bc6:	2100      	movs	r1, #0
    1bc8:	1d23      	adds	r3, r4, #4
    1bca:	910b      	str	r1, [sp, #44]	; 0x2c
					(uint_value_type)va_arg(ap, size_t);
    1bcc:	461c      	mov	r4, r3
    1bce:	e7ca      	b.n	1b66 <cbvprintf+0x436>
					(uint_value_type)va_arg(ap,
    1bd0:	3407      	adds	r4, #7
    1bd2:	f024 0307 	bic.w	r3, r4, #7
				value->uint =
    1bd6:	e8f3 0102 	ldrd	r0, r1, [r3], #8
    1bda:	e9cd 010a 	strd	r0, r1, [sp, #40]	; 0x28
				break;
    1bde:	e7f5      	b.n	1bcc <cbvprintf+0x49c>
					(uint_value_type)va_arg(ap, size_t);
    1be0:	f854 3b04 	ldr.w	r3, [r4], #4
    1be4:	930a      	str	r3, [sp, #40]	; 0x28
			if (length_mod == LENGTH_HH) {
    1be6:	2a01      	cmp	r2, #1
					(uint_value_type)va_arg(ap, size_t);
    1be8:	f04f 0300 	mov.w	r3, #0
    1bec:	930b      	str	r3, [sp, #44]	; 0x2c
			if (length_mod == LENGTH_HH) {
    1bee:	d0d3      	beq.n	1b98 <cbvprintf+0x468>
			} else if (length_mod == LENGTH_H) {
    1bf0:	2a02      	cmp	r2, #2
    1bf2:	d1b8      	bne.n	1b66 <cbvprintf+0x436>
				value->uint = (unsigned short)value->uint;
    1bf4:	f8bd 3028 	ldrh.w	r3, [sp, #40]	; 0x28
    1bf8:	e7d0      	b.n	1b9c <cbvprintf+0x46c>
		} else if (specifier_cat == SPECIFIER_FP) {
    1bfa:	2b04      	cmp	r3, #4
    1bfc:	d107      	bne.n	1c0e <cbvprintf+0x4de>
			if (length_mod == LENGTH_UPPER_L) {
    1bfe:	3407      	adds	r4, #7
    1c00:	f024 0407 	bic.w	r4, r4, #7
    1c04:	e8f4 0102 	ldrd	r0, r1, [r4], #8
				value->ldbl = va_arg(ap, long double);
    1c08:	e9cd 010a 	strd	r0, r1, [sp, #40]	; 0x28
    1c0c:	e7ab      	b.n	1b66 <cbvprintf+0x436>
		} else if (specifier_cat == SPECIFIER_PTR) {
    1c0e:	2b03      	cmp	r3, #3
			value->ptr = va_arg(ap, void *);
    1c10:	bf04      	itt	eq
    1c12:	f854 3b04 	ldreq.w	r3, [r4], #4
    1c16:	930a      	streq	r3, [sp, #40]	; 0x28
    1c18:	e7a5      	b.n	1b66 <cbvprintf+0x436>
		switch (conv->specifier) {
    1c1a:	f89d 0033 	ldrb.w	r0, [sp, #51]	; 0x33
    1c1e:	2878      	cmp	r0, #120	; 0x78
    1c20:	d8b0      	bhi.n	1b84 <cbvprintf+0x454>
    1c22:	2862      	cmp	r0, #98	; 0x62
    1c24:	d822      	bhi.n	1c6c <cbvprintf+0x53c>
    1c26:	2825      	cmp	r0, #37	; 0x25
    1c28:	f43f ad93 	beq.w	1752 <cbvprintf+0x22>
    1c2c:	2858      	cmp	r0, #88	; 0x58
    1c2e:	d1a9      	bne.n	1b84 <cbvprintf+0x454>
			bps = encode_uint(value->uint, conv, buf, bpe);
    1c30:	f10d 0326 	add.w	r3, sp, #38	; 0x26
    1c34:	9300      	str	r3, [sp, #0]
    1c36:	e9dd 010a 	ldrd	r0, r1, [sp, #40]	; 0x28
    1c3a:	ab04      	add	r3, sp, #16
    1c3c:	aa0c      	add	r2, sp, #48	; 0x30
    1c3e:	f004 fbc6 	bl	63ce <encode_uint>
    1c42:	4682      	mov	sl, r0
			if (precision >= 0) {
    1c44:	f1b8 0f00 	cmp.w	r8, #0
    1c48:	f10d 0026 	add.w	r0, sp, #38	; 0x26
    1c4c:	db0c      	blt.n	1c68 <cbvprintf+0x538>
				conv->flag_zero = false;
    1c4e:	f89d 2030 	ldrb.w	r2, [sp, #48]	; 0x30
				size_t len = bpe - bps;
    1c52:	eba0 030a 	sub.w	r3, r0, sl
				conv->flag_zero = false;
    1c56:	f36f 1286 	bfc	r2, #6, #1
				if (len < (size_t)precision) {
    1c5a:	4598      	cmp	r8, r3
				conv->flag_zero = false;
    1c5c:	f88d 2030 	strb.w	r2, [sp, #48]	; 0x30
				if (len < (size_t)precision) {
    1c60:	d902      	bls.n	1c68 <cbvprintf+0x538>
					conv->pad0_value = precision - (int)len;
    1c62:	eba8 0303 	sub.w	r3, r8, r3
    1c66:	930d      	str	r3, [sp, #52]	; 0x34
		const char *bpe = buf + sizeof(buf);
    1c68:	4680      	mov	r8, r0
    1c6a:	e03d      	b.n	1ce8 <cbvprintf+0x5b8>
    1c6c:	3863      	subs	r0, #99	; 0x63
    1c6e:	2815      	cmp	r0, #21
    1c70:	d888      	bhi.n	1b84 <cbvprintf+0x454>
    1c72:	a101      	add	r1, pc, #4	; (adr r1, 1c78 <cbvprintf+0x548>)
    1c74:	f851 f020 	ldr.w	pc, [r1, r0, lsl #2]
    1c78:	00001cf9 	.word	0x00001cf9
    1c7c:	00001d5d 	.word	0x00001d5d
    1c80:	00001b85 	.word	0x00001b85
    1c84:	00001b85 	.word	0x00001b85
    1c88:	00001b85 	.word	0x00001b85
    1c8c:	00001b85 	.word	0x00001b85
    1c90:	00001d5d 	.word	0x00001d5d
    1c94:	00001b85 	.word	0x00001b85
    1c98:	00001b85 	.word	0x00001b85
    1c9c:	00001b85 	.word	0x00001b85
    1ca0:	00001b85 	.word	0x00001b85
    1ca4:	00001dbb 	.word	0x00001dbb
    1ca8:	00001d89 	.word	0x00001d89
    1cac:	00001d8d 	.word	0x00001d8d
    1cb0:	00001b85 	.word	0x00001b85
    1cb4:	00001b85 	.word	0x00001b85
    1cb8:	00001cd1 	.word	0x00001cd1
    1cbc:	00001b85 	.word	0x00001b85
    1cc0:	00001d89 	.word	0x00001d89
    1cc4:	00001b85 	.word	0x00001b85
    1cc8:	00001b85 	.word	0x00001b85
    1ccc:	00001d89 	.word	0x00001d89
			if (precision >= 0) {
    1cd0:	f1b8 0f00 	cmp.w	r8, #0
			bps = (const char *)value->ptr;
    1cd4:	f8dd a028 	ldr.w	sl, [sp, #40]	; 0x28
			if (precision >= 0) {
    1cd8:	db0a      	blt.n	1cf0 <cbvprintf+0x5c0>
				len = strnlen(bps, precision);
    1cda:	4641      	mov	r1, r8
    1cdc:	4650      	mov	r0, sl
    1cde:	f004 fed5 	bl	6a8c <strnlen>
			bpe = bps + len;
    1ce2:	eb0a 0800 	add.w	r8, sl, r0
		char sign = 0;
    1ce6:	2600      	movs	r6, #0
		if (bps == NULL) {
    1ce8:	f1ba 0f00 	cmp.w	sl, #0
    1cec:	d10c      	bne.n	1d08 <cbvprintf+0x5d8>
    1cee:	e749      	b.n	1b84 <cbvprintf+0x454>
				len = strlen(bps);
    1cf0:	4650      	mov	r0, sl
    1cf2:	f004 fec4 	bl	6a7e <strlen>
    1cf6:	e7f4      	b.n	1ce2 <cbvprintf+0x5b2>
			buf[0] = CHAR_IS_SIGNED ? value->sint : value->uint;
    1cf8:	9b0a      	ldr	r3, [sp, #40]	; 0x28
    1cfa:	f88d 3010 	strb.w	r3, [sp, #16]
			break;
    1cfe:	2600      	movs	r6, #0
			bpe = buf + 1;
    1d00:	f10d 0811 	add.w	r8, sp, #17
			bps = buf;
    1d04:	f10d 0a10 	add.w	sl, sp, #16
		size_t nj_len = (bpe - bps);
    1d08:	eba8 030a 	sub.w	r3, r8, sl
		if (sign != 0) {
    1d0c:	b106      	cbz	r6, 1d10 <cbvprintf+0x5e0>
			nj_len += 1U;
    1d0e:	3301      	adds	r3, #1
		if (conv->altform_0c) {
    1d10:	f89d 2032 	ldrb.w	r2, [sp, #50]	; 0x32
    1d14:	06d0      	lsls	r0, r2, #27
    1d16:	d56b      	bpl.n	1df0 <cbvprintf+0x6c0>
			nj_len += 2U;
    1d18:	3302      	adds	r3, #2
		if (conv->pad_fp) {
    1d1a:	0652      	lsls	r2, r2, #25
		nj_len += conv->pad0_value;
    1d1c:	990d      	ldr	r1, [sp, #52]	; 0x34
			nj_len += conv->pad0_pre_exp;
    1d1e:	bf48      	it	mi
    1d20:	9a0e      	ldrmi	r2, [sp, #56]	; 0x38
		nj_len += conv->pad0_value;
    1d22:	440b      	add	r3, r1
			nj_len += conv->pad0_pre_exp;
    1d24:	bf48      	it	mi
    1d26:	189b      	addmi	r3, r3, r2
		if (width > 0) {
    1d28:	f1b9 0f00 	cmp.w	r9, #0
    1d2c:	dd79      	ble.n	1e22 <cbvprintf+0x6f2>
			if (!conv->flag_dash) {
    1d2e:	f89d 2030 	ldrb.w	r2, [sp, #48]	; 0x30
			width -= (int)nj_len;
    1d32:	eba9 0903 	sub.w	r9, r9, r3
			if (!conv->flag_dash) {
    1d36:	f3c2 0380 	ubfx	r3, r2, #2, #1
    1d3a:	9303      	str	r3, [sp, #12]
    1d3c:	0753      	lsls	r3, r2, #29
    1d3e:	d470      	bmi.n	1e22 <cbvprintf+0x6f2>
				if (conv->flag_zero) {
    1d40:	0650      	lsls	r0, r2, #25
    1d42:	d564      	bpl.n	1e0e <cbvprintf+0x6de>
					if (sign != 0) {
    1d44:	b146      	cbz	r6, 1d58 <cbvprintf+0x628>
						OUTC(sign);
    1d46:	9b02      	ldr	r3, [sp, #8]
    1d48:	4659      	mov	r1, fp
    1d4a:	4630      	mov	r0, r6
    1d4c:	4798      	blx	r3
    1d4e:	2800      	cmp	r0, #0
    1d50:	db5a      	blt.n	1e08 <cbvprintf+0x6d8>
						sign = 0;
    1d52:	9b03      	ldr	r3, [sp, #12]
						OUTC(sign);
    1d54:	3501      	adds	r5, #1
						sign = 0;
    1d56:	461e      	mov	r6, r3
					pad = '0';
    1d58:	2330      	movs	r3, #48	; 0x30
    1d5a:	e059      	b.n	1e10 <cbvprintf+0x6e0>
			if (conv->flag_plus) {
    1d5c:	071e      	lsls	r6, r3, #28
    1d5e:	d411      	bmi.n	1d84 <cbvprintf+0x654>
				sign = ' ';
    1d60:	f013 0610 	ands.w	r6, r3, #16
    1d64:	bf18      	it	ne
    1d66:	2620      	movne	r6, #32
			sint = value->sint;
    1d68:	e9dd 230a 	ldrd	r2, r3, [sp, #40]	; 0x28
			if (sint < 0) {
    1d6c:	2a00      	cmp	r2, #0
    1d6e:	f173 0100 	sbcs.w	r1, r3, #0
    1d72:	f6bf af5d 	bge.w	1c30 <cbvprintf+0x500>
				value->uint = (uint_value_type)-sint;
    1d76:	4252      	negs	r2, r2
    1d78:	eb63 0343 	sbc.w	r3, r3, r3, lsl #1
    1d7c:	e9cd 230a 	strd	r2, r3, [sp, #40]	; 0x28
				sign = '-';
    1d80:	262d      	movs	r6, #45	; 0x2d
    1d82:	e755      	b.n	1c30 <cbvprintf+0x500>
				sign = '+';
    1d84:	262b      	movs	r6, #43	; 0x2b
    1d86:	e7ef      	b.n	1d68 <cbvprintf+0x638>
		switch (conv->specifier) {
    1d88:	2600      	movs	r6, #0
    1d8a:	e751      	b.n	1c30 <cbvprintf+0x500>
			if (value->ptr != NULL) {
    1d8c:	980a      	ldr	r0, [sp, #40]	; 0x28
    1d8e:	b348      	cbz	r0, 1de4 <cbvprintf+0x6b4>
				bps = encode_uint((uintptr_t)value->ptr, conv,
    1d90:	f10d 0326 	add.w	r3, sp, #38	; 0x26
    1d94:	9300      	str	r3, [sp, #0]
    1d96:	aa0c      	add	r2, sp, #48	; 0x30
    1d98:	ab04      	add	r3, sp, #16
    1d9a:	2100      	movs	r1, #0
    1d9c:	f004 fb17 	bl	63ce <encode_uint>
				conv->altform_0c = true;
    1da0:	f8bd 3032 	ldrh.w	r3, [sp, #50]	; 0x32
    1da4:	f003 03ef 	and.w	r3, r3, #239	; 0xef
    1da8:	f443 43f0 	orr.w	r3, r3, #30720	; 0x7800
    1dac:	f043 0310 	orr.w	r3, r3, #16
				bps = encode_uint((uintptr_t)value->ptr, conv,
    1db0:	4682      	mov	sl, r0
				conv->altform_0c = true;
    1db2:	f8ad 3032 	strh.w	r3, [sp, #50]	; 0x32
		char sign = 0;
    1db6:	2600      	movs	r6, #0
				goto prec_int_pad0;
    1db8:	e744      	b.n	1c44 <cbvprintf+0x514>
				store_count(conv, value->ptr, count);
    1dba:	9b0a      	ldr	r3, [sp, #40]	; 0x28
	switch ((enum length_mod_enum)conv->length_mod) {
    1dbc:	2a07      	cmp	r2, #7
    1dbe:	f63f aee1 	bhi.w	1b84 <cbvprintf+0x454>
    1dc2:	e8df f002 	tbb	[pc, r2]
    1dc6:	040d      	.short	0x040d
    1dc8:	08080d06 	.word	0x08080d06
    1dcc:	0d0d      	.short	0x0d0d
		*(signed char *)dp = (signed char)count;
    1dce:	701d      	strb	r5, [r3, #0]
		break;
    1dd0:	e6d8      	b.n	1b84 <cbvprintf+0x454>
		*(short *)dp = (short)count;
    1dd2:	801d      	strh	r5, [r3, #0]
		break;
    1dd4:	e6d6      	b.n	1b84 <cbvprintf+0x454>
		*(intmax_t *)dp = (intmax_t)count;
    1dd6:	4628      	mov	r0, r5
    1dd8:	17e9      	asrs	r1, r5, #31
    1dda:	e9c3 0100 	strd	r0, r1, [r3]
		break;
    1dde:	e6d1      	b.n	1b84 <cbvprintf+0x454>
		*(ptrdiff_t *)dp = (ptrdiff_t)count;
    1de0:	601d      	str	r5, [r3, #0]
		break;
    1de2:	e6cf      	b.n	1b84 <cbvprintf+0x454>
			bpe = bps + 5;
    1de4:	f8df 80c4 	ldr.w	r8, [pc, #196]	; 1eac <cbvprintf+0x77c>
    1de8:	4606      	mov	r6, r0
			bps = "(nil)";
    1dea:	f1a8 0a05 	sub.w	sl, r8, #5
    1dee:	e78b      	b.n	1d08 <cbvprintf+0x5d8>
		} else if (conv->altform_0) {
    1df0:	0711      	lsls	r1, r2, #28
			nj_len += 1U;
    1df2:	bf48      	it	mi
    1df4:	3301      	addmi	r3, #1
    1df6:	e790      	b.n	1d1a <cbvprintf+0x5ea>
					OUTC(pad);
    1df8:	4618      	mov	r0, r3
    1dfa:	9303      	str	r3, [sp, #12]
    1dfc:	4659      	mov	r1, fp
    1dfe:	9b02      	ldr	r3, [sp, #8]
    1e00:	4798      	blx	r3
    1e02:	2800      	cmp	r0, #0
    1e04:	9b03      	ldr	r3, [sp, #12]
    1e06:	da04      	bge.n	1e12 <cbvprintf+0x6e2>
#undef OUTS
#undef OUTC
}
    1e08:	b011      	add	sp, #68	; 0x44
    1e0a:	e8bd 8ff0 	ldmia.w	sp!, {r4, r5, r6, r7, r8, r9, sl, fp, pc}
				char pad = ' ';
    1e0e:	2320      	movs	r3, #32
    1e10:	444d      	add	r5, r9
    1e12:	464a      	mov	r2, r9
				while (width-- > 0) {
    1e14:	2a00      	cmp	r2, #0
    1e16:	eba5 0109 	sub.w	r1, r5, r9
    1e1a:	f109 39ff 	add.w	r9, r9, #4294967295
    1e1e:	dceb      	bgt.n	1df8 <cbvprintf+0x6c8>
    1e20:	460d      	mov	r5, r1
		if (sign != 0) {
    1e22:	b136      	cbz	r6, 1e32 <cbvprintf+0x702>
			OUTC(sign);
    1e24:	9b02      	ldr	r3, [sp, #8]
    1e26:	4659      	mov	r1, fp
    1e28:	4630      	mov	r0, r6
    1e2a:	4798      	blx	r3
    1e2c:	2800      	cmp	r0, #0
    1e2e:	dbeb      	blt.n	1e08 <cbvprintf+0x6d8>
    1e30:	3501      	adds	r5, #1
			if (conv->altform_0c | conv->altform_0) {
    1e32:	f89d 3032 	ldrb.w	r3, [sp, #50]	; 0x32
    1e36:	06d9      	lsls	r1, r3, #27
    1e38:	d401      	bmi.n	1e3e <cbvprintf+0x70e>
    1e3a:	071a      	lsls	r2, r3, #28
    1e3c:	d506      	bpl.n	1e4c <cbvprintf+0x71c>
				OUTC('0');
    1e3e:	9b02      	ldr	r3, [sp, #8]
    1e40:	4659      	mov	r1, fp
    1e42:	2030      	movs	r0, #48	; 0x30
    1e44:	4798      	blx	r3
    1e46:	2800      	cmp	r0, #0
    1e48:	dbde      	blt.n	1e08 <cbvprintf+0x6d8>
    1e4a:	3501      	adds	r5, #1
			if (conv->altform_0c) {
    1e4c:	f89d 3032 	ldrb.w	r3, [sp, #50]	; 0x32
    1e50:	06db      	lsls	r3, r3, #27
    1e52:	d507      	bpl.n	1e64 <cbvprintf+0x734>
				OUTC(conv->specifier);
    1e54:	f89d 0033 	ldrb.w	r0, [sp, #51]	; 0x33
    1e58:	9b02      	ldr	r3, [sp, #8]
    1e5a:	4659      	mov	r1, fp
    1e5c:	4798      	blx	r3
    1e5e:	2800      	cmp	r0, #0
    1e60:	dbd2      	blt.n	1e08 <cbvprintf+0x6d8>
    1e62:	3501      	adds	r5, #1
			while (pad_len-- > 0) {
    1e64:	9e0d      	ldr	r6, [sp, #52]	; 0x34
    1e66:	442e      	add	r6, r5
    1e68:	1b73      	subs	r3, r6, r5
    1e6a:	2b00      	cmp	r3, #0
    1e6c:	dc16      	bgt.n	1e9c <cbvprintf+0x76c>
			OUTS(bps, bpe);
    1e6e:	9802      	ldr	r0, [sp, #8]
    1e70:	4643      	mov	r3, r8
    1e72:	4652      	mov	r2, sl
    1e74:	4659      	mov	r1, fp
    1e76:	f004 faf5 	bl	6464 <outs>
    1e7a:	2800      	cmp	r0, #0
    1e7c:	dbc4      	blt.n	1e08 <cbvprintf+0x6d8>
    1e7e:	4405      	add	r5, r0
		while (width > 0) {
    1e80:	44a9      	add	r9, r5
    1e82:	eba9 0305 	sub.w	r3, r9, r5
    1e86:	2b00      	cmp	r3, #0
    1e88:	f77f ae7c 	ble.w	1b84 <cbvprintf+0x454>
			OUTC(' ');
    1e8c:	9b02      	ldr	r3, [sp, #8]
    1e8e:	4659      	mov	r1, fp
    1e90:	2020      	movs	r0, #32
    1e92:	4798      	blx	r3
    1e94:	2800      	cmp	r0, #0
    1e96:	dbb7      	blt.n	1e08 <cbvprintf+0x6d8>
    1e98:	3501      	adds	r5, #1
			--width;
    1e9a:	e7f2      	b.n	1e82 <cbvprintf+0x752>
				OUTC('0');
    1e9c:	9b02      	ldr	r3, [sp, #8]
    1e9e:	4659      	mov	r1, fp
    1ea0:	2030      	movs	r0, #48	; 0x30
    1ea2:	4798      	blx	r3
    1ea4:	2800      	cmp	r0, #0
    1ea6:	dbaf      	blt.n	1e08 <cbvprintf+0x6d8>
    1ea8:	3501      	adds	r5, #1
    1eaa:	e7dd      	b.n	1e68 <cbvprintf+0x738>
    1eac:	00007ce5 	.word	0x00007ce5

00001eb0 <console_write>:

ssize_t console_write(void *dummy, const void *buf, size_t size)
{
	ARG_UNUSED(dummy);

	return tty_write(&console_serial, buf, size);
    1eb0:	4801      	ldr	r0, [pc, #4]	; (1eb8 <console_write+0x8>)
    1eb2:	f004 bcea 	b.w	688a <tty_write>
    1eb6:	bf00      	nop
    1eb8:	20000634 	.word	0x20000634

00001ebc <console_putchar>:

	return tty_read(&console_serial, buf, size);
}

int console_putchar(char c)
{
    1ebc:	b507      	push	{r0, r1, r2, lr}
	return tty_write(&console_serial, &c, 1);
    1ebe:	2201      	movs	r2, #1
{
    1ec0:	f88d 0007 	strb.w	r0, [sp, #7]
	return tty_write(&console_serial, &c, 1);
    1ec4:	f10d 0107 	add.w	r1, sp, #7
    1ec8:	4802      	ldr	r0, [pc, #8]	; (1ed4 <console_putchar+0x18>)
    1eca:	f004 fcde 	bl	688a <tty_write>
}
    1ece:	b003      	add	sp, #12
    1ed0:	f85d fb04 	ldr.w	pc, [sp], #4
    1ed4:	20000634 	.word	0x20000634

00001ed8 <console_getchar>:

int console_getchar(void)
{
    1ed8:	b507      	push	{r0, r1, r2, lr}
	uint8_t c;
	int res;

	res = tty_read(&console_serial, &c, 1);
    1eda:	2201      	movs	r2, #1
    1edc:	f10d 0107 	add.w	r1, sp, #7
    1ee0:	4804      	ldr	r0, [pc, #16]	; (1ef4 <console_getchar+0x1c>)
    1ee2:	f004 fcfb 	bl	68dc <tty_read>
	if (res < 0) {
    1ee6:	2800      	cmp	r0, #0
		return res;
	}

	return c;
    1ee8:	bfa8      	it	ge
    1eea:	f89d 0007 	ldrbge.w	r0, [sp, #7]
}
    1eee:	b003      	add	sp, #12
    1ef0:	f85d fb04 	ldr.w	pc, [sp], #4
    1ef4:	20000634 	.word	0x20000634

00001ef8 <console_init>:

int console_init(void)
{
    1ef8:	b538      	push	{r3, r4, r5, lr}
 *
 * @return a non-positive integer as documented in device_usable_check().
 */
static inline int z_device_usable_check(const struct device *dev)
{
	return z_device_ready(dev) ? 0 : -ENODEV;
    1efa:	4d10      	ldr	r5, [pc, #64]	; (1f3c <console_init+0x44>)
    1efc:	4628      	mov	r0, r5
    1efe:	f005 f965 	bl	71cc <z_device_ready>
    1f02:	b1a8      	cbz	r0, 1f30 <console_init+0x38>
	uart_dev = DEVICE_DT_GET(DT_CHOSEN(zephyr_console));
	if (!device_is_ready(uart_dev)) {
		return -ENODEV;
	}

	ret = tty_init(&console_serial, uart_dev);
    1f04:	480e      	ldr	r0, [pc, #56]	; (1f40 <console_init+0x48>)
    1f06:	4629      	mov	r1, r5
    1f08:	f000 fb12 	bl	2530 <tty_init>

	if (ret) {
    1f0c:	4604      	mov	r4, r0
    1f0e:	b968      	cbnz	r0, 1f2c <console_init+0x34>

	/* Checks device driver supports for interrupt driven data transfers. */
	if (CONFIG_CONSOLE_GETCHAR_BUFSIZE + CONFIG_CONSOLE_PUTCHAR_BUFSIZE) {
		const struct uart_driver_api *api =
			(const struct uart_driver_api *)uart_dev->api;
		if (!api->irq_callback_set) {
    1f10:	68ab      	ldr	r3, [r5, #8]
    1f12:	6c9b      	ldr	r3, [r3, #72]	; 0x48
    1f14:	b17b      	cbz	r3, 1f36 <console_init+0x3e>
			return -ENOTSUP;
		}
	}

	tty_set_tx_buf(&console_serial, console_txbuf, sizeof(console_txbuf));
    1f16:	490b      	ldr	r1, [pc, #44]	; (1f44 <console_init+0x4c>)
    1f18:	4809      	ldr	r0, [pc, #36]	; (1f40 <console_init+0x48>)
    1f1a:	f44f 7200 	mov.w	r2, #512	; 0x200
    1f1e:	f004 fd86 	bl	6a2e <tty_set_tx_buf>
	tty_set_rx_buf(&console_serial, console_rxbuf, sizeof(console_rxbuf));
    1f22:	4909      	ldr	r1, [pc, #36]	; (1f48 <console_init+0x50>)
    1f24:	4806      	ldr	r0, [pc, #24]	; (1f40 <console_init+0x48>)
    1f26:	2240      	movs	r2, #64	; 0x40
    1f28:	f004 fd68 	bl	69fc <tty_set_rx_buf>

	return 0;
}
    1f2c:	4620      	mov	r0, r4
    1f2e:	bd38      	pop	{r3, r4, r5, pc}
		return -ENODEV;
    1f30:	f06f 0412 	mvn.w	r4, #18
    1f34:	e7fa      	b.n	1f2c <console_init+0x34>
			return -ENOTSUP;
    1f36:	f06f 0485 	mvn.w	r4, #133	; 0x85
    1f3a:	e7f7      	b.n	1f2c <console_init+0x34>
    1f3c:	00007638 	.word	0x00007638
    1f40:	20000634 	.word	0x20000634
    1f44:	20000d06 	.word	0x20000d06
    1f48:	20000cc6 	.word	0x20000cc6

00001f4c <nrf_cc3xx_platform_abort_init>:

/** @brief Function to initialize the nrf_cc3xx_platform abort APIs.
 */
void nrf_cc3xx_platform_abort_init(void)
{
	nrf_cc3xx_platform_set_abort(&apis);
    1f4c:	4801      	ldr	r0, [pc, #4]	; (1f54 <nrf_cc3xx_platform_abort_init+0x8>)
    1f4e:	f004 b87f 	b.w	6050 <nrf_cc3xx_platform_set_abort>
    1f52:	bf00      	nop
    1f54:	00007838 	.word	0x00007838

00001f58 <mutex_unlock_platform>:
    }
}

/** @brief Static function to unlock a mutex
 */
static int32_t mutex_unlock_platform(nrf_cc3xx_platform_mutex_t *mutex) {
    1f58:	b508      	push	{r3, lr}
    struct k_mutex * p_mutex;

    /* Ensure that the mutex param is valid (not NULL) */
    if(mutex == NULL) {
    1f5a:	b1d0      	cbz	r0, 1f92 <mutex_unlock_platform+0x3a>
        return NRF_CC3XX_PLATFORM_ERROR_PARAM_NULL;
    }

    switch (mutex->flags)
    1f5c:	6843      	ldr	r3, [r0, #4]
    1f5e:	2b04      	cmp	r3, #4
    1f60:	d111      	bne.n	1f86 <mutex_unlock_platform+0x2e>
 * @return true if @a new_value is written, false otherwise.
 */
static inline bool atomic_cas(atomic_t *target, atomic_val_t old_value,
			  atomic_val_t new_value)
{
	return __atomic_compare_exchange_n(target, &old_value, new_value,
    1f62:	2200      	movs	r2, #0
    1f64:	6803      	ldr	r3, [r0, #0]
    1f66:	f3bf 8f5b 	dmb	ish
    1f6a:	e853 1f00 	ldrex	r1, [r3]
    1f6e:	2901      	cmp	r1, #1
    1f70:	d103      	bne.n	1f7a <mutex_unlock_platform+0x22>
    1f72:	e843 2000 	strex	r0, r2, [r3]
    1f76:	2800      	cmp	r0, #0
    1f78:	d1f7      	bne.n	1f6a <mutex_unlock_platform+0x12>
    1f7a:	f3bf 8f5b 	dmb	ish
    {
    case NRF_CC3XX_PLATFORM_MUTEX_MASK_IS_ATOMIC:
        return atomic_cas((atomic_t *)mutex->mutex, 1, 0) ?
                       NRF_CC3XX_PLATFORM_SUCCESS :
    1f7e:	4807      	ldr	r0, [pc, #28]	; (1f9c <mutex_unlock_platform+0x44>)
    1f80:	bf08      	it	eq
    1f82:	4610      	moveq	r0, r2
        p_mutex = (struct k_mutex *)mutex->mutex;

        k_mutex_unlock(p_mutex);
        return NRF_CC3XX_PLATFORM_SUCCESS;
    }
}
    1f84:	bd08      	pop	{r3, pc}
        if (mutex->flags == NRF_CC3XX_PLATFORM_MUTEX_MASK_INVALID) {
    1f86:	b13b      	cbz	r3, 1f98 <mutex_unlock_platform+0x40>
        p_mutex = (struct k_mutex *)mutex->mutex;
    1f88:	6800      	ldr	r0, [r0, #0]
	return z_impl_k_mutex_unlock(mutex);
    1f8a:	f003 f931 	bl	51f0 <z_impl_k_mutex_unlock>
        return NRF_CC3XX_PLATFORM_SUCCESS;
    1f8e:	2000      	movs	r0, #0
    1f90:	e7f8      	b.n	1f84 <mutex_unlock_platform+0x2c>
        return NRF_CC3XX_PLATFORM_ERROR_PARAM_NULL;
    1f92:	f46f 40e0 	mvn.w	r0, #28672	; 0x7000
    1f96:	e7f5      	b.n	1f84 <mutex_unlock_platform+0x2c>
            return NRF_CC3XX_PLATFORM_ERROR_MUTEX_NOT_INITIALIZED;
    1f98:	4801      	ldr	r0, [pc, #4]	; (1fa0 <mutex_unlock_platform+0x48>)
    1f9a:	e7f3      	b.n	1f84 <mutex_unlock_platform+0x2c>
    1f9c:	ffff8fe9 	.word	0xffff8fe9
    1fa0:	ffff8fea 	.word	0xffff8fea

00001fa4 <mutex_free_platform>:
static void mutex_free_platform(nrf_cc3xx_platform_mutex_t *mutex) {
    1fa4:	b510      	push	{r4, lr}
    if (mutex == NULL) {
    1fa6:	4604      	mov	r4, r0
    1fa8:	b918      	cbnz	r0, 1fb2 <mutex_free_platform+0xe>
        platform_abort_apis.abort_fn(
    1faa:	4b0d      	ldr	r3, [pc, #52]	; (1fe0 <mutex_free_platform+0x3c>)
    1fac:	480d      	ldr	r0, [pc, #52]	; (1fe4 <mutex_free_platform+0x40>)
    1fae:	685b      	ldr	r3, [r3, #4]
    1fb0:	4798      	blx	r3
    if (mutex->flags == NRF_CC3XX_PLATFORM_MUTEX_MASK_IS_ATOMIC ||
    1fb2:	6861      	ldr	r1, [r4, #4]
    1fb4:	2908      	cmp	r1, #8
    1fb6:	d00d      	beq.n	1fd4 <mutex_free_platform+0x30>
    if (mutex->flags == NRF_CC3XX_PLATFORM_MUTEX_MASK_INVALID) {
    1fb8:	f031 0304 	bics.w	r3, r1, #4
    1fbc:	d00a      	beq.n	1fd4 <mutex_free_platform+0x30>
    if ((mutex->flags & NRF_CC3XX_PLATFORM_MUTEX_MASK_IS_ALLOCATED) != 0) {
    1fbe:	f011 0102 	ands.w	r1, r1, #2
    1fc2:	d008      	beq.n	1fd6 <mutex_free_platform+0x32>
        k_mem_slab_free(&mutex_slab, &mutex->mutex);
    1fc4:	4808      	ldr	r0, [pc, #32]	; (1fe8 <mutex_free_platform+0x44>)
    1fc6:	4621      	mov	r1, r4
    1fc8:	f005 f947 	bl	725a <k_mem_slab_free>
        mutex->mutex = NULL;
    1fcc:	2300      	movs	r3, #0
    1fce:	6023      	str	r3, [r4, #0]
    mutex->flags = NRF_CC3XX_PLATFORM_MUTEX_MASK_INVALID;
    1fd0:	2300      	movs	r3, #0
    1fd2:	6063      	str	r3, [r4, #4]
}
    1fd4:	bd10      	pop	{r4, pc}
        memset(mutex->mutex, 0, sizeof(struct k_mutex));
    1fd6:	6820      	ldr	r0, [r4, #0]
    1fd8:	2214      	movs	r2, #20
    1fda:	f004 fd77 	bl	6acc <memset>
    1fde:	e7f7      	b.n	1fd0 <mutex_free_platform+0x2c>
    1fe0:	200001b4 	.word	0x200001b4
    1fe4:	00007ce6 	.word	0x00007ce6
    1fe8:	20000678 	.word	0x20000678

00001fec <mutex_init_platform>:
static void mutex_init_platform(nrf_cc3xx_platform_mutex_t *mutex) {
    1fec:	b510      	push	{r4, lr}
    if (mutex == NULL) {
    1fee:	4604      	mov	r4, r0
    1ff0:	b918      	cbnz	r0, 1ffa <mutex_init_platform+0xe>
        platform_abort_apis.abort_fn(
    1ff2:	4b16      	ldr	r3, [pc, #88]	; (204c <mutex_init_platform+0x60>)
    1ff4:	4816      	ldr	r0, [pc, #88]	; (2050 <mutex_init_platform+0x64>)
    1ff6:	685b      	ldr	r3, [r3, #4]
    1ff8:	4798      	blx	r3
    if (mutex->flags == NRF_CC3XX_PLATFORM_MUTEX_MASK_IS_ATOMIC ||
    1ffa:	6863      	ldr	r3, [r4, #4]
    1ffc:	2b04      	cmp	r3, #4
    1ffe:	d023      	beq.n	2048 <mutex_init_platform+0x5c>
    2000:	2b08      	cmp	r3, #8
    2002:	d021      	beq.n	2048 <mutex_init_platform+0x5c>
    if (mutex->flags == NRF_CC3XX_PLATFORM_MUTEX_MASK_INVALID &&
    2004:	b9cb      	cbnz	r3, 203a <mutex_init_platform+0x4e>
    2006:	6823      	ldr	r3, [r4, #0]
    2008:	b9bb      	cbnz	r3, 203a <mutex_init_platform+0x4e>
        ret = k_mem_slab_alloc(&mutex_slab, &mutex->mutex, K_FOREVER);
    200a:	4812      	ldr	r0, [pc, #72]	; (2054 <mutex_init_platform+0x68>)
    200c:	f04f 32ff 	mov.w	r2, #4294967295
    2010:	f04f 33ff 	mov.w	r3, #4294967295
    2014:	4621      	mov	r1, r4
    2016:	f003 f83d 	bl	5094 <k_mem_slab_alloc>
        if(ret != 0 || mutex->mutex == NULL)
    201a:	b908      	cbnz	r0, 2020 <mutex_init_platform+0x34>
    201c:	6823      	ldr	r3, [r4, #0]
    201e:	b91b      	cbnz	r3, 2028 <mutex_init_platform+0x3c>
            platform_abort_apis.abort_fn(
    2020:	4b0a      	ldr	r3, [pc, #40]	; (204c <mutex_init_platform+0x60>)
    2022:	480d      	ldr	r0, [pc, #52]	; (2058 <mutex_init_platform+0x6c>)
    2024:	685b      	ldr	r3, [r3, #4]
    2026:	4798      	blx	r3
        memset(mutex->mutex, 0, sizeof(struct k_mutex));
    2028:	6820      	ldr	r0, [r4, #0]
    202a:	2214      	movs	r2, #20
    202c:	2100      	movs	r1, #0
    202e:	f004 fd4d 	bl	6acc <memset>
        mutex->flags |= NRF_CC3XX_PLATFORM_MUTEX_MASK_IS_ALLOCATED;
    2032:	6863      	ldr	r3, [r4, #4]
    2034:	f043 0302 	orr.w	r3, r3, #2
    2038:	6063      	str	r3, [r4, #4]
    p_mutex = (struct k_mutex *)mutex->mutex;
    203a:	6820      	ldr	r0, [r4, #0]
	return z_impl_k_mutex_init(mutex);
    203c:	f005 f936 	bl	72ac <z_impl_k_mutex_init>
    mutex->flags |= NRF_CC3XX_PLATFORM_MUTEX_MASK_IS_VALID;
    2040:	6863      	ldr	r3, [r4, #4]
    2042:	f043 0301 	orr.w	r3, r3, #1
    2046:	6063      	str	r3, [r4, #4]
}
    2048:	bd10      	pop	{r4, pc}
    204a:	bf00      	nop
    204c:	200001b4 	.word	0x200001b4
    2050:	00007ce6 	.word	0x00007ce6
    2054:	20000678 	.word	0x20000678
    2058:	00007d0c 	.word	0x00007d0c

0000205c <mutex_lock_platform>:
static int32_t mutex_lock_platform(nrf_cc3xx_platform_mutex_t *mutex) {
    205c:	b508      	push	{r3, lr}
    if(mutex == NULL) {
    205e:	b308      	cbz	r0, 20a4 <mutex_lock_platform+0x48>
    switch (mutex->flags) {
    2060:	6843      	ldr	r3, [r0, #4]
    2062:	2b04      	cmp	r3, #4
    2064:	d110      	bne.n	2088 <mutex_lock_platform+0x2c>
    2066:	2201      	movs	r2, #1
    2068:	6803      	ldr	r3, [r0, #0]
    206a:	f3bf 8f5b 	dmb	ish
    206e:	e853 1f00 	ldrex	r1, [r3]
    2072:	2900      	cmp	r1, #0
    2074:	d103      	bne.n	207e <mutex_lock_platform+0x22>
    2076:	e843 2000 	strex	r0, r2, [r3]
    207a:	2800      	cmp	r0, #0
    207c:	d1f7      	bne.n	206e <mutex_lock_platform+0x12>
    207e:	f3bf 8f5b 	dmb	ish
                       NRF_CC3XX_PLATFORM_SUCCESS :
    2082:	d10b      	bne.n	209c <mutex_lock_platform+0x40>
    2084:	2000      	movs	r0, #0
}
    2086:	bd08      	pop	{r3, pc}
        if (mutex->flags == NRF_CC3XX_PLATFORM_MUTEX_MASK_INVALID) {
    2088:	b153      	cbz	r3, 20a0 <mutex_lock_platform+0x44>
        p_mutex = (struct k_mutex *)mutex->mutex;
    208a:	6800      	ldr	r0, [r0, #0]
	return z_impl_k_mutex_lock(mutex, timeout);
    208c:	f04f 32ff 	mov.w	r2, #4294967295
    2090:	f04f 33ff 	mov.w	r3, #4294967295
    2094:	f003 f82e 	bl	50f4 <z_impl_k_mutex_lock>
        if (ret == 0) {
    2098:	2800      	cmp	r0, #0
    209a:	d0f3      	beq.n	2084 <mutex_lock_platform+0x28>
                       NRF_CC3XX_PLATFORM_SUCCESS :
    209c:	4803      	ldr	r0, [pc, #12]	; (20ac <mutex_lock_platform+0x50>)
    209e:	e7f2      	b.n	2086 <mutex_lock_platform+0x2a>
            return NRF_CC3XX_PLATFORM_ERROR_MUTEX_NOT_INITIALIZED;
    20a0:	4803      	ldr	r0, [pc, #12]	; (20b0 <mutex_lock_platform+0x54>)
    20a2:	e7f0      	b.n	2086 <mutex_lock_platform+0x2a>
        return NRF_CC3XX_PLATFORM_ERROR_PARAM_NULL;
    20a4:	f46f 40e0 	mvn.w	r0, #28672	; 0x7000
    20a8:	e7ed      	b.n	2086 <mutex_lock_platform+0x2a>
    20aa:	bf00      	nop
    20ac:	ffff8fe9 	.word	0xffff8fe9
    20b0:	ffff8fea 	.word	0xffff8fea

000020b4 <nrf_cc3xx_platform_mutex_init>:
};

/** @brief Function to initialize the nrf_cc3xx_platform mutex APIs
 */
void nrf_cc3xx_platform_mutex_init(void)
{
    20b4:	b508      	push	{r3, lr}
    k_mem_slab_init(&mutex_slab,
    20b6:	4906      	ldr	r1, [pc, #24]	; (20d0 <nrf_cc3xx_platform_mutex_init+0x1c>)
    20b8:	4806      	ldr	r0, [pc, #24]	; (20d4 <nrf_cc3xx_platform_mutex_init+0x20>)
    20ba:	2340      	movs	r3, #64	; 0x40
    20bc:	2214      	movs	r2, #20
    20be:	f005 f8b1 	bl	7224 <k_mem_slab_init>
                mutex_slab_buffer,
                sizeof(struct k_mutex),
                NUM_MUTEXES);

    nrf_cc3xx_platform_set_mutexes(&mutex_apis, &mutexes);
}
    20c2:	e8bd 4008 	ldmia.w	sp!, {r3, lr}
    nrf_cc3xx_platform_set_mutexes(&mutex_apis, &mutexes);
    20c6:	4904      	ldr	r1, [pc, #16]	; (20d8 <nrf_cc3xx_platform_mutex_init+0x24>)
    20c8:	4804      	ldr	r0, [pc, #16]	; (20dc <nrf_cc3xx_platform_mutex_init+0x28>)
    20ca:	f004 b823 	b.w	6114 <nrf_cc3xx_platform_set_mutexes>
    20ce:	bf00      	nop
    20d0:	20000694 	.word	0x20000694
    20d4:	20000678 	.word	0x20000678
    20d8:	00007850 	.word	0x00007850
    20dc:	00007840 	.word	0x00007840

000020e0 <process_event>:
 * regions.
 */
static void process_event(struct onoff_manager *mgr,
			  int evt,
			  k_spinlock_key_t key)
{
    20e0:	e92d 4ff8 	stmdb	sp!, {r3, r4, r5, r6, r7, r8, r9, sl, fp, lr}
	sys_slist_t clients;
	uint32_t state = mgr->flags & ONOFF_STATE_MASK;
    20e4:	f8b0 9018 	ldrh.w	r9, [r0, #24]
	__ASSERT_NO_MSG(evt != EVT_NOP);

	/* If this is a nested call record the event for processing in
	 * the top invocation.
	 */
	if (processing) {
    20e8:	f019 0808 	ands.w	r8, r9, #8
{
    20ec:	4604      	mov	r4, r0
    20ee:	4693      	mov	fp, r2
	if (processing) {
    20f0:	d00d      	beq.n	210e <process_event+0x2e>
		if (evt == EVT_COMPLETE) {
    20f2:	2901      	cmp	r1, #1
			mgr->flags |= ONOFF_FLAG_COMPLETE;
    20f4:	bf0c      	ite	eq
    20f6:	f049 0910 	orreq.w	r9, r9, #16
		} else {
			__ASSERT_NO_MSG(evt == EVT_RECHECK);

			mgr->flags |= ONOFF_FLAG_RECHECK;
    20fa:	f049 0920 	orrne.w	r9, r9, #32
    20fe:	f8a0 9018 	strh.w	r9, [r0, #24]
	__asm__ volatile(
		"cpsie i;"
		"isb"
		: : : "memory");
#elif defined(CONFIG_ARMV7_M_ARMV8_M_MAINLINE)
	__asm__ volatile(
    2102:	f38b 8811 	msr	BASEPRI, fp
    2106:	f3bf 8f6f 	isb	sy
		state = mgr->flags & ONOFF_STATE_MASK;
	} while (evt != EVT_NOP);

out:
	k_spin_unlock(&mgr->lock, key);
}
    210a:	e8bd 8ff8 	ldmia.w	sp!, {r3, r4, r5, r6, r7, r8, r9, sl, fp, pc}
	uint32_t state = mgr->flags & ONOFF_STATE_MASK;
    210e:	f009 0907 	and.w	r9, r9, #7
		if (evt == EVT_RECHECK) {
    2112:	2902      	cmp	r1, #2
    2114:	d107      	bne.n	2126 <process_event+0x46>
			evt = process_recheck(mgr);
    2116:	4620      	mov	r0, r4
    2118:	f004 fa3f 	bl	659a <process_recheck>
		if (evt == EVT_NOP) {
    211c:	2800      	cmp	r0, #0
    211e:	d0f0      	beq.n	2102 <process_event+0x22>
		if (evt == EVT_COMPLETE) {
    2120:	2801      	cmp	r0, #1
    2122:	8b23      	ldrh	r3, [r4, #24]
    2124:	d150      	bne.n	21c8 <process_event+0xe8>
			res = mgr->last_res;
    2126:	6967      	ldr	r7, [r4, #20]
	uint32_t state = mgr->flags & ONOFF_STATE_MASK;
    2128:	8b21      	ldrh	r1, [r4, #24]
	if (res < 0) {
    212a:	2f00      	cmp	r7, #0
    212c:	da15      	bge.n	215a <process_event+0x7a>
		*clients = mgr->clients;
    212e:	6825      	ldr	r5, [r4, #0]
		     | (mgr->flags & ~ONOFF_STATE_MASK);
    2130:	f021 0107 	bic.w	r1, r1, #7
 * @param list A pointer on the list to initialize
 */
static inline void sys_slist_init(sys_slist_t *list)
{
	list->head = NULL;
	list->tail = NULL;
    2134:	e9c4 8800 	strd	r8, r8, [r4]
    2138:	f041 0101 	orr.w	r1, r1, #1
	mgr->flags = (state & ONOFF_STATE_MASK)
    213c:	8321      	strh	r1, [r4, #24]
		onoff_transition_fn transit = NULL;
    213e:	2600      	movs	r6, #0
		bool do_monitors = (state != (mgr->flags & ONOFF_STATE_MASK))
    2140:	8b21      	ldrh	r1, [r4, #24]
    2142:	f001 0a07 	and.w	sl, r1, #7
				   && !sys_slist_is_empty(&mgr->monitors);
    2146:	45ca      	cmp	sl, r9
    2148:	d002      	beq.n	2150 <process_event+0x70>
		if (do_monitors
    214a:	68a3      	ldr	r3, [r4, #8]
    214c:	2b00      	cmp	r3, #0
    214e:	d15c      	bne.n	220a <process_event+0x12a>
		    || !sys_slist_is_empty(&clients)
    2150:	b90d      	cbnz	r5, 2156 <process_event+0x76>
		    || (transit != NULL)) {
    2152:	2e00      	cmp	r6, #0
    2154:	d074      	beq.n	2240 <process_event+0x160>
    2156:	2300      	movs	r3, #0
    2158:	e058      	b.n	220c <process_event+0x12c>
	uint32_t state = mgr->flags & ONOFF_STATE_MASK;
    215a:	f001 0307 	and.w	r3, r1, #7
		   || (state == ONOFF_STATE_RESETTING)) {
    215e:	1f5a      	subs	r2, r3, #5
	} else if ((state == ONOFF_STATE_TO_ON)
    2160:	2a01      	cmp	r2, #1
    2162:	d820      	bhi.n	21a6 <process_event+0xc6>
		*clients = mgr->clients;
    2164:	f021 0107 	bic.w	r1, r1, #7
		if (state == ONOFF_STATE_TO_ON) {
    2168:	2b06      	cmp	r3, #6
		*clients = mgr->clients;
    216a:	6825      	ldr	r5, [r4, #0]
	list->head = NULL;
    216c:	b289      	uxth	r1, r1
	list->tail = NULL;
    216e:	e9c4 8800 	strd	r8, r8, [r4]
		if (state == ONOFF_STATE_TO_ON) {
    2172:	d10c      	bne.n	218e <process_event+0xae>
 *
 * @return A pointer on the first node of the list (or NULL if none)
 */
static inline sys_snode_t *sys_slist_peek_head(sys_slist_t *list)
{
	return list->head;
    2174:	2d00      	cmp	r5, #0
    2176:	462b      	mov	r3, r5
    2178:	bf38      	it	cc
    217a:	2300      	movcc	r3, #0
			SYS_SLIST_FOR_EACH_CONTAINER(clients, cp, node) {
    217c:	b12b      	cbz	r3, 218a <process_event+0xaa>
				mgr->refs += 1U;
    217e:	8b62      	ldrh	r2, [r4, #26]
 *
 * @return a pointer on the next node (or NULL if none)
 */
static inline sys_snode_t *sys_slist_peek_next_no_check(sys_snode_t *node);

Z_GENLIST_PEEK_NEXT_NO_CHECK(slist, snode)
    2180:	681b      	ldr	r3, [r3, #0]
    2182:	3201      	adds	r2, #1
    2184:	8362      	strh	r2, [r4, #26]
			SYS_SLIST_FOR_EACH_CONTAINER(clients, cp, node) {
    2186:	2b00      	cmp	r3, #0
    2188:	d1f8      	bne.n	217c <process_event+0x9c>
		     | (mgr->flags & ~ONOFF_STATE_MASK);
    218a:	f041 0102 	orr.w	r1, r1, #2
	mgr->flags = (state & ONOFF_STATE_MASK)
    218e:	8321      	strh	r1, [r4, #24]
		if (process_recheck(mgr) != EVT_NOP) {
    2190:	4620      	mov	r0, r4
    2192:	f004 fa02 	bl	659a <process_recheck>
    2196:	4606      	mov	r6, r0
    2198:	2800      	cmp	r0, #0
    219a:	d0d1      	beq.n	2140 <process_event+0x60>
			mgr->flags |= ONOFF_FLAG_RECHECK;
    219c:	8b23      	ldrh	r3, [r4, #24]
    219e:	f043 0320 	orr.w	r3, r3, #32
    21a2:	8323      	strh	r3, [r4, #24]
    21a4:	e7cb      	b.n	213e <process_event+0x5e>
	} else if (state == ONOFF_STATE_TO_OFF) {
    21a6:	2b04      	cmp	r3, #4
    21a8:	d10c      	bne.n	21c4 <process_event+0xe4>
		     | (mgr->flags & ~ONOFF_STATE_MASK);
    21aa:	f021 0107 	bic.w	r1, r1, #7
    21ae:	b289      	uxth	r1, r1
	mgr->flags = (state & ONOFF_STATE_MASK)
    21b0:	8321      	strh	r1, [r4, #24]
		if (process_recheck(mgr) != EVT_NOP) {
    21b2:	4620      	mov	r0, r4
    21b4:	f004 f9f1 	bl	659a <process_recheck>
    21b8:	4605      	mov	r5, r0
    21ba:	2800      	cmp	r0, #0
    21bc:	d0bf      	beq.n	213e <process_event+0x5e>
			mgr->flags |= ONOFF_FLAG_RECHECK;
    21be:	f041 0120 	orr.w	r1, r1, #32
    21c2:	8321      	strh	r1, [r4, #24]
    21c4:	2500      	movs	r5, #0
    21c6:	e7ba      	b.n	213e <process_event+0x5e>
		} else if (evt == EVT_START) {
    21c8:	2803      	cmp	r0, #3
    21ca:	d109      	bne.n	21e0 <process_event+0x100>
			transit = mgr->transitions->start;
    21cc:	6922      	ldr	r2, [r4, #16]
		     | (mgr->flags & ~ONOFF_STATE_MASK);
    21ce:	f023 0307 	bic.w	r3, r3, #7
			transit = mgr->transitions->start;
    21d2:	6816      	ldr	r6, [r2, #0]
		     | (mgr->flags & ~ONOFF_STATE_MASK);
    21d4:	f043 0306 	orr.w	r3, r3, #6
	mgr->flags = (state & ONOFF_STATE_MASK)
    21d8:	8323      	strh	r3, [r4, #24]
}
    21da:	2500      	movs	r5, #0
		res = 0;
    21dc:	462f      	mov	r7, r5
    21de:	e7af      	b.n	2140 <process_event+0x60>
		} else if (evt == EVT_STOP) {
    21e0:	2804      	cmp	r0, #4
    21e2:	d106      	bne.n	21f2 <process_event+0x112>
			transit = mgr->transitions->stop;
    21e4:	6922      	ldr	r2, [r4, #16]
		     | (mgr->flags & ~ONOFF_STATE_MASK);
    21e6:	f023 0307 	bic.w	r3, r3, #7
			transit = mgr->transitions->stop;
    21ea:	6856      	ldr	r6, [r2, #4]
		     | (mgr->flags & ~ONOFF_STATE_MASK);
    21ec:	f043 0304 	orr.w	r3, r3, #4
    21f0:	e7f2      	b.n	21d8 <process_event+0xf8>
		} else if (evt == EVT_RESET) {
    21f2:	2805      	cmp	r0, #5
    21f4:	d106      	bne.n	2204 <process_event+0x124>
			transit = mgr->transitions->reset;
    21f6:	6922      	ldr	r2, [r4, #16]
		     | (mgr->flags & ~ONOFF_STATE_MASK);
    21f8:	f023 0307 	bic.w	r3, r3, #7
			transit = mgr->transitions->reset;
    21fc:	6896      	ldr	r6, [r2, #8]
		     | (mgr->flags & ~ONOFF_STATE_MASK);
    21fe:	f043 0305 	orr.w	r3, r3, #5
    2202:	e7e9      	b.n	21d8 <process_event+0xf8>
    2204:	2500      	movs	r5, #0
		onoff_transition_fn transit = NULL;
    2206:	462e      	mov	r6, r5
    2208:	e7e8      	b.n	21dc <process_event+0xfc>
				   && !sys_slist_is_empty(&mgr->monitors);
    220a:	2301      	movs	r3, #1
			uint32_t flags = mgr->flags | ONOFF_FLAG_PROCESSING;
    220c:	f041 0108 	orr.w	r1, r1, #8
			mgr->flags = flags;
    2210:	8321      	strh	r1, [r4, #24]
    2212:	f38b 8811 	msr	BASEPRI, fp
    2216:	f3bf 8f6f 	isb	sy
			if (do_monitors) {
    221a:	bb03      	cbnz	r3, 225e <process_event+0x17e>
	while (!sys_slist_is_empty(list)) {
    221c:	2d00      	cmp	r5, #0
    221e:	d133      	bne.n	2288 <process_event+0x1a8>
			if (transit != NULL) {
    2220:	b116      	cbz	r6, 2228 <process_event+0x148>
				transit(mgr, transition_complete);
    2222:	4921      	ldr	r1, [pc, #132]	; (22a8 <process_event+0x1c8>)
    2224:	4620      	mov	r0, r4
    2226:	47b0      	blx	r6
	__asm__ volatile(
    2228:	f04f 0320 	mov.w	r3, #32
    222c:	f3ef 8b11 	mrs	fp, BASEPRI
    2230:	f383 8812 	msr	BASEPRI_MAX, r3
    2234:	f3bf 8f6f 	isb	sy
			mgr->flags &= ~ONOFF_FLAG_PROCESSING;
    2238:	8b23      	ldrh	r3, [r4, #24]
    223a:	f023 0308 	bic.w	r3, r3, #8
    223e:	8323      	strh	r3, [r4, #24]
		if ((mgr->flags & ONOFF_FLAG_COMPLETE) != 0) {
    2240:	8b23      	ldrh	r3, [r4, #24]
    2242:	06da      	lsls	r2, r3, #27
    2244:	d528      	bpl.n	2298 <process_event+0x1b8>
			mgr->flags &= ~ONOFF_FLAG_COMPLETE;
    2246:	f023 0310 	bic.w	r3, r3, #16
    224a:	8323      	strh	r3, [r4, #24]
			evt = EVT_COMPLETE;
    224c:	2101      	movs	r1, #1
		state = mgr->flags & ONOFF_STATE_MASK;
    224e:	f8b4 9018 	ldrh.w	r9, [r4, #24]
    2252:	f009 0907 	and.w	r9, r9, #7
	} while (evt != EVT_NOP);
    2256:	2900      	cmp	r1, #0
    2258:	f47f af5b 	bne.w	2112 <process_event+0x32>
out:
    225c:	e751      	b.n	2102 <process_event+0x22>
	SYS_SLIST_FOR_EACH_CONTAINER_SAFE(mlist, mon, tmp, node) {
    225e:	68a1      	ldr	r1, [r4, #8]
    2260:	2900      	cmp	r1, #0
    2262:	d0db      	beq.n	221c <process_event+0x13c>
	return node->next;
    2264:	680b      	ldr	r3, [r1, #0]
		mon->callback(mgr, mon, state, res);
    2266:	f8d1 b004 	ldr.w	fp, [r1, #4]
    226a:	2b00      	cmp	r3, #0
    226c:	bf38      	it	cc
    226e:	2300      	movcc	r3, #0
    2270:	4699      	mov	r9, r3
    2272:	4652      	mov	r2, sl
    2274:	463b      	mov	r3, r7
    2276:	4620      	mov	r0, r4
    2278:	47d8      	blx	fp
	SYS_SLIST_FOR_EACH_CONTAINER_SAFE(mlist, mon, tmp, node) {
    227a:	f1b9 0f00 	cmp.w	r9, #0
    227e:	d0cd      	beq.n	221c <process_event+0x13c>
    2280:	f8d9 3000 	ldr.w	r3, [r9]
Z_GENLIST_PEEK_NEXT_NO_CHECK(slist, snode)
    2284:	4649      	mov	r1, r9
    2286:	e7ee      	b.n	2266 <process_event+0x186>
 *
 * @return A pointer to the first node of the list
 */
static inline sys_snode_t *sys_slist_get_not_empty(sys_slist_t *list);

Z_GENLIST_GET_NOT_EMPTY(slist, snode)
    2288:	4629      	mov	r1, r5
		notify_one(mgr, cli, state, res);
    228a:	463b      	mov	r3, r7
    228c:	4652      	mov	r2, sl
    228e:	4620      	mov	r0, r4
    2290:	682d      	ldr	r5, [r5, #0]
    2292:	f004 f99e 	bl	65d2 <notify_one>
    2296:	e7c1      	b.n	221c <process_event+0x13c>
		} else if ((mgr->flags & ONOFF_FLAG_RECHECK) != 0) {
    2298:	f013 0120 	ands.w	r1, r3, #32
			mgr->flags &= ~ONOFF_FLAG_RECHECK;
    229c:	bf1e      	ittt	ne
    229e:	f023 0320 	bicne.w	r3, r3, #32
    22a2:	8323      	strhne	r3, [r4, #24]
			evt = EVT_RECHECK;
    22a4:	2102      	movne	r1, #2
    22a6:	e7d2      	b.n	224e <process_event+0x16e>
    22a8:	000065ff 	.word	0x000065ff

000022ac <pm_state_notify>:
/*
 * Function called to notify when the system is entering / exiting a
 * power state
 */
static inline void pm_state_notify(bool entering_state)
{
    22ac:	e92d 43f8 	stmdb	sp!, {r3, r4, r5, r6, r7, r8, r9, lr}
    22b0:	4605      	mov	r5, r0
    22b2:	f04f 0320 	mov.w	r3, #32
    22b6:	f3ef 8611 	mrs	r6, BASEPRI
    22ba:	f383 8812 	msr	BASEPRI_MAX, r3
    22be:	f3bf 8f6f 	isb	sy
	struct pm_notifier *notifier;
	k_spinlock_key_t pm_notifier_key;
	void (*callback)(enum pm_state state);

	pm_notifier_key = k_spin_lock(&pm_notifier_lock);
	SYS_SLIST_FOR_EACH_CONTAINER(&pm_notifiers, notifier, _node) {
    22c2:	4b10      	ldr	r3, [pc, #64]	; (2304 <pm_state_notify+0x58>)
    22c4:	681c      	ldr	r4, [r3, #0]
    22c6:	2c00      	cmp	r4, #0
    22c8:	bf38      	it	cc
    22ca:	2400      	movcc	r4, #0
    22cc:	b19c      	cbz	r4, 22f6 <pm_state_notify+0x4a>
		} else {
			callback = notifier->state_exit;
		}

		if (callback) {
			callback(z_power_states[_current_cpu->id].state);
    22ce:	4f0e      	ldr	r7, [pc, #56]	; (2308 <pm_state_notify+0x5c>)
    22d0:	f8df 8038 	ldr.w	r8, [pc, #56]	; 230c <pm_state_notify+0x60>
    22d4:	f04f 090c 	mov.w	r9, #12
			callback = notifier->state_exit;
    22d8:	e9d4 3201 	ldrd	r3, r2, [r4, #4]
    22dc:	2d00      	cmp	r5, #0
    22de:	bf08      	it	eq
    22e0:	4613      	moveq	r3, r2
		if (callback) {
    22e2:	b12b      	cbz	r3, 22f0 <pm_state_notify+0x44>
			callback(z_power_states[_current_cpu->id].state);
    22e4:	f898 2014 	ldrb.w	r2, [r8, #20]
    22e8:	fb09 f202 	mul.w	r2, r9, r2
    22ec:	5cb8      	ldrb	r0, [r7, r2]
    22ee:	4798      	blx	r3
Z_GENLIST_PEEK_NEXT_NO_CHECK(slist, snode)
    22f0:	6824      	ldr	r4, [r4, #0]
	SYS_SLIST_FOR_EACH_CONTAINER(&pm_notifiers, notifier, _node) {
    22f2:	2c00      	cmp	r4, #0
    22f4:	d1f0      	bne.n	22d8 <pm_state_notify+0x2c>
	__asm__ volatile(
    22f6:	f386 8811 	msr	BASEPRI, r6
    22fa:	f3bf 8f6f 	isb	sy
		}
	}
	k_spin_unlock(&pm_notifier_lock, pm_notifier_key);
}
    22fe:	e8bd 83f8 	ldmia.w	sp!, {r3, r4, r5, r6, r7, r8, r9, pc}
    2302:	bf00      	nop
    2304:	20000b94 	.word	0x20000b94
    2308:	20000ba0 	.word	0x20000ba0
    230c:	20000c70 	.word	0x20000c70

00002310 <atomic_test_and_set_bit.constprop.0>:
 *
 * @return true if the bit was set, false if it wasn't.
 */
static inline bool atomic_test_and_set_bit(atomic_t *target, int bit)
{
	atomic_val_t mask = ATOMIC_MASK(bit);
    2310:	f000 031f 	and.w	r3, r0, #31
    2314:	2201      	movs	r2, #1
    2316:	409a      	lsls	r2, r3
 *
 * @return Previous value of @a target.
 */
static inline atomic_val_t atomic_or(atomic_t *target, atomic_val_t value)
{
	return __atomic_fetch_or(target, value, __ATOMIC_SEQ_CST);
    2318:	4b0a      	ldr	r3, [pc, #40]	; (2344 <atomic_test_and_set_bit.constprop.0+0x34>)
    231a:	f3bf 8f5b 	dmb	ish
	atomic_val_t old;

	old = atomic_or(ATOMIC_ELEM(target, bit), mask);
    231e:	0940      	lsrs	r0, r0, #5
    2320:	eb03 0080 	add.w	r0, r3, r0, lsl #2
    2324:	e850 3f00 	ldrex	r3, [r0]
    2328:	ea43 0102 	orr.w	r1, r3, r2
    232c:	e840 1c00 	strex	ip, r1, [r0]
    2330:	f1bc 0f00 	cmp.w	ip, #0
    2334:	d1f6      	bne.n	2324 <atomic_test_and_set_bit.constprop.0+0x14>
    2336:	f3bf 8f5b 	dmb	ish

	return (old & mask) != 0;
    233a:	421a      	tst	r2, r3
}
    233c:	bf14      	ite	ne
    233e:	2001      	movne	r0, #1
    2340:	2000      	moveq	r0, #0
    2342:	4770      	bx	lr
    2344:	20000bac 	.word	0x20000bac

00002348 <pm_system_resume>:

void pm_system_resume(void)
{
    2348:	b530      	push	{r4, r5, lr}
	uint8_t id = _current_cpu->id;
    234a:	4b1d      	ldr	r3, [pc, #116]	; (23c0 <pm_system_resume+0x78>)
    234c:	7d1d      	ldrb	r5, [r3, #20]
 *
 * @return Previous value of @a target.
 */
static inline atomic_val_t atomic_and(atomic_t *target, atomic_val_t value)
{
	return __atomic_fetch_and(target, value, __ATOMIC_SEQ_CST);
    234e:	f3bf 8f5b 	dmb	ish
	atomic_val_t mask = ATOMIC_MASK(bit);
    2352:	f005 031f 	and.w	r3, r5, #31
    2356:	2201      	movs	r2, #1
    2358:	409a      	lsls	r2, r3
    235a:	4b1a      	ldr	r3, [pc, #104]	; (23c4 <pm_system_resume+0x7c>)
	old = atomic_and(ATOMIC_ELEM(target, bit), ~mask);
    235c:	0969      	lsrs	r1, r5, #5
{
    235e:	b085      	sub	sp, #20
    2360:	43d0      	mvns	r0, r2
    2362:	eb03 0381 	add.w	r3, r3, r1, lsl #2
    2366:	e853 1f00 	ldrex	r1, [r3]
    236a:	ea01 0400 	and.w	r4, r1, r0
    236e:	e843 4c00 	strex	ip, r4, [r3]
    2372:	f1bc 0f00 	cmp.w	ip, #0
    2376:	d1f6      	bne.n	2366 <pm_system_resume+0x1e>
    2378:	f3bf 8f5b 	dmb	ish
	 * that caused the wake. This hook will be called from the ISR.
	 * For such CPU LPS states, do post operations and restores here.
	 * The kernel scheduler will get control after the ISR finishes
	 * and it may schedule another thread.
	 */
	if (atomic_test_and_clear_bit(z_post_ops_required, id)) {
    237c:	4211      	tst	r1, r2
    237e:	d017      	beq.n	23b0 <pm_system_resume+0x68>
		exit_pos_ops(z_power_states[id]);
    2380:	4c11      	ldr	r4, [pc, #68]	; (23c8 <pm_system_resume+0x80>)
    2382:	220c      	movs	r2, #12
    2384:	fb02 4205 	mla	r2, r2, r5, r4
    2388:	ca07      	ldmia	r2, {r0, r1, r2}
    238a:	ab01      	add	r3, sp, #4
    238c:	e883 0007 	stmia.w	r3, {r0, r1, r2}
	if (pm_power_state_exit_post_ops != NULL) {
    2390:	4a0e      	ldr	r2, [pc, #56]	; (23cc <pm_system_resume+0x84>)
    2392:	b17a      	cbz	r2, 23b4 <pm_system_resume+0x6c>
		pm_power_state_exit_post_ops(info);
    2394:	e893 0007 	ldmia.w	r3, {r0, r1, r2}
    2398:	f004 fbb4 	bl	6b04 <pm_power_state_exit_post_ops>
		pm_state_notify(false);
    239c:	2000      	movs	r0, #0
    239e:	f7ff ff85 	bl	22ac <pm_state_notify>
		z_power_states[id] = (struct pm_state_info){PM_STATE_ACTIVE,
    23a2:	230c      	movs	r3, #12
    23a4:	436b      	muls	r3, r5
    23a6:	2200      	movs	r2, #0
    23a8:	18e1      	adds	r1, r4, r3
    23aa:	50e2      	str	r2, [r4, r3]
    23ac:	e9c1 2201 	strd	r2, r2, [r1, #4]
			0, 0};
	}
}
    23b0:	b005      	add	sp, #20
    23b2:	bd30      	pop	{r4, r5, pc}
    23b4:	f382 8811 	msr	BASEPRI, r2
    23b8:	f3bf 8f6f 	isb	sy
		"cpsie i;"
		: : : "memory", "cc");
#else
#error Unknown ARM architecture
#endif /* CONFIG_ARMV6_M_ARMV8_M_BASELINE */
}
    23bc:	e7ee      	b.n	239c <pm_system_resume+0x54>
    23be:	bf00      	nop
    23c0:	20000c70 	.word	0x20000c70
    23c4:	20000b9c 	.word	0x20000b9c
    23c8:	20000ba0 	.word	0x20000ba0
    23cc:	00006b05 	.word	0x00006b05

000023d0 <pm_system_suspend>:

	return ret;
}

bool pm_system_suspend(int32_t ticks)
{
    23d0:	e92d 41f0 	stmdb	sp!, {r4, r5, r6, r7, r8, lr}
	bool ret = true;
	uint8_t id = _current_cpu->id;
    23d4:	4b37      	ldr	r3, [pc, #220]	; (24b4 <pm_system_suspend+0xe4>)
    23d6:	f8df 80f4 	ldr.w	r8, [pc, #244]	; 24cc <pm_system_suspend+0xfc>
    23da:	7d1c      	ldrb	r4, [r3, #20]
{
    23dc:	b088      	sub	sp, #32
    23de:	4607      	mov	r7, r0

	SYS_PORT_TRACING_FUNC_ENTER(pm, system_suspend, ticks);

	if (!atomic_test_and_set_bit(z_power_states_forced, id)) {
    23e0:	4620      	mov	r0, r4
    23e2:	f7ff ff95 	bl	2310 <atomic_test_and_set_bit.constprop.0>
    23e6:	b960      	cbnz	r0, 2402 <pm_system_suspend+0x32>
		z_power_states[id] = pm_policy_next_state(id, ticks);
    23e8:	466e      	mov	r6, sp
    23ea:	463a      	mov	r2, r7
    23ec:	4621      	mov	r1, r4
    23ee:	4630      	mov	r0, r6
    23f0:	f004 f98d 	bl	670e <pm_policy_next_state>
    23f4:	e896 0007 	ldmia.w	r6, {r0, r1, r2}
    23f8:	250c      	movs	r5, #12
    23fa:	fb05 8504 	mla	r5, r5, r4, r8
    23fe:	e885 0007 	stmia.w	r5, {r0, r1, r2}
	}

	if (z_power_states[id].state == PM_STATE_ACTIVE) {
    2402:	230c      	movs	r3, #12
    2404:	4363      	muls	r3, r4
    2406:	eb08 0203 	add.w	r2, r8, r3
    240a:	f818 0003 	ldrb.w	r0, [r8, r3]
    240e:	0965      	lsrs	r5, r4, #5
    2410:	f004 061f 	and.w	r6, r4, #31
    2414:	b3c8      	cbz	r0, 248a <pm_system_suspend+0xba>
				   z_power_states[id].state);
		ret = false;
		goto end;
	}

	if (ticks != K_TICKS_FOREVER) {
    2416:	1c7b      	adds	r3, r7, #1
    2418:	d00f      	beq.n	243a <pm_system_suspend+0x6a>
		} else {
			return t * ((uint64_t)to_hz / from_hz);
		}
	} else {
		if (result32) {
			return (uint32_t)((t * to_hz + off) / from_hz);
    241a:	f8d2 e008 	ldr.w	lr, [r2, #8]
    241e:	4826      	ldr	r0, [pc, #152]	; (24b8 <pm_system_suspend+0xe8>)
    2420:	4a26      	ldr	r2, [pc, #152]	; (24bc <pm_system_suspend+0xec>)
    2422:	f44f 4c00 	mov.w	ip, #32768	; 0x8000
    2426:	2100      	movs	r1, #0
    2428:	2300      	movs	r3, #0
    242a:	fbec 010e 	umlal	r0, r1, ip, lr
    242e:	f7fe fc3f 	bl	cb0 <__aeabi_uldivmod>
		/*
		 * We need to set the timer to interrupt a little bit early to
		 * accommodate the time required by the CPU to fully wake up.
		 */
		z_set_timeout_expiry(ticks -
    2432:	2101      	movs	r1, #1
    2434:	1a38      	subs	r0, r7, r0
    2436:	f005 f846 	bl	74c6 <z_set_timeout_expiry>
	 * state. We don't want to be scheduled out yet, first we need
	 * to send a notification about leaving the idle state. So,
	 * we lock the scheduler here and unlock just after we have
	 * sent the notification in pm_system_resume().
	 */
	k_sched_lock();
    243a:	f002 ff79 	bl	5330 <k_sched_lock>
	pm_stats_start();
	/* Enter power state */
	pm_state_notify(true);
    243e:	2001      	movs	r0, #1
    2440:	f7ff ff34 	bl	22ac <pm_state_notify>
	return __atomic_fetch_or(target, value, __ATOMIC_SEQ_CST);
    2444:	f3bf 8f5b 	dmb	ish
    2448:	4b1d      	ldr	r3, [pc, #116]	; (24c0 <pm_system_suspend+0xf0>)
 *
 * @return N/A
 */
static inline void atomic_set_bit(atomic_t *target, int bit)
{
	atomic_val_t mask = ATOMIC_MASK(bit);
    244a:	2201      	movs	r2, #1
    244c:	40b2      	lsls	r2, r6
    244e:	eb03 0385 	add.w	r3, r3, r5, lsl #2
    2452:	e853 1f00 	ldrex	r1, [r3]
    2456:	4311      	orrs	r1, r2
    2458:	e843 1000 	strex	r0, r1, [r3]
    245c:	2800      	cmp	r0, #0
    245e:	d1f8      	bne.n	2452 <pm_system_suspend+0x82>
    2460:	f3bf 8f5b 	dmb	ish
	atomic_set_bit(z_post_ops_required, id);
	pm_state_set(z_power_states[id]);
    2464:	230c      	movs	r3, #12
    2466:	fb03 8404 	mla	r4, r3, r4, r8
    246a:	e894 0007 	ldmia.w	r4, {r0, r1, r2}
    246e:	ab05      	add	r3, sp, #20
    2470:	e883 0007 	stmia.w	r3, {r0, r1, r2}
	if (pm_power_state_set != NULL) {
    2474:	4a13      	ldr	r2, [pc, #76]	; (24c4 <pm_system_suspend+0xf4>)
    2476:	b11a      	cbz	r2, 2480 <pm_system_suspend+0xb0>
		pm_power_state_set(info);
    2478:	e893 0007 	ldmia.w	r3, {r0, r1, r2}
    247c:	f004 fb2f 	bl	6ade <pm_power_state_set>
	if (atomic_add(&z_cpus_active, 1) == 0) {
		pm_resume_devices();
	}
#endif
	pm_stats_update(z_power_states[id].state);
	pm_system_resume();
    2480:	f7ff ff62 	bl	2348 <pm_system_resume>
	k_sched_unlock();
    2484:	f003 f92e 	bl	56e4 <k_sched_unlock>
	bool ret = true;
    2488:	2001      	movs	r0, #1
	return __atomic_fetch_and(target, value, __ATOMIC_SEQ_CST);
    248a:	4a0f      	ldr	r2, [pc, #60]	; (24c8 <pm_system_suspend+0xf8>)
    248c:	f3bf 8f5b 	dmb	ish
	atomic_val_t mask = ATOMIC_MASK(bit);
    2490:	2301      	movs	r3, #1
    2492:	40b3      	lsls	r3, r6
	(void)atomic_and(ATOMIC_ELEM(target, bit), ~mask);
    2494:	43db      	mvns	r3, r3
    2496:	eb02 0585 	add.w	r5, r2, r5, lsl #2
    249a:	e855 2f00 	ldrex	r2, [r5]
    249e:	401a      	ands	r2, r3
    24a0:	e845 2100 	strex	r1, r2, [r5]
    24a4:	2900      	cmp	r1, #0
    24a6:	d1f8      	bne.n	249a <pm_system_suspend+0xca>
    24a8:	f3bf 8f5b 	dmb	ish
				   z_power_states[id].state);

end:
	atomic_clear_bit(z_power_states_forced, id);
	return ret;
}
    24ac:	b008      	add	sp, #32
    24ae:	e8bd 81f0 	ldmia.w	sp!, {r4, r5, r6, r7, r8, pc}
    24b2:	bf00      	nop
    24b4:	20000c70 	.word	0x20000c70
    24b8:	000f423f 	.word	0x000f423f
    24bc:	000f4240 	.word	0x000f4240
    24c0:	20000b9c 	.word	0x20000b9c
    24c4:	00006adf 	.word	0x00006adf
    24c8:	20000bac 	.word	0x20000bac
    24cc:	20000ba0 	.word	0x20000ba0

000024d0 <char_out>:

static int char_out(int c, void *ctx_p)
{
	struct out_context *ctx = ctx_p;

	ctx->count++;
    24d0:	680b      	ldr	r3, [r1, #0]
    24d2:	3301      	adds	r3, #1
    24d4:	600b      	str	r3, [r1, #0]
	return _char_out(c);
    24d6:	4b01      	ldr	r3, [pc, #4]	; (24dc <char_out+0xc>)
    24d8:	681b      	ldr	r3, [r3, #0]
    24da:	4718      	bx	r3
    24dc:	200000c4 	.word	0x200000c4

000024e0 <__printk_hook_install>:
	_char_out = fn;
    24e0:	4b01      	ldr	r3, [pc, #4]	; (24e8 <__printk_hook_install+0x8>)
    24e2:	6018      	str	r0, [r3, #0]
}
    24e4:	4770      	bx	lr
    24e6:	bf00      	nop
    24e8:	200000c4 	.word	0x200000c4

000024ec <vprintk>:
#endif
	}
}
#else
void vprintk(const char *fmt, va_list ap)
{
    24ec:	b507      	push	{r0, r1, r2, lr}
    24ee:	460b      	mov	r3, r1
	struct out_context ctx = { 0 };
    24f0:	2100      	movs	r1, #0
{
    24f2:	4602      	mov	r2, r0
	struct out_context ctx = { 0 };
    24f4:	9101      	str	r1, [sp, #4]
#ifdef CONFIG_PRINTK_SYNC
	k_spinlock_key_t key = k_spin_lock(&lock);
#endif

	cbvprintf(char_out, &ctx, fmt, ap);
    24f6:	4803      	ldr	r0, [pc, #12]	; (2504 <vprintk+0x18>)
    24f8:	a901      	add	r1, sp, #4
    24fa:	f7ff f919 	bl	1730 <cbvprintf>

#ifdef CONFIG_PRINTK_SYNC
	k_spin_unlock(&lock, key);
#endif
}
    24fe:	b003      	add	sp, #12
    2500:	f85d fb04 	ldr.w	pc, [sp], #4
    2504:	000024d1 	.word	0x000024d1

00002508 <sys_reboot>:
#include <sys/printk.h>

extern void sys_arch_reboot(int type);

FUNC_NORETURN void sys_reboot(int type)
{
    2508:	b508      	push	{r3, lr}
	__asm__ volatile(
    250a:	f04f 0220 	mov.w	r2, #32
    250e:	f3ef 8311 	mrs	r3, BASEPRI
    2512:	f382 8812 	msr	BASEPRI_MAX, r2
    2516:	f3bf 8f6f 	isb	sy
	(void)irq_lock();
	sys_clock_disable();

	sys_arch_reboot(type);
    251a:	f000 fc03 	bl	2d24 <sys_arch_reboot>

	/* should never get here */
	printk("Failed to reboot: spinning endlessly...\n");
    251e:	4803      	ldr	r0, [pc, #12]	; (252c <sys_reboot+0x24>)
    2520:	f004 f8e8 	bl	66f4 <printk>
 *
 * @return N/A
 */
static inline void k_cpu_idle(void)
{
	arch_cpu_idle();
    2524:	f000 f82a 	bl	257c <arch_cpu_idle>
    2528:	e7fc      	b.n	2524 <sys_reboot+0x1c>
    252a:	bf00      	nop
    252c:	00007d39 	.word	0x00007d39

00002530 <tty_init>:

	return out_size;
}

int tty_init(struct tty_serial *tty, const struct device *uart_dev)
{
    2530:	4602      	mov	r2, r0
    2532:	b510      	push	{r4, lr}
	if (!uart_dev) {
    2534:	4608      	mov	r0, r1
    2536:	b199      	cbz	r1, 2560 <tty_init+0x30>
	}

	tty->uart_dev = uart_dev;

	/* We start in unbuffer mode. */
	tty->rx_ringbuf = NULL;
    2538:	2400      	movs	r4, #0
	tty->tx_ringbuf = NULL;
	tty->tx_ringbuf_sz = 0U;

	tty->rx_get = tty->rx_put = tty->tx_get = tty->tx_put = 0U;

	tty->rx_timeout = SYS_FOREVER_MS;
    253a:	f04f 33ff 	mov.w	r3, #4294967295
	tty->tx_timeout = SYS_FOREVER_MS;
    253e:	e9c2 430f 	strd	r4, r3, [r2, #60]	; 0x3c
	tty->rx_timeout = SYS_FOREVER_MS;
    2542:	6213      	str	r3, [r2, #32]
static inline void uart_irq_callback_user_data_set(const struct device *dev,
						   uart_irq_callback_user_data_t cb,
						   void *user_data)
{
#ifdef CONFIG_UART_INTERRUPT_DRIVEN
	const struct uart_driver_api *api =
    2544:	688b      	ldr	r3, [r1, #8]
	tty->uart_dev = uart_dev;
    2546:	6011      	str	r1, [r2, #0]
	tty->rx_ringbuf_sz = 0U;
    2548:	e9c2 4405 	strd	r4, r4, [r2, #20]
	tty->tx_ringbuf_sz = 0U;
    254c:	e9c2 440d 	strd	r4, r4, [r2, #52]	; 0x34
	tty->rx_get = tty->rx_put = tty->tx_get = tty->tx_put = 0U;
    2550:	61d4      	str	r4, [r2, #28]
		(const struct uart_driver_api *)dev->api;

	if ((api != NULL) && (api->irq_callback_set != NULL)) {
    2552:	b143      	cbz	r3, 2566 <tty_init+0x36>
    2554:	6c9b      	ldr	r3, [r3, #72]	; 0x48
    2556:	b133      	cbz	r3, 2566 <tty_init+0x36>
		api->irq_callback_set(dev, cb, user_data);
    2558:	4904      	ldr	r1, [pc, #16]	; (256c <tty_init+0x3c>)
    255a:	4798      	blx	r3

	uart_irq_callback_user_data_set(uart_dev, tty_uart_isr, tty);

	return 0;
    255c:	4620      	mov	r0, r4
}
    255e:	bd10      	pop	{r4, pc}
		return -ENODEV;
    2560:	f06f 0012 	mvn.w	r0, #18
    2564:	e7fb      	b.n	255e <tty_init+0x2e>
	return 0;
    2566:	4618      	mov	r0, r3
    2568:	e7f9      	b.n	255e <tty_init+0x2e>
    256a:	bf00      	nop
    256c:	000067dd 	.word	0x000067dd

00002570 <z_arm_cpu_idle_init>:
 * void z_arm_cpu_idle_init(void);
 */

SECTION_FUNC(TEXT, z_arm_cpu_idle_init)
#if defined(CONFIG_CPU_CORTEX_M)
	ldr	r1, =_SCB_SCR
    2570:	4901      	ldr	r1, [pc, #4]	; (2578 <z_arm_cpu_idle_init+0x8>)
	movs.n	r2, #_SCR_INIT_BITS
    2572:	2210      	movs	r2, #16
	str	r2, [r1]
    2574:	600a      	str	r2, [r1, #0]
#endif
	bx	lr
    2576:	4770      	bx	lr
	ldr	r1, =_SCB_SCR
    2578:	e000ed10 	.word	0xe000ed10

0000257c <arch_cpu_idle>:
	 * before entering low power state.
	 *
	 * Set PRIMASK before configuring BASEPRI to prevent interruption
	 * before wake-up.
	 */
	cpsid	i
    257c:	b672      	cpsid	i

	/*
	 * Set wake-up interrupt priority to the lowest and synchronise to
	 * ensure that this is visible to the WFI instruction.
	 */
	eors.n	r0, r0
    257e:	4040      	eors	r0, r0
	msr	BASEPRI, r0
    2580:	f380 8811 	msr	BASEPRI, r0
	isb
    2584:	f3bf 8f6f 	isb	sy

	/*
	 * Wait for all memory transactions to complete before entering low
	 * power state.
	 */
	dsb
    2588:	f3bf 8f4f 	dsb	sy

	/* Enter low power state */
	wfi
    258c:	bf30      	wfi

	/*
	 * Clear PRIMASK and flush instruction buffer to immediately service
	 * the wake-up interrupt.
	 */
	cpsie	i
    258e:	b662      	cpsie	i
	isb
    2590:	f3bf 8f6f 	isb	sy

	bx	lr
    2594:	4770      	bx	lr
    2596:	bf00      	nop

00002598 <arch_cpu_atomic_idle>:

	/*
	 * Lock PRIMASK while sleeping: wfe will still get interrupted by
	 * incoming interrupts but the CPU will not service them right away.
	 */
	cpsid	i
    2598:	b672      	cpsid	i
	cpsie	i
_irq_disabled:

#elif defined(CONFIG_ARMV7_M_ARMV8_M_MAINLINE)
	/* r1: zero, for setting BASEPRI (needs a register) */
	eors.n	r1, r1
    259a:	4049      	eors	r1, r1

	/* unlock BASEPRI so wfe gets interrupted by incoming interrupts */
	msr	BASEPRI, r1
    259c:	f381 8811 	msr	BASEPRI, r1

	wfe
    25a0:	bf20      	wfe

	msr	BASEPRI, r0
    25a2:	f380 8811 	msr	BASEPRI, r0
	cpsie	i
    25a6:	b662      	cpsie	i
#else
#error Unknown ARM architecture
#endif /* CONFIG_ARMV6_M_ARMV8_M_BASELINE */
	bx	lr
    25a8:	4770      	bx	lr
    25aa:	bf00      	nop

000025ac <_isr_wrapper>:
 * @return N/A
 */
SECTION_FUNC(TEXT, _isr_wrapper)

#if defined(CONFIG_CPU_CORTEX_M)
	push {r0,lr}		/* r0, lr are now the first items on the stack */
    25ac:	b501      	push	{r0, lr}
	 * Disable interrupts to prevent nesting while exiting idle state. This
	 * is only necessary for the Cortex-M because it is the only ARM
	 * architecture variant that automatically enables interrupts when
	 * entering an ISR.
	 */
	cpsid i  /* PRIMASK = 1 */
    25ae:	b672      	cpsid	i
#endif

	/* is this a wakeup from idle ? */
	ldr r2, =_kernel
    25b0:	4a0b      	ldr	r2, [pc, #44]	; (25e0 <_isr_wrapper+0x34>)
	/* requested idle duration, in ticks */
	ldr r0, [r2, #_kernel_offset_to_idle]
    25b2:	6990      	ldr	r0, [r2, #24]
	cmp r0, #0
    25b4:	2800      	cmp	r0, #0
	str r1, [r2, #_kernel_offset_to_idle]
	bl z_pm_save_idle_exit
_idle_state_cleared:

#elif defined(CONFIG_ARMV7_M_ARMV8_M_MAINLINE)
	ittt ne
    25b6:	bf1e      	ittt	ne
	movne	r1, #0
    25b8:	2100      	movne	r1, #0
		/* clear kernel idle state */
		strne	r1, [r2, #_kernel_offset_to_idle]
    25ba:	6191      	strne	r1, [r2, #24]
		blne	z_pm_save_idle_exit
    25bc:	f004 fe2b 	blne	7216 <z_pm_save_idle_exit>
#else
#error Unknown ARM architecture
#endif /* CONFIG_ARMV6_M_ARMV8_M_BASELINE */

#if defined(CONFIG_CPU_CORTEX_M)
	cpsie i		/* re-enable interrupts (PRIMASK = 0) */
    25c0:	b662      	cpsie	i
#endif

#endif /* CONFIG_PM */

#if defined(CONFIG_CPU_CORTEX_M)
	mrs r0, IPSR	/* get exception number */
    25c2:	f3ef 8005 	mrs	r0, IPSR
#if defined(CONFIG_ARMV6_M_ARMV8_M_BASELINE)
	ldr r1, =16
	subs r0, r1	/* get IRQ number */
	lsls r0, #3	/* table is 8-byte wide */
#elif defined(CONFIG_ARMV7_M_ARMV8_M_MAINLINE)
	sub r0, r0, #16	/* get IRQ number */
    25c6:	f1a0 0010 	sub.w	r0, r0, #16
	lsl r0, r0, #3	/* table is 8-byte wide */
    25ca:	ea4f 00c0 	mov.w	r0, r0, lsl #3
	lsl r1, r1, #3
	cmp r0, r1
	bge spurious_continue
#endif /* !CONFIG_CPU_CORTEX_M */

	ldr r1, =_sw_isr_table
    25ce:	4905      	ldr	r1, [pc, #20]	; (25e4 <_isr_wrapper+0x38>)
	add r1, r1, r0	/* table entry: ISRs must have their MSB set to stay
    25d0:	4401      	add	r1, r0
			 * in thumb mode */

	ldm r1!,{r0,r3}	/* arg in r0, ISR in r3 */
    25d2:	c909      	ldmia	r1!, {r0, r3}
	blx r3		/* call ISR */
    25d4:	4798      	blx	r3

#if defined(CONFIG_ARMV6_M_ARMV8_M_BASELINE)
	pop {r0, r3}
	mov lr, r3
#elif defined(CONFIG_ARMV7_M_ARMV8_M_MAINLINE)
	pop {r0, lr}
    25d6:	e8bd 4001 	ldmia.w	sp!, {r0, lr}
#endif /* CONFIG_ARMV6_M_ARMV8_M_BASELINE */

	/* Use 'bx' instead of 'b' because 'bx' can jump further, and use
	 * 'bx' instead of 'blx' because exception return is done in
	 * z_arm_int_exit() */
	ldr r1, =z_arm_int_exit
    25da:	4903      	ldr	r1, [pc, #12]	; (25e8 <_isr_wrapper+0x3c>)
	bx r1
    25dc:	4708      	bx	r1
    25de:	0000      	.short	0x0000
	ldr r2, =_kernel
    25e0:	20000c70 	.word	0x20000c70
	ldr r1, =_sw_isr_table
    25e4:	00007680 	.word	0x00007680
	ldr r1, =z_arm_int_exit
    25e8:	000027d9 	.word	0x000027d9

000025ec <z_SysNmiOnReset>:
_ASM_FILE_PROLOGUE

GTEXT(z_SysNmiOnReset)

SECTION_FUNC(TEXT, z_SysNmiOnReset)
    wfi
    25ec:	bf30      	wfi
    b z_SysNmiOnReset
    25ee:	f7ff bffd 	b.w	25ec <z_SysNmiOnReset>
    25f2:	bf00      	nop

000025f4 <z_arm_pendsv>:
    pop {r0, lr}
#endif /* CONFIG_ARMV6_M_ARMV8_M_BASELINE */
#endif /* CONFIG_INSTRUMENT_THREAD_SWITCHING */

    /* load _kernel into r1 and current k_thread into r2 */
    ldr r1, =_kernel
    25f4:	4912      	ldr	r1, [pc, #72]	; (2640 <z_arm_pendsv+0x4c>)
    ldr r2, [r1, #_kernel_offset_to_current]
    25f6:	688a      	ldr	r2, [r1, #8]
    /* Store LSB of LR (EXC_RETURN) to the thread's 'mode' word. */
    strb lr, [r2, #_thread_offset_to_mode_exc_return]
#endif

    /* addr of callee-saved regs in thread in r0 */
    ldr r0, =_thread_offset_to_callee_saved
    25f8:	f04f 0030 	mov.w	r0, #48	; 0x30
    add r0, r2
    25fc:	4410      	add	r0, r2

    /* save callee-saved + psp in thread */
#if defined(CONFIG_CPU_CORTEX_M)
    mrs ip, PSP
    25fe:	f3ef 8c09 	mrs	ip, PSP
    mov r6, r11
    mov r7, ip
    /* store r8-12 */
    stmea r0!, {r3-r7}
#elif defined(CONFIG_ARMV7_M_ARMV8_M_MAINLINE)
    stmia r0, {v1-v8, ip}
    2602:	e880 1ff0 	stmia.w	r0, {r4, r5, r6, r7, r8, r9, sl, fp, ip}

    /* Protect the kernel state while we play with the thread lists */
#if defined(CONFIG_ARMV6_M_ARMV8_M_BASELINE)
    cpsid i
#elif defined(CONFIG_ARMV7_M_ARMV8_M_MAINLINE)
    movs.n r0, #_EXC_IRQ_DEFAULT_PRIO
    2606:	2020      	movs	r0, #32
    msr BASEPRI_MAX, r0
    2608:	f380 8812 	msr	BASEPRI_MAX, r0
    isb /* Make the effect of disabling interrupts be realized immediately */
    260c:	f3bf 8f6f 	isb	sy
     * the new thread is context-switched in since all decisions
     * to pend PendSV have been taken with the current kernel
     * state and this is what we're handling currently.
     */
#if defined(CONFIG_CPU_CORTEX_M)
    ldr v4, =_SCS_ICSR
    2610:	4f0c      	ldr	r7, [pc, #48]	; (2644 <z_arm_pendsv+0x50>)
    ldr v3, =_SCS_ICSR_UNPENDSV
    2612:	f04f 6600 	mov.w	r6, #134217728	; 0x8000000
#endif

    /* _kernel is still in r1 */

    /* fetch the thread to run from the ready queue cache */
    ldr r2, [r1, #_kernel_offset_to_ready_q_cache]
    2616:	69ca      	ldr	r2, [r1, #28]

    str r2, [r1, #_kernel_offset_to_current]
    2618:	608a      	str	r2, [r1, #8]
     * has been handled.
     */

    /* _SCS_ICSR is still in v4 and _SCS_ICSR_UNPENDSV in v3 */
#if defined(CONFIG_CPU_CORTEX_M)
    str v3, [v4, #0]
    261a:	603e      	str	r6, [r7, #0]

    ldr r0, [r4]
    movs.n r3, #0
    str r3, [r4]
#else
    ldr r0, [r2, #_thread_offset_to_basepri]
    261c:	6f50      	ldr	r0, [r2, #116]	; 0x74
    movs r3, #0
    261e:	2300      	movs	r3, #0
    str r3, [r2, #_thread_offset_to_basepri]
    2620:	6753      	str	r3, [r2, #116]	; 0x74
    /* restore r4-r7, go back 9*4 bytes to the start of the stored block */
    subs r0, #36
    ldmia r0!, {r4-r7}
#elif defined(CONFIG_ARMV7_M_ARMV8_M_MAINLINE)
    /* restore BASEPRI for the incoming thread */
    msr BASEPRI, r0
    2622:	f380 8811 	msr	BASEPRI, r0
    isb
#endif

#if defined(CONFIG_MPU_STACK_GUARD) || defined(CONFIG_USERSPACE)
    /* Re-program dynamic memory map */
    push {r2,lr}
    2626:	b504      	push	{r2, lr}
    mov r0, r2 /* _current thread */
    2628:	4610      	mov	r0, r2
    bl z_arm_configure_dynamic_mpu_regions
    262a:	f000 fa75 	bl	2b18 <z_arm_configure_dynamic_mpu_regions>
    pop {r2,lr}
    262e:	e8bd 4004 	ldmia.w	sp!, {r2, lr}
    isb

#endif

    /* load callee-saved + psp from thread */
    add r0, r2, #_thread_offset_to_callee_saved
    2632:	f102 0030 	add.w	r0, r2, #48	; 0x30
    ldmia r0, {v1-v8, ip}
    2636:	e890 1ff0 	ldmia.w	r0, {r4, r5, r6, r7, r8, r9, sl, fp, ip}
#else
#error Unknown ARM architecture
#endif /* CONFIG_ARMV6_M_ARMV8_M_BASELINE */

#if defined(CONFIG_CPU_CORTEX_M)
    msr PSP, ip
    263a:	f38c 8809 	msr	PSP, ip

    /*
     * Cortex-M: return from PendSV exception
     * Cortex-R: return to the caller (z_arm_{exc,int}_exit, or z_arm_svc)
     */
    bx lr
    263e:	4770      	bx	lr
    ldr r1, =_kernel
    2640:	20000c70 	.word	0x20000c70
    ldr v4, =_SCS_ICSR
    2644:	e000ed04 	.word	0xe000ed04

00002648 <z_arm_svc>:
  bne _stack_frame_endif
_stack_frame_msp:
  mrs r0, MSP
_stack_frame_endif:
#elif defined(CONFIG_ARMV7_M_ARMV8_M_MAINLINE)
    tst lr, #_EXC_RETURN_SPSEL_Msk /* did we come from thread mode ? */
    2648:	f01e 0f04 	tst.w	lr, #4
    ite eq  /* if zero (equal), came from handler mode */
    264c:	bf0c      	ite	eq
        mrseq r0, MSP   /* handler mode, stack frame is on MSP */
    264e:	f3ef 8008 	mrseq	r0, MSP
        mrsne r0, PSP   /* thread mode, stack frame is on PSP */
    2652:	f3ef 8009 	mrsne	r0, PSP
#endif


    /* Figure out what SVC call number was invoked */

    ldr r1, [r0, #24]   /* grab address of PC from stack frame */
    2656:	6981      	ldr	r1, [r0, #24]
     */
#if defined(CONFIG_ARMV6_M_ARMV8_M_BASELINE)
    subs r1, r1, #2
    ldrb r1, [r1]
#elif defined(CONFIG_ARMV7_M_ARMV8_M_MAINLINE)
    ldrb r1, [r1, #-2]
    2658:	f811 1c02 	ldrb.w	r1, [r1, #-2]
#endif
    bne _oops

#endif /* CONFIG_USERSPACE */

    cmp r1, #2
    265c:	2902      	cmp	r1, #2
    beq _oops
    265e:	d0ff      	beq.n	2660 <_oops>

00002660 <_oops>:
    /* exception return is done in z_arm_int_exit() */
    b z_arm_int_exit
#endif

_oops:
    push {r0, lr}
    2660:	b501      	push	{r0, lr}
    bl z_do_kernel_oops
    2662:	f004 f9f8 	bl	6a56 <z_do_kernel_oops>
    /* return from SVC exception is done here */
    pop {r0, pc}
    2666:	bd01      	pop	{r0, pc}

00002668 <arch_irq_enable>:
#define REG_FROM_IRQ(irq) (irq / NUM_IRQS_PER_REG)
#define BIT_FROM_IRQ(irq) (irq % NUM_IRQS_PER_REG)

void arch_irq_enable(unsigned int irq)
{
	NVIC_EnableIRQ((IRQn_Type)irq);
    2668:	b243      	sxtb	r3, r0
  \param [in]      IRQn  Device specific interrupt number.
  \note    IRQn must not be negative.
 */
__STATIC_INLINE void __NVIC_EnableIRQ(IRQn_Type IRQn)
{
  if ((int32_t)(IRQn) >= 0)
    266a:	2b00      	cmp	r3, #0
    266c:	db08      	blt.n	2680 <arch_irq_enable+0x18>
  {
    __COMPILER_BARRIER();
    NVIC->ISER[(((uint32_t)IRQn) >> 5UL)] = (uint32_t)(1UL << (((uint32_t)IRQn) & 0x1FUL));
    266e:	2201      	movs	r2, #1
    2670:	f000 001f 	and.w	r0, r0, #31
    2674:	fa02 f000 	lsl.w	r0, r2, r0
    2678:	095b      	lsrs	r3, r3, #5
    267a:	4a02      	ldr	r2, [pc, #8]	; (2684 <arch_irq_enable+0x1c>)
    267c:	f842 0023 	str.w	r0, [r2, r3, lsl #2]
}
    2680:	4770      	bx	lr
    2682:	bf00      	nop
    2684:	e000e100 	.word	0xe000e100

00002688 <arch_irq_is_enabled>:
	NVIC_DisableIRQ((IRQn_Type)irq);
}

int arch_irq_is_enabled(unsigned int irq)
{
	return NVIC->ISER[REG_FROM_IRQ(irq)] & BIT(BIT_FROM_IRQ(irq));
    2688:	4b05      	ldr	r3, [pc, #20]	; (26a0 <arch_irq_is_enabled+0x18>)
    268a:	0942      	lsrs	r2, r0, #5
    268c:	f000 001f 	and.w	r0, r0, #31
    2690:	f853 2022 	ldr.w	r2, [r3, r2, lsl #2]
    2694:	2301      	movs	r3, #1
    2696:	fa03 f000 	lsl.w	r0, r3, r0
}
    269a:	4010      	ands	r0, r2
    269c:	4770      	bx	lr
    269e:	bf00      	nop
    26a0:	e000e100 	.word	0xe000e100

000026a4 <z_arm_irq_priority_set>:
	 */
	__ASSERT(prio <= (BIT(NUM_IRQ_PRIO_BITS) - 1),
		 "invalid priority %d for %d irq! values must be less than %lu\n",
		 prio - _IRQ_PRIO_OFFSET, irq,
		 BIT(NUM_IRQ_PRIO_BITS) - (_IRQ_PRIO_OFFSET));
	NVIC_SetPriority((IRQn_Type)irq, prio);
    26a4:	b243      	sxtb	r3, r0
  \param [in]  priority  Priority to set.
  \note    The priority cannot be set for every processor exception.
 */
__STATIC_INLINE void __NVIC_SetPriority(IRQn_Type IRQn, uint32_t priority)
{
  if ((int32_t)(IRQn) >= 0)
    26a6:	2b00      	cmp	r3, #0
  {
    NVIC->IP[((uint32_t)IRQn)]               = (uint8_t)((priority << (8U - __NVIC_PRIO_BITS)) & (uint32_t)0xFFUL);
    26a8:	bfa8      	it	ge
    26aa:	f103 4360 	addge.w	r3, r3, #3758096384	; 0xe0000000
		prio += _IRQ_PRIO_OFFSET;
    26ae:	f101 0101 	add.w	r1, r1, #1
  }
  else
  {
    SCB->SHP[(((uint32_t)IRQn) & 0xFUL)-4UL] = (uint8_t)((priority << (8U - __NVIC_PRIO_BITS)) & (uint32_t)0xFFUL);
    26b2:	bfb8      	it	lt
    26b4:	4b06      	ldrlt	r3, [pc, #24]	; (26d0 <z_arm_irq_priority_set+0x2c>)
    26b6:	ea4f 1141 	mov.w	r1, r1, lsl #5
    NVIC->IP[((uint32_t)IRQn)]               = (uint8_t)((priority << (8U - __NVIC_PRIO_BITS)) & (uint32_t)0xFFUL);
    26ba:	bfac      	ite	ge
    26bc:	f503 4361 	addge.w	r3, r3, #57600	; 0xe100
    SCB->SHP[(((uint32_t)IRQn) & 0xFUL)-4UL] = (uint8_t)((priority << (8U - __NVIC_PRIO_BITS)) & (uint32_t)0xFFUL);
    26c0:	f000 000f 	andlt.w	r0, r0, #15
    26c4:	b2c9      	uxtb	r1, r1
    26c6:	bfb4      	ite	lt
    26c8:	5419      	strblt	r1, [r3, r0]
    NVIC->IP[((uint32_t)IRQn)]               = (uint8_t)((priority << (8U - __NVIC_PRIO_BITS)) & (uint32_t)0xFFUL);
    26ca:	f883 1300 	strbge.w	r1, [r3, #768]	; 0x300
}
    26ce:	4770      	bx	lr
    26d0:	e000ed14 	.word	0xe000ed14

000026d4 <z_arm_prep_c>:

#define VECTOR_ADDRESS ((uintptr_t)_vector_start)

static inline void relocate_vector_table(void)
{
	SCB->VTOR = VECTOR_ADDRESS & SCB_VTOR_TBLOFF_Msk;
    26d4:	4a0b      	ldr	r2, [pc, #44]	; (2704 <z_arm_prep_c+0x30>)
 * This routine prepares for the execution of and runs C code.
 *
 * @return N/A
 */
void z_arm_prep_c(void)
{
    26d6:	b508      	push	{r3, lr}
	SCB->VTOR = VECTOR_ADDRESS & SCB_VTOR_TBLOFF_Msk;
    26d8:	4b0b      	ldr	r3, [pc, #44]	; (2708 <z_arm_prep_c+0x34>)
    26da:	f022 027f 	bic.w	r2, r2, #127	; 0x7f
    26de:	609a      	str	r2, [r3, #8]
  \details Acts as a special kind of Data Memory Barrier.
           It completes when all explicit memory accesses before this instruction complete.
 */
__STATIC_FORCEINLINE void __DSB(void)
{
  __ASM volatile ("dsb 0xF":::"memory");
    26e0:	f3bf 8f4f 	dsb	sy
  __ASM volatile ("isb 0xF":::"memory");
    26e4:	f3bf 8f6f 	isb	sy
	SCB->CPACR &= (~(CPACR_CP10_Msk | CPACR_CP11_Msk));
    26e8:	f8d3 2088 	ldr.w	r2, [r3, #136]	; 0x88
    26ec:	f422 0270 	bic.w	r2, r2, #15728640	; 0xf00000
    26f0:	f8c3 2088 	str.w	r2, [r3, #136]	; 0x88
	relocate_vector_table();
#if defined(CONFIG_CPU_HAS_FPU)
	z_arm_floating_point_init();
#endif
	z_bss_zero();
    26f4:	f002 fc30 	bl	4f58 <z_bss_zero>
	z_data_copy();
    26f8:	f003 fc24 	bl	5f44 <z_data_copy>
#if ((defined(CONFIG_ARMV7_R) || defined(CONFIG_ARMV7_A)) && defined(CONFIG_INIT_STACKS))
	z_arm_init_stacks();
#endif
	z_arm_interrupt_init();
    26fc:	f000 f9a0 	bl	2a40 <z_arm_interrupt_init>
	z_cstart();
    2700:	f002 fc34 	bl	4f6c <z_cstart>
    2704:	00000000 	.word	0x00000000
    2708:	e000ed00 	.word	0xe000ed00

0000270c <arch_swap>:
 * as BASEPRI is not available.
 */
int arch_swap(unsigned int key)
{
	/* store off key and return value */
	_current->arch.basepri = key;
    270c:	4a09      	ldr	r2, [pc, #36]	; (2734 <arch_swap+0x28>)
	_current->arch.swap_return_value = _k_neg_eagain;
    270e:	490a      	ldr	r1, [pc, #40]	; (2738 <arch_swap+0x2c>)
	_current->arch.basepri = key;
    2710:	6893      	ldr	r3, [r2, #8]
	_current->arch.swap_return_value = _k_neg_eagain;
    2712:	6809      	ldr	r1, [r1, #0]
    2714:	6799      	str	r1, [r3, #120]	; 0x78

#if defined(CONFIG_CPU_CORTEX_M)
	/* set pending bit to make sure we will take a PendSV exception */
	SCB->ICSR |= SCB_ICSR_PENDSVSET_Msk;
    2716:	4909      	ldr	r1, [pc, #36]	; (273c <arch_swap+0x30>)
	_current->arch.basepri = key;
    2718:	6758      	str	r0, [r3, #116]	; 0x74
	SCB->ICSR |= SCB_ICSR_PENDSVSET_Msk;
    271a:	684b      	ldr	r3, [r1, #4]
    271c:	f043 5380 	orr.w	r3, r3, #268435456	; 0x10000000
    2720:	604b      	str	r3, [r1, #4]
	__asm__ volatile(
    2722:	2300      	movs	r3, #0
    2724:	f383 8811 	msr	BASEPRI, r3
    2728:	f3bf 8f6f 	isb	sy
#endif

	/* Context switch is performed here. Returning implies the
	 * thread has been context-switched-in again.
	 */
	return _current->arch.swap_return_value;
    272c:	6893      	ldr	r3, [r2, #8]
}
    272e:	6f98      	ldr	r0, [r3, #120]	; 0x78
    2730:	4770      	bx	lr
    2732:	bf00      	nop
    2734:	20000c70 	.word	0x20000c70
    2738:	000079e4 	.word	0x000079e4
    273c:	e000ed00 	.word	0xe000ed00

00002740 <arch_new_thread>:

#if defined(CONFIG_CPU_CORTEX_M)
	/* force ARM mode by clearing LSB of address */
	iframe->pc &= 0xfffffffe;
#endif
	iframe->a1 = (uint32_t)entry;
    2740:	f842 3c20 	str.w	r3, [r2, #-32]
	iframe->a2 = (uint32_t)p1;
    2744:	9b00      	ldr	r3, [sp, #0]
    2746:	f842 3c1c 	str.w	r3, [r2, #-28]
	iframe->pc &= 0xfffffffe;
    274a:	490a      	ldr	r1, [pc, #40]	; (2774 <arch_new_thread+0x34>)
	iframe->a3 = (uint32_t)p2;
    274c:	9b01      	ldr	r3, [sp, #4]
    274e:	f842 3c18 	str.w	r3, [r2, #-24]
	iframe->a4 = (uint32_t)p3;
    2752:	9b02      	ldr	r3, [sp, #8]
    2754:	f842 3c14 	str.w	r3, [r2, #-20]
	iframe->pc &= 0xfffffffe;
    2758:	f021 0101 	bic.w	r1, r1, #1

#if defined(CONFIG_CPU_CORTEX_M)
	iframe->xpsr =
    275c:	f04f 7380 	mov.w	r3, #16777216	; 0x1000000
    2760:	f842 3c04 	str.w	r3, [r2, #-4]
	iframe->pc &= 0xfffffffe;
    2764:	f842 1c08 	str.w	r1, [r2, #-8]
	iframe->xpsr |= T_BIT;
#endif /* CONFIG_COMPILER_ISA_THUMB2 */
#endif /* CONFIG_CPU_CORTEX_M */

	thread->callee_saved.psp = (uint32_t)iframe;
	thread->arch.basepri = 0;
    2768:	2300      	movs	r3, #0
	iframe = Z_STACK_PTR_TO_FRAME(struct __basic_sf, stack_ptr);
    276a:	3a20      	subs	r2, #32
	thread->callee_saved.psp = (uint32_t)iframe;
    276c:	6502      	str	r2, [r0, #80]	; 0x50
	thread->arch.basepri = 0;
    276e:	6743      	str	r3, [r0, #116]	; 0x74
#endif
	/*
	 * initial values in all other registers/thread entries are
	 * irrelevant.
	 */
}
    2770:	4770      	bx	lr
    2772:	bf00      	nop
    2774:	00006719 	.word	0x00006719

00002778 <z_check_thread_stack_fail>:
 *         thread stack corruption, otherwise return 0.
 */
uint32_t z_check_thread_stack_fail(const uint32_t fault_addr, const uint32_t psp)
{
#if defined(CONFIG_MULTITHREADING)
	const struct k_thread *thread = _current;
    2778:	4a0b      	ldr	r2, [pc, #44]	; (27a8 <z_check_thread_stack_fail+0x30>)
{
    277a:	4603      	mov	r3, r0
	const struct k_thread *thread = _current;
    277c:	6890      	ldr	r0, [r2, #8]

	if (thread == NULL) {
    277e:	b190      	cbz	r0, 27a6 <z_check_thread_stack_fail+0x2e>
			return thread->stack_info.start;
		}
	}
#else /* CONFIG_USERSPACE */
#if defined(CONFIG_MULTITHREADING)
	if (IS_MPU_GUARD_VIOLATION(thread->stack_info.start - guard_len,
    2780:	f113 0f16 	cmn.w	r3, #22
    2784:	6e40      	ldr	r0, [r0, #100]	; 0x64
    2786:	d005      	beq.n	2794 <z_check_thread_stack_fail+0x1c>
    2788:	f1a0 0220 	sub.w	r2, r0, #32
    278c:	429a      	cmp	r2, r3
    278e:	d806      	bhi.n	279e <z_check_thread_stack_fail+0x26>
    2790:	4283      	cmp	r3, r0
    2792:	d204      	bcs.n	279e <z_check_thread_stack_fail+0x26>
    2794:	4281      	cmp	r1, r0
    2796:	bf2c      	ite	cs
    2798:	2100      	movcs	r1, #0
    279a:	2101      	movcc	r1, #1
    279c:	e000      	b.n	27a0 <z_check_thread_stack_fail+0x28>
    279e:	2100      	movs	r1, #0
    27a0:	2900      	cmp	r1, #0
		return (uint32_t)Z_THREAD_STACK_BUFFER(z_main_stack);
	}
#endif
#endif /* CONFIG_USERSPACE */

	return 0;
    27a2:	bf08      	it	eq
    27a4:	2000      	moveq	r0, #0
}
    27a6:	4770      	bx	lr
    27a8:	20000c70 	.word	0x20000c70

000027ac <arch_switch_to_main_thread>:
#endif /* CONFIG_FPU */
}

void arch_switch_to_main_thread(struct k_thread *main_thread, char *stack_ptr,
				k_thread_entry_t _main)
{
    27ac:	b508      	push	{r3, lr}
	z_arm_prepare_switch_to_main();

	_current = main_thread;
    27ae:	4b09      	ldr	r3, [pc, #36]	; (27d4 <arch_switch_to_main_thread+0x28>)
    27b0:	6098      	str	r0, [r3, #8]
{
    27b2:	460d      	mov	r5, r1
    27b4:	4614      	mov	r4, r2
#if defined(CONFIG_MPU_STACK_GUARD) || defined(CONFIG_USERSPACE)
	/*
	 * If stack protection is enabled, make sure to set it
	 * before jumping to thread entry function
	 */
	z_arm_configure_dynamic_mpu_regions(main_thread);
    27b6:	f000 f9af 	bl	2b18 <z_arm_configure_dynamic_mpu_regions>

	/*
	 * Set PSP to the highest address of the main stack
	 * before enabling interrupts and jumping to main.
	 */
	__asm__ volatile (
    27ba:	4620      	mov	r0, r4
    27bc:	f385 8809 	msr	PSP, r5
    27c0:	2100      	movs	r1, #0
    27c2:	b663      	cpsie	if
    27c4:	f381 8811 	msr	BASEPRI, r1
    27c8:	f3bf 8f6f 	isb	sy
    27cc:	2200      	movs	r2, #0
    27ce:	2300      	movs	r3, #0
    27d0:	f003 ffa2 	bl	6718 <z_thread_entry>
	:
	: "r" (_main), "r" (stack_ptr)
	: "r0" /* not to be overwritten by msr PSP, %1 */
	);

	CODE_UNREACHABLE;
    27d4:	20000c70 	.word	0x20000c70

000027d8 <z_arm_exc_exit>:
 */

SECTION_SUBSEC_FUNC(TEXT, _HandlerModeExit, z_arm_exc_exit)

#ifdef CONFIG_PREEMPT_ENABLED
	ldr r3, =_kernel
    27d8:	4b04      	ldr	r3, [pc, #16]	; (27ec <_EXIT_EXC+0x2>)

	ldr r1, [r3, #_kernel_offset_to_current]
    27da:	6899      	ldr	r1, [r3, #8]
	ldr r0, [r3, #_kernel_offset_to_ready_q_cache]
    27dc:	69d8      	ldr	r0, [r3, #28]
	cmp r0, r1
    27de:	4288      	cmp	r0, r1
	beq _EXIT_EXC
    27e0:	d003      	beq.n	27ea <_EXIT_EXC>

	/* context switch required, pend the PendSV exception */
	ldr r1, =_SCS_ICSR
    27e2:	4903      	ldr	r1, [pc, #12]	; (27f0 <_EXIT_EXC+0x6>)
	ldr r2, =_SCS_ICSR_PENDSV
    27e4:	f04f 5280 	mov.w	r2, #268435456	; 0x10000000
	str r2, [r1]
    27e8:	600a      	str	r2, [r1, #0]

000027ea <_EXIT_EXC>:
#else
	pop {r0, lr}
#endif /* CONFIG_ARMV6_M_ARMV8_M_BASELINE */
#endif /* CONFIG_STACK_SENTINEL */

	bx lr
    27ea:	4770      	bx	lr
	ldr r3, =_kernel
    27ec:	20000c70 	.word	0x20000c70
	ldr r1, =_SCS_ICSR
    27f0:	e000ed04 	.word	0xe000ed04

000027f4 <z_arm_bus_fault>:
#else
#error Unknown ARM architecture
#endif /* CONFIG_ARMV6_M_ARMV8_M_BASELINE */
SECTION_SUBSEC_FUNC(TEXT,__fault,z_arm_exc_spurious)

	mrs r0, MSP
    27f4:	f3ef 8008 	mrs	r0, MSP
	mrs r1, PSP
    27f8:	f3ef 8109 	mrs	r1, PSP
	push {r0, lr}
    27fc:	b501      	push	{r0, lr}
#elif defined(CONFIG_ARMV7_M_ARMV8_M_MAINLINE)
	push {r4-r11}
#endif
	mov  r3, sp /* pointer to _callee_saved_t */
#endif /* CONFIG_EXTRA_EXCEPTION_INFO */
	mov r2, lr /* EXC_RETURN */
    27fe:	4672      	mov	r2, lr
	bl z_arm_fault
    2800:	f000 f892 	bl	2928 <z_arm_fault>
	 * in this routine. Therefore, we can just reset
	 * the MSP to its value prior to entering the function
	 */
	add sp, #40
#endif
	pop {r0, pc}
    2804:	bd01      	pop	{r0, pc}
    2806:	bf00      	nop

00002808 <__start>:
 */
SECTION_SUBSEC_FUNC(TEXT,_reset_section,__start)

#if defined(CONFIG_INIT_ARCH_HW_AT_BOOT)
    /* Reset CONTROL register */
    movs.n r0, #0
    2808:	2000      	movs	r0, #0
    msr CONTROL, r0
    280a:	f380 8814 	msr	CONTROL, r0
    isb
    280e:	f3bf 8f6f 	isb	sy
#endif /* CONFIG_CPU_CORTEX_M_HAS_SPLIM */

#endif /* CONFIG_INIT_ARCH_HW_AT_BOOT */

#if defined(CONFIG_PLATFORM_SPECIFIC_INIT)
    bl z_arm_platform_init
    2812:	f004 fea3 	bl	755c <z_arm_platform_init>
#endif

#if defined(CONFIG_INIT_ARCH_HW_AT_BOOT)
#if defined(CONFIG_CPU_HAS_ARM_MPU)
    /* Disable MPU */
    movs.n r0, #0
    2816:	2000      	movs	r0, #0
    ldr r1, =_SCS_MPU_CTRL
    2818:	490d      	ldr	r1, [pc, #52]	; (2850 <__start+0x48>)
    str r0, [r1]
    281a:	6008      	str	r0, [r1, #0]
    dsb
    281c:	f3bf 8f4f 	dsb	sy
#endif /* CONFIG_CPU_HAS_ARM_MPU */
    ldr r0, =z_main_stack + CONFIG_MAIN_STACK_SIZE
    2820:	480c      	ldr	r0, [pc, #48]	; (2854 <__start+0x4c>)
    msr msp, r0
    2822:	f380 8808 	msr	MSP, r0

    /* Initialize core architecture registers and system blocks */
    bl z_arm_init_arch_hw_at_boot
    2826:	f000 f927 	bl	2a78 <z_arm_init_arch_hw_at_boot>

    /* lock interrupts: will get unlocked when switch to main task */
#if defined(CONFIG_ARMV6_M_ARMV8_M_BASELINE)
    cpsid i
#elif defined(CONFIG_ARMV7_M_ARMV8_M_MAINLINE)
    movs.n r0, #_EXC_IRQ_DEFAULT_PRIO
    282a:	2020      	movs	r0, #32
    msr BASEPRI, r0
    282c:	f380 8811 	msr	BASEPRI, r0

    /*
     * Set PSP and use it to boot without using MSP, so that it
     * gets set to z_interrupt_stacks during initialization.
     */
    ldr r0, =z_interrupt_stacks
    2830:	4809      	ldr	r0, [pc, #36]	; (2858 <__start+0x50>)
    ldr r1, =CONFIG_ISR_STACK_SIZE + MPU_GUARD_ALIGN_AND_SIZE
    2832:	f44f 6102 	mov.w	r1, #2080	; 0x820
    adds r0, r0, r1
    2836:	1840      	adds	r0, r0, r1
    msr PSP, r0
    2838:	f380 8809 	msr	PSP, r0
    mrs r0, CONTROL
    283c:	f3ef 8014 	mrs	r0, CONTROL
    movs r1, #2
    2840:	2102      	movs	r1, #2
    orrs r0, r1 /* CONTROL_SPSEL_Msk */
    2842:	4308      	orrs	r0, r1
    msr CONTROL, r0
    2844:	f380 8814 	msr	CONTROL, r0
    /*
     * When changing the stack pointer, software must use an ISB instruction
     * immediately after the MSR instruction. This ensures that instructions
     * after the ISB instruction execute using the new stack pointer.
     */
    isb
    2848:	f3bf 8f6f 	isb	sy
    /*
     * 'bl' jumps the furthest of the branch instructions that are
     * supported on all platforms. So it is used when jumping to z_arm_prep_c
     * (even though we do not intend to return).
     */
    bl z_arm_prep_c
    284c:	f7ff ff42 	bl	26d4 <z_arm_prep_c>
    ldr r1, =_SCS_MPU_CTRL
    2850:	e000ed94 	.word	0xe000ed94
    ldr r0, =z_main_stack + CONFIG_MAIN_STACK_SIZE
    2854:	200025a0 	.word	0x200025a0
    ldr r0, =z_interrupt_stacks
    2858:	20002720 	.word	0x20002720

0000285c <mem_manage_fault>:
 *
 * @return error code to identify the fatal error reason
 */
static uint32_t mem_manage_fault(z_arch_esf_t *esf, int from_hard_fault,
			      bool *recoverable)
{
    285c:	b538      	push	{r3, r4, r5, lr}
	uint32_t reason = K_ERR_CPU_EXCEPTION;
	uint32_t mmfar = -EINVAL;

	PR_FAULT_INFO("***** MPU FAULT *****");

	if ((SCB->CFSR & SCB_CFSR_MSTKERR_Msk) != 0) {
    285e:	4b19      	ldr	r3, [pc, #100]	; (28c4 <mem_manage_fault+0x68>)
{
    2860:	4614      	mov	r4, r2
	if ((SCB->CFSR & SCB_CFSR_MSTKERR_Msk) != 0) {
    2862:	6a9a      	ldr	r2, [r3, #40]	; 0x28
		PR_FAULT_INFO("  Stacking error (context area might be"
			" not valid)");
	}
	if ((SCB->CFSR & SCB_CFSR_MUNSTKERR_Msk) != 0) {
    2864:	6a9a      	ldr	r2, [r3, #40]	; 0x28
		PR_FAULT_INFO("  Unstacking error");
	}
	if ((SCB->CFSR & SCB_CFSR_DACCVIOL_Msk) != 0) {
    2866:	6a9a      	ldr	r2, [r3, #40]	; 0x28
{
    2868:	4605      	mov	r5, r0
	if ((SCB->CFSR & SCB_CFSR_DACCVIOL_Msk) != 0) {
    286a:	0790      	lsls	r0, r2, #30
    286c:	d519      	bpl.n	28a2 <mem_manage_fault+0x46>
		 * The MMFAR address is valid only if this bit is 1.
		 *
		 * Software must follow this sequence because another higher
		 * priority exception might change the MMFAR value.
		 */
		uint32_t temp = SCB->MMFAR;
    286e:	6b58      	ldr	r0, [r3, #52]	; 0x34

		if ((SCB->CFSR & SCB_CFSR_MMARVALID_Msk) != 0) {
    2870:	6a9a      	ldr	r2, [r3, #40]	; 0x28
    2872:	0612      	lsls	r2, r2, #24
    2874:	d515      	bpl.n	28a2 <mem_manage_fault+0x46>
			mmfar = temp;
			PR_EXC("  MMFAR Address: 0x%x", mmfar);
			if (from_hard_fault != 0) {
    2876:	b119      	cbz	r1, 2880 <mem_manage_fault+0x24>
				/* clear SCB_MMAR[VALID] to reset */
				SCB->CFSR &= ~SCB_CFSR_MMARVALID_Msk;
    2878:	6a9a      	ldr	r2, [r3, #40]	; 0x28
    287a:	f022 0280 	bic.w	r2, r2, #128	; 0x80
    287e:	629a      	str	r2, [r3, #40]	; 0x28
			}
		}
	}
	if ((SCB->CFSR & SCB_CFSR_IACCVIOL_Msk) != 0) {
    2880:	6a9a      	ldr	r2, [r3, #40]	; 0x28
		PR_FAULT_INFO("  Instruction Access Violation");
	}
#if defined(CONFIG_ARMV7_M_ARMV8_M_FP)
	if ((SCB->CFSR & SCB_CFSR_MLSPERR_Msk) != 0) {
    2882:	6a9a      	ldr	r2, [r3, #40]	; 0x28
	 * crossed into an area beyond the thread stack.]
	 *
	 * Data Access Violation errors may or may not be caused by
	 * thread stack overflows.
	 */
	if ((SCB->CFSR & SCB_CFSR_MSTKERR_Msk) ||
    2884:	6a9a      	ldr	r2, [r3, #40]	; 0x28
    2886:	06d1      	lsls	r1, r2, #27
    2888:	d40e      	bmi.n	28a8 <mem_manage_fault+0x4c>
		(SCB->CFSR & SCB_CFSR_DACCVIOL_Msk)) {
    288a:	6a9b      	ldr	r3, [r3, #40]	; 0x28
	if ((SCB->CFSR & SCB_CFSR_MSTKERR_Msk) ||
    288c:	079a      	lsls	r2, r3, #30
    288e:	d40b      	bmi.n	28a8 <mem_manage_fault+0x4c>
	uint32_t reason = K_ERR_CPU_EXCEPTION;
    2890:	2000      	movs	r0, #0
		"without stack guard, user-mode or null-pointer detection\n");
#endif /* CONFIG_MPU_STACK_GUARD || CONFIG_USERSPACE */
	}

	/* clear MMFSR sticky bits */
	SCB->CFSR |= SCB_CFSR_MEMFAULTSR_Msk;
    2892:	4a0c      	ldr	r2, [pc, #48]	; (28c4 <mem_manage_fault+0x68>)
    2894:	6a93      	ldr	r3, [r2, #40]	; 0x28
    2896:	f043 03ff 	orr.w	r3, r3, #255	; 0xff
    289a:	6293      	str	r3, [r2, #40]	; 0x28

	/* Assess whether system shall ignore/recover from this MPU fault. */
	*recoverable = memory_fault_recoverable(esf, true);
    289c:	2300      	movs	r3, #0
    289e:	7023      	strb	r3, [r4, #0]

	return reason;
}
    28a0:	bd38      	pop	{r3, r4, r5, pc}
	uint32_t mmfar = -EINVAL;
    28a2:	f06f 0015 	mvn.w	r0, #21
    28a6:	e7eb      	b.n	2880 <mem_manage_fault+0x24>
		if (SCB->ICSR & SCB_ICSR_RETTOBASE_Msk) {
    28a8:	4b06      	ldr	r3, [pc, #24]	; (28c4 <mem_manage_fault+0x68>)
    28aa:	685b      	ldr	r3, [r3, #4]
    28ac:	051b      	lsls	r3, r3, #20
    28ae:	d5ef      	bpl.n	2890 <mem_manage_fault+0x34>
			uint32_t min_stack_ptr = z_check_thread_stack_fail(mmfar,
    28b0:	4629      	mov	r1, r5
    28b2:	f7ff ff61 	bl	2778 <z_check_thread_stack_fail>
			if (min_stack_ptr) {
    28b6:	2800      	cmp	r0, #0
    28b8:	d0ea      	beq.n	2890 <mem_manage_fault+0x34>
  \details Assigns the given value to the Process Stack Pointer (PSP).
  \param [in]    topOfProcStack  Process Stack Pointer value to set
 */
__STATIC_FORCEINLINE void __set_PSP(uint32_t topOfProcStack)
{
  __ASM volatile ("MSR psp, %0" : : "r" (topOfProcStack) : );
    28ba:	f380 8809 	msr	PSP, r0
				reason = K_ERR_STACK_CHK_FAIL;
    28be:	2002      	movs	r0, #2
    28c0:	e7e7      	b.n	2892 <mem_manage_fault+0x36>
    28c2:	bf00      	nop
    28c4:	e000ed00 	.word	0xe000ed00

000028c8 <bus_fault.isra.0>:
{
	uint32_t reason = K_ERR_CPU_EXCEPTION;

	PR_FAULT_INFO("***** BUS FAULT *****");

	if (SCB->CFSR & SCB_CFSR_STKERR_Msk) {
    28c8:	4b0d      	ldr	r3, [pc, #52]	; (2900 <bus_fault.isra.0+0x38>)
    28ca:	6a9a      	ldr	r2, [r3, #40]	; 0x28
		PR_FAULT_INFO("  Stacking error");
	}
	if (SCB->CFSR & SCB_CFSR_UNSTKERR_Msk) {
    28cc:	6a9a      	ldr	r2, [r3, #40]	; 0x28
		PR_FAULT_INFO("  Unstacking error");
	}
	if (SCB->CFSR & SCB_CFSR_PRECISERR_Msk) {
    28ce:	6a9a      	ldr	r2, [r3, #40]	; 0x28
    28d0:	0592      	lsls	r2, r2, #22
    28d2:	d508      	bpl.n	28e6 <bus_fault.isra.0+0x1e>
		 * The BFAR address is valid only if this bit is 1.
		 *
		 * Software must follow this sequence because another
		 * higher priority exception might change the BFAR value.
		 */
		STORE_xFAR(bfar, SCB->BFAR);
    28d4:	6b9a      	ldr	r2, [r3, #56]	; 0x38

		if ((SCB->CFSR & SCB_CFSR_BFARVALID_Msk) != 0) {
    28d6:	6a9a      	ldr	r2, [r3, #40]	; 0x28
    28d8:	0412      	lsls	r2, r2, #16
    28da:	d504      	bpl.n	28e6 <bus_fault.isra.0+0x1e>
			PR_EXC("  BFAR Address: 0x%x", bfar);
			if (from_hard_fault != 0) {
    28dc:	b118      	cbz	r0, 28e6 <bus_fault.isra.0+0x1e>
				/* clear SCB_CFSR_BFAR[VALID] to reset */
				SCB->CFSR &= ~SCB_CFSR_BFARVALID_Msk;
    28de:	6a9a      	ldr	r2, [r3, #40]	; 0x28
    28e0:	f422 4200 	bic.w	r2, r2, #32768	; 0x8000
    28e4:	629a      	str	r2, [r3, #40]	; 0x28
			}
		}
	}
	if (SCB->CFSR & SCB_CFSR_IMPRECISERR_Msk) {
    28e6:	4b06      	ldr	r3, [pc, #24]	; (2900 <bus_fault.isra.0+0x38>)
    28e8:	6a9a      	ldr	r2, [r3, #40]	; 0x28
		PR_FAULT_INFO("  Imprecise data bus error");
	}
	if ((SCB->CFSR & SCB_CFSR_IBUSERR_Msk) != 0) {
    28ea:	6a9a      	ldr	r2, [r3, #40]	; 0x28
    28ec:	05d2      	lsls	r2, r2, #23
		PR_FAULT_INFO("  Instruction bus error");
#if !defined(CONFIG_ARMV7_M_ARMV8_M_FP)
	}
#else
	} else if (SCB->CFSR & SCB_CFSR_LSPERR_Msk) {
    28ee:	bf58      	it	pl
    28f0:	6a9a      	ldrpl	r2, [r3, #40]	; 0x28
		SYSMPU->CESR &= ~sperr;
	}
#endif /* defined(CONFIG_ARM_MPU) && defined(CONFIG_CPU_HAS_NXP_MPU) */

	/* clear BFSR sticky bits */
	SCB->CFSR |= SCB_CFSR_BUSFAULTSR_Msk;
    28f2:	6a9a      	ldr	r2, [r3, #40]	; 0x28

	*recoverable = memory_fault_recoverable(esf, true);
    28f4:	2000      	movs	r0, #0
	SCB->CFSR |= SCB_CFSR_BUSFAULTSR_Msk;
    28f6:	f442 427f 	orr.w	r2, r2, #65280	; 0xff00
    28fa:	629a      	str	r2, [r3, #40]	; 0x28
	*recoverable = memory_fault_recoverable(esf, true);
    28fc:	7008      	strb	r0, [r1, #0]

	return reason;
}
    28fe:	4770      	bx	lr
    2900:	e000ed00 	.word	0xe000ed00

00002904 <usage_fault.isra.0>:
	uint32_t reason = K_ERR_CPU_EXCEPTION;

	PR_FAULT_INFO("***** USAGE FAULT *****");

	/* bits are sticky: they stack and must be reset */
	if ((SCB->CFSR & SCB_CFSR_DIVBYZERO_Msk) != 0) {
    2904:	4b07      	ldr	r3, [pc, #28]	; (2924 <usage_fault.isra.0+0x20>)
    2906:	6a9a      	ldr	r2, [r3, #40]	; 0x28
		PR_FAULT_INFO("  Division by zero");
	}
	if ((SCB->CFSR & SCB_CFSR_UNALIGNED_Msk) != 0) {
    2908:	6a9a      	ldr	r2, [r3, #40]	; 0x28
		 */
		reason = K_ERR_STACK_CHK_FAIL;
#endif /* CONFIG_BUILTIN_STACK_GUARD */
	}
#endif /* CONFIG_ARMV8_M_MAINLINE */
	if ((SCB->CFSR & SCB_CFSR_NOCP_Msk) != 0) {
    290a:	6a9a      	ldr	r2, [r3, #40]	; 0x28
		PR_FAULT_INFO("  No coprocessor instructions");
	}
	if ((SCB->CFSR & SCB_CFSR_INVPC_Msk) != 0) {
    290c:	6a9a      	ldr	r2, [r3, #40]	; 0x28
		PR_FAULT_INFO("  Illegal load of EXC_RETURN into PC");
	}
	if ((SCB->CFSR & SCB_CFSR_INVSTATE_Msk) != 0) {
    290e:	6a9a      	ldr	r2, [r3, #40]	; 0x28
		PR_FAULT_INFO("  Illegal use of the EPSR");
	}
	if ((SCB->CFSR & SCB_CFSR_UNDEFINSTR_Msk) != 0) {
    2910:	6a9a      	ldr	r2, [r3, #40]	; 0x28
		PR_FAULT_INFO("  Attempt to execute undefined instruction");
	}

	/* clear UFSR sticky bits */
	SCB->CFSR |= SCB_CFSR_USGFAULTSR_Msk;
    2912:	6a9a      	ldr	r2, [r3, #40]	; 0x28
    2914:	ea6f 4202 	mvn.w	r2, r2, lsl #16
    2918:	ea6f 4212 	mvn.w	r2, r2, lsr #16
    291c:	629a      	str	r2, [r3, #40]	; 0x28

	return reason;
}
    291e:	2000      	movs	r0, #0
    2920:	4770      	bx	lr
    2922:	bf00      	nop
    2924:	e000ed00 	.word	0xe000ed00

00002928 <z_arm_fault>:
 * @param callee_regs Callee-saved registers (R4-R11, PSP)
 *
 */
void z_arm_fault(uint32_t msp, uint32_t psp, uint32_t exc_return,
	_callee_saved_t *callee_regs)
{
    2928:	b570      	push	{r4, r5, r6, lr}
	uint32_t reason = K_ERR_CPU_EXCEPTION;
	int fault = SCB->ICSR & SCB_ICSR_VECTACTIVE_Msk;
    292a:	4b3e      	ldr	r3, [pc, #248]	; (2a24 <z_arm_fault+0xfc>)
    292c:	685b      	ldr	r3, [r3, #4]
{
    292e:	b08a      	sub	sp, #40	; 0x28
    2930:	460d      	mov	r5, r1
	int fault = SCB->ICSR & SCB_ICSR_VECTACTIVE_Msk;
    2932:	f3c3 0308 	ubfx	r3, r3, #0, #9
    2936:	2600      	movs	r6, #0
    2938:	f386 8811 	msr	BASEPRI, r6
    293c:	f3bf 8f6f 	isb	sy
	if ((exc_return & EXC_RETURN_INDICATOR_PREFIX) !=
    2940:	f002 417f 	and.w	r1, r2, #4278190080	; 0xff000000
    2944:	f1b1 4f7f 	cmp.w	r1, #4278190080	; 0xff000000
    2948:	d111      	bne.n	296e <z_arm_fault+0x46>
	if ((exc_return & EXC_RETURN_MODE_THREAD) &&
    294a:	f002 010c 	and.w	r1, r2, #12
    294e:	2908      	cmp	r1, #8
    2950:	d00d      	beq.n	296e <z_arm_fault+0x46>
		if (exc_return & EXC_RETURN_MODE_THREAD) {
    2952:	0712      	lsls	r2, r2, #28
    2954:	d401      	bmi.n	295a <z_arm_fault+0x32>
			ptr_esf = (z_arch_esf_t *)msp;
    2956:	4605      	mov	r5, r0
			*nested_exc = true;
    2958:	2601      	movs	r6, #1
	*recoverable = false;
    295a:	2200      	movs	r2, #0
    295c:	3b03      	subs	r3, #3
    295e:	f88d 2007 	strb.w	r2, [sp, #7]
	switch (fault) {
    2962:	2b03      	cmp	r3, #3
    2964:	d857      	bhi.n	2a16 <z_arm_fault+0xee>
    2966:	e8df f003 	tbb	[pc, r3]
    296a:	4e04      	.short	0x4e04
    296c:	4b52      	.short	0x4b52
		return NULL;
    296e:	4635      	mov	r5, r6
    2970:	e7f3      	b.n	295a <z_arm_fault+0x32>
	if ((SCB->HFSR & SCB_HFSR_VECTTBL_Msk) != 0) {
    2972:	4b2c      	ldr	r3, [pc, #176]	; (2a24 <z_arm_fault+0xfc>)
    2974:	6adc      	ldr	r4, [r3, #44]	; 0x2c
    2976:	f014 0402 	ands.w	r4, r4, #2
    297a:	d14c      	bne.n	2a16 <z_arm_fault+0xee>
	} else if ((SCB->HFSR & SCB_HFSR_DEBUGEVT_Msk) != 0) {
    297c:	6ada      	ldr	r2, [r3, #44]	; 0x2c
    297e:	2a00      	cmp	r2, #0
    2980:	db18      	blt.n	29b4 <z_arm_fault+0x8c>
	} else if ((SCB->HFSR & SCB_HFSR_FORCED_Msk) != 0) {
    2982:	6adb      	ldr	r3, [r3, #44]	; 0x2c
    2984:	005b      	lsls	r3, r3, #1
    2986:	d515      	bpl.n	29b4 <z_arm_fault+0x8c>
	uint16_t fault_insn = *(ret_addr - 1);
    2988:	69ab      	ldr	r3, [r5, #24]
	if (((fault_insn & 0xff00) == _SVC_OPCODE) &&
    298a:	f833 2c02 	ldrh.w	r2, [r3, #-2]
    298e:	f64d 7302 	movw	r3, #57090	; 0xdf02
    2992:	429a      	cmp	r2, r3
    2994:	d00d      	beq.n	29b2 <z_arm_fault+0x8a>
		} else if (SCB_MMFSR != 0) {
    2996:	f103 4360 	add.w	r3, r3, #3758096384	; 0xe0000000
    299a:	f603 6326 	addw	r3, r3, #3622	; 0xe26
    299e:	781b      	ldrb	r3, [r3, #0]
    29a0:	b303      	cbz	r3, 29e4 <z_arm_fault+0xbc>
			reason = mem_manage_fault(esf, 1, recoverable);
    29a2:	f10d 0207 	add.w	r2, sp, #7
    29a6:	2101      	movs	r1, #1
		reason = mem_manage_fault(esf, 0, recoverable);
    29a8:	4628      	mov	r0, r5
    29aa:	f7ff ff57 	bl	285c <mem_manage_fault>
    29ae:	4604      	mov	r4, r0
		break;
    29b0:	e000      	b.n	29b4 <z_arm_fault+0x8c>
			reason = esf->basic.r0;
    29b2:	682c      	ldr	r4, [r5, #0]
#ifdef CONFIG_DEBUG_COREDUMP
	z_arm_coredump_fault_sp = POINTER_TO_UINT(esf);
#endif

	reason = fault_handle(esf, fault, &recoverable);
	if (recoverable) {
    29b4:	f89d 3007 	ldrb.w	r3, [sp, #7]
    29b8:	b993      	cbnz	r3, 29e0 <z_arm_fault+0xb8>
		return;
	}

	/* Copy ESF */
#if !defined(CONFIG_EXTRA_EXCEPTION_INFO)
	memcpy(&esf_copy, esf, sizeof(z_arch_esf_t));
    29ba:	2220      	movs	r2, #32
    29bc:	4629      	mov	r1, r5
    29be:	a802      	add	r0, sp, #8
    29c0:	f004 f879 	bl	6ab6 <memcpy>
	/* Overwrite stacked IPSR to mark a nested exception,
	 * or a return to Thread mode. Note that this may be
	 * required, if the retrieved ESF contents are invalid
	 * due to, for instance, a stacking error.
	 */
	if (nested_exc) {
    29c4:	9b09      	ldr	r3, [sp, #36]	; 0x24
    29c6:	b346      	cbz	r6, 2a1a <z_arm_fault+0xf2>
		if ((esf_copy.basic.xpsr & IPSR_ISR_Msk) == 0) {
    29c8:	f3c3 0208 	ubfx	r2, r3, #0, #9
    29cc:	b922      	cbnz	r2, 29d8 <z_arm_fault+0xb0>
			esf_copy.basic.xpsr |= IPSR_ISR_Msk;
    29ce:	ea6f 2353 	mvn.w	r3, r3, lsr #9
    29d2:	ea6f 2343 	mvn.w	r3, r3, lsl #9
		}
	} else {
		esf_copy.basic.xpsr &= ~(IPSR_ISR_Msk);
    29d6:	9309      	str	r3, [sp, #36]	; 0x24
	}

	z_arm_fatal_error(reason, &esf_copy);
    29d8:	a902      	add	r1, sp, #8
    29da:	4620      	mov	r0, r4
    29dc:	f004 f839 	bl	6a52 <z_arm_fatal_error>
}
    29e0:	b00a      	add	sp, #40	; 0x28
    29e2:	bd70      	pop	{r4, r5, r6, pc}
		} else if (SCB_BFSR != 0) {
    29e4:	4b10      	ldr	r3, [pc, #64]	; (2a28 <z_arm_fault+0x100>)
    29e6:	781b      	ldrb	r3, [r3, #0]
    29e8:	b12b      	cbz	r3, 29f6 <z_arm_fault+0xce>
			reason = bus_fault(esf, 1, recoverable);
    29ea:	f10d 0107 	add.w	r1, sp, #7
    29ee:	2001      	movs	r0, #1
		reason = bus_fault(esf, 0, recoverable);
    29f0:	f7ff ff6a 	bl	28c8 <bus_fault.isra.0>
    29f4:	e7db      	b.n	29ae <z_arm_fault+0x86>
		} else if (SCB_UFSR != 0) {
    29f6:	4b0d      	ldr	r3, [pc, #52]	; (2a2c <z_arm_fault+0x104>)
    29f8:	881b      	ldrh	r3, [r3, #0]
    29fa:	b29b      	uxth	r3, r3
    29fc:	2b00      	cmp	r3, #0
    29fe:	d0d9      	beq.n	29b4 <z_arm_fault+0x8c>
		reason = usage_fault(esf);
    2a00:	f7ff ff80 	bl	2904 <usage_fault.isra.0>
    2a04:	e7d3      	b.n	29ae <z_arm_fault+0x86>
		reason = mem_manage_fault(esf, 0, recoverable);
    2a06:	f10d 0207 	add.w	r2, sp, #7
    2a0a:	2100      	movs	r1, #0
    2a0c:	e7cc      	b.n	29a8 <z_arm_fault+0x80>
		reason = bus_fault(esf, 0, recoverable);
    2a0e:	f10d 0107 	add.w	r1, sp, #7
    2a12:	2000      	movs	r0, #0
    2a14:	e7ec      	b.n	29f0 <z_arm_fault+0xc8>
	uint32_t reason = K_ERR_CPU_EXCEPTION;
    2a16:	2400      	movs	r4, #0
    2a18:	e7cc      	b.n	29b4 <z_arm_fault+0x8c>
		esf_copy.basic.xpsr &= ~(IPSR_ISR_Msk);
    2a1a:	f423 73ff 	bic.w	r3, r3, #510	; 0x1fe
    2a1e:	f023 0301 	bic.w	r3, r3, #1
    2a22:	e7d8      	b.n	29d6 <z_arm_fault+0xae>
    2a24:	e000ed00 	.word	0xe000ed00
    2a28:	e000ed29 	.word	0xe000ed29
    2a2c:	e000ed2a 	.word	0xe000ed2a

00002a30 <z_arm_fault_init>:
 */
void z_arm_fault_init(void)
{
#if defined(CONFIG_ARMV6_M_ARMV8_M_BASELINE)
#elif defined(CONFIG_ARMV7_M_ARMV8_M_MAINLINE)
	SCB->CCR |= SCB_CCR_DIV_0_TRP_Msk;
    2a30:	4a02      	ldr	r2, [pc, #8]	; (2a3c <z_arm_fault_init+0xc>)
    2a32:	6953      	ldr	r3, [r2, #20]
    2a34:	f043 0310 	orr.w	r3, r3, #16
    2a38:	6153      	str	r3, [r2, #20]
	 * Stack to attempt to descend into secure region, in which case a
	 * Secure Hard Fault will occur and we can track the fault from there.
	 */
	SCB->CCR |= SCB_CCR_STKOFHFNMIGN_Msk;
#endif /* CONFIG_BUILTIN_STACK_GUARD */
}
    2a3a:	4770      	bx	lr
    2a3c:	e000ed00 	.word	0xe000ed00

00002a40 <z_arm_interrupt_init>:
    2a40:	4804      	ldr	r0, [pc, #16]	; (2a54 <z_arm_interrupt_init+0x14>)
 * @return N/A
 */

void z_arm_interrupt_init(void)
{
	int irq = 0;
    2a42:	2300      	movs	r3, #0
    2a44:	2120      	movs	r1, #32
    2a46:	18c2      	adds	r2, r0, r3

	for (; irq < CONFIG_NUM_IRQS; irq++) {
    2a48:	3301      	adds	r3, #1
    2a4a:	2b30      	cmp	r3, #48	; 0x30
    2a4c:	f882 1300 	strb.w	r1, [r2, #768]	; 0x300
    2a50:	d1f9      	bne.n	2a46 <z_arm_interrupt_init+0x6>
		NVIC_SetPriority((IRQn_Type)irq, _IRQ_PRIO_OFFSET);
	}
}
    2a52:	4770      	bx	lr
    2a54:	e000e100 	.word	0xe000e100

00002a58 <z_arm_clear_arm_mpu_config>:
void z_arm_clear_arm_mpu_config(void)
{
	int i;

	int num_regions =
		((MPU->TYPE & MPU_TYPE_DREGION_Msk) >> MPU_TYPE_DREGION_Pos);
    2a58:	4a06      	ldr	r2, [pc, #24]	; (2a74 <z_arm_clear_arm_mpu_config+0x1c>)
    2a5a:	6811      	ldr	r1, [r2, #0]

	for (i = 0; i < num_regions; i++) {
    2a5c:	2300      	movs	r3, #0
	int num_regions =
    2a5e:	f3c1 2107 	ubfx	r1, r1, #8, #8
* \param rnr Region number to be cleared.
*/
__STATIC_INLINE void ARM_MPU_ClrRegion(uint32_t rnr)
{
  MPU->RNR = rnr;
  MPU->RASR = 0U;
    2a62:	4618      	mov	r0, r3
	for (i = 0; i < num_regions; i++) {
    2a64:	428b      	cmp	r3, r1
    2a66:	d100      	bne.n	2a6a <z_arm_clear_arm_mpu_config+0x12>
		ARM_MPU_ClrRegion(i);
	}
}
    2a68:	4770      	bx	lr
  MPU->RNR = rnr;
    2a6a:	6093      	str	r3, [r2, #8]
  MPU->RASR = 0U;
    2a6c:	6110      	str	r0, [r2, #16]
	for (i = 0; i < num_regions; i++) {
    2a6e:	3301      	adds	r3, #1
    2a70:	e7f8      	b.n	2a64 <z_arm_clear_arm_mpu_config+0xc>
    2a72:	bf00      	nop
    2a74:	e000ed90 	.word	0xe000ed90

00002a78 <z_arm_init_arch_hw_at_boot>:
 * components and core registers.
 *
 * @return N/A
 */
void z_arm_init_arch_hw_at_boot(void)
{
    2a78:	b508      	push	{r3, lr}
  __ASM volatile ("cpsid i" : : : "memory");
    2a7a:	b672      	cpsid	i
  \details Assigns the given value to the Fault Mask register.
  \param [in]    faultMask  Fault Mask value to set
 */
__STATIC_FORCEINLINE void __set_FAULTMASK(uint32_t faultMask)
{
  __ASM volatile ("MSR faultmask, %0" : : "r" (faultMask) : "memory");
    2a7c:	2300      	movs	r3, #0
    2a7e:	f383 8813 	msr	FAULTMASK, r3

	/* Initialize System Control Block components */

#if defined(CONFIG_CPU_HAS_ARM_MPU) || defined(CONFIG_CPU_HAS_NXP_MPU)
	/* Clear MPU region configuration */
	z_arm_clear_arm_mpu_config();
    2a82:	f7ff ffe9 	bl	2a58 <z_arm_clear_arm_mpu_config>
#endif /* CONFIG_CPU_HAS_ARM_MPU */

	/* Disable NVIC interrupts */
	for (uint8_t i = 0; i < ARRAY_SIZE(NVIC->ICER); i++) {
		NVIC->ICER[i] = 0xFFFFFFFF;
    2a86:	4b14      	ldr	r3, [pc, #80]	; (2ad8 <z_arm_init_arch_hw_at_boot+0x60>)
    2a88:	f04f 32ff 	mov.w	r2, #4294967295
    2a8c:	f8c3 2080 	str.w	r2, [r3, #128]	; 0x80
    2a90:	f8c3 2084 	str.w	r2, [r3, #132]	; 0x84
    2a94:	f8c3 2088 	str.w	r2, [r3, #136]	; 0x88
    2a98:	f8c3 208c 	str.w	r2, [r3, #140]	; 0x8c
    2a9c:	f8c3 2090 	str.w	r2, [r3, #144]	; 0x90
    2aa0:	f8c3 2094 	str.w	r2, [r3, #148]	; 0x94
    2aa4:	f8c3 2098 	str.w	r2, [r3, #152]	; 0x98
    2aa8:	f8c3 209c 	str.w	r2, [r3, #156]	; 0x9c
	}
	/* Clear pending NVIC interrupts */
	for (uint8_t i = 0; i < ARRAY_SIZE(NVIC->ICPR); i++) {
		NVIC->ICPR[i] = 0xFFFFFFFF;
    2aac:	f8c3 2180 	str.w	r2, [r3, #384]	; 0x180
    2ab0:	f8c3 2184 	str.w	r2, [r3, #388]	; 0x184
    2ab4:	f8c3 2188 	str.w	r2, [r3, #392]	; 0x188
    2ab8:	f8c3 218c 	str.w	r2, [r3, #396]	; 0x18c
    2abc:	f8c3 2190 	str.w	r2, [r3, #400]	; 0x190
    2ac0:	f8c3 2194 	str.w	r2, [r3, #404]	; 0x194
    2ac4:	f8c3 2198 	str.w	r2, [r3, #408]	; 0x198
    2ac8:	f8c3 219c 	str.w	r2, [r3, #412]	; 0x19c
  __ASM volatile ("cpsie i" : : : "memory");
    2acc:	b662      	cpsie	i
  __ASM volatile ("dsb 0xF":::"memory");
    2ace:	f3bf 8f4f 	dsb	sy
  __ASM volatile ("isb 0xF":::"memory");
    2ad2:	f3bf 8f6f 	isb	sy
	/* Restore Interrupts */
	__enable_irq();

	__DSB();
	__ISB();
}
    2ad6:	bd08      	pop	{r3, pc}
    2ad8:	e000e100 	.word	0xe000e100

00002adc <z_impl_k_thread_abort>:
#include <wait_q.h>
#include <sys/__assert.h>

void z_impl_k_thread_abort(k_tid_t thread)
{
	if (_current == thread) {
    2adc:	4b06      	ldr	r3, [pc, #24]	; (2af8 <z_impl_k_thread_abort+0x1c>)
    2ade:	689b      	ldr	r3, [r3, #8]
    2ae0:	4283      	cmp	r3, r0
    2ae2:	d107      	bne.n	2af4 <z_impl_k_thread_abort+0x18>
  __ASM volatile ("MRS %0, ipsr" : "=r" (result) );
    2ae4:	f3ef 8305 	mrs	r3, IPSR
		if (arch_is_in_isr()) {
    2ae8:	b123      	cbz	r3, 2af4 <z_impl_k_thread_abort+0x18>
			 * should no longer run after we return, so
			 * Trigger PendSV, in case we are in one of the
			 * situations where the isr check is true but there
			 * is not an implicit scheduler invocation.
			 */
			SCB->ICSR |= SCB_ICSR_PENDSVSET_Msk;
    2aea:	4a04      	ldr	r2, [pc, #16]	; (2afc <z_impl_k_thread_abort+0x20>)
    2aec:	6853      	ldr	r3, [r2, #4]
    2aee:	f043 5380 	orr.w	r3, r3, #268435456	; 0x10000000
    2af2:	6053      	str	r3, [r2, #4]
		}
	}

	z_thread_abort(thread);
    2af4:	f002 becc 	b.w	5890 <z_thread_abort>
    2af8:	20000c70 	.word	0x20000c70
    2afc:	e000ed00 	.word	0xe000ed00

00002b00 <z_arm_configure_static_mpu_regions>:
	/* Configure the static MPU regions within firmware SRAM boundaries.
	 * Start address of the image is given by _image_ram_start. The end
	 * of the firmware SRAM area is marked by __kernel_ram_end, taking
	 * into account the unused SRAM area, as well.
	 */
	arm_core_mpu_configure_static_mpu_regions(static_regions,
    2b00:	4b02      	ldr	r3, [pc, #8]	; (2b0c <z_arm_configure_static_mpu_regions+0xc>)
    2b02:	4a03      	ldr	r2, [pc, #12]	; (2b10 <z_arm_configure_static_mpu_regions+0x10>)
    2b04:	4803      	ldr	r0, [pc, #12]	; (2b14 <z_arm_configure_static_mpu_regions+0x14>)
    2b06:	2101      	movs	r1, #1
    2b08:	f000 b868 	b.w	2bdc <arm_core_mpu_configure_static_mpu_regions>
    2b0c:	20040000 	.word	0x20040000
    2b10:	20000000 	.word	0x20000000
    2b14:	00007864 	.word	0x00007864

00002b18 <z_arm_configure_dynamic_mpu_regions>:
#endif /* CONFIG_USERSPACE */
	{
		/* A supervisor thread only has the normal thread stack to
		 * protect with a stack guard.
		 */
		guard_start = thread->stack_info.start - guard_size;
    2b18:	6e42      	ldr	r2, [r0, #100]	; 0x64
	}

	__ASSERT(region_num < _MAX_DYNAMIC_MPU_REGIONS_NUM,
		"Out-of-bounds error for dynamic region map.");

	dynamic_regions[region_num].start = guard_start;
    2b1a:	4b05      	ldr	r3, [pc, #20]	; (2b30 <z_arm_configure_dynamic_mpu_regions+0x18>)
		guard_start = thread->stack_info.start - guard_size;
    2b1c:	3a20      	subs	r2, #32
	dynamic_regions[region_num].start = guard_start;
    2b1e:	601a      	str	r2, [r3, #0]
	dynamic_regions[region_num].size = guard_size;
	dynamic_regions[region_num].attr = K_MEM_PARTITION_P_RO_U_NA;
    2b20:	4a04      	ldr	r2, [pc, #16]	; (2b34 <z_arm_configure_dynamic_mpu_regions+0x1c>)
    2b22:	2120      	movs	r1, #32
    2b24:	e9c3 1201 	strd	r1, r2, [r3, #4]

	region_num++;
#endif /* CONFIG_MPU_STACK_GUARD */

	/* Configure the dynamic MPU regions */
	arm_core_mpu_configure_dynamic_mpu_regions(dynamic_regions,
    2b28:	4618      	mov	r0, r3
    2b2a:	2101      	movs	r1, #1
    2b2c:	f000 b860 	b.w	2bf0 <arm_core_mpu_configure_dynamic_mpu_regions>
    2b30:	20000bb0 	.word	0x20000bb0
    2b34:	150b0000 	.word	0x150b0000

00002b38 <mpu_configure_regions>:
 * sanity check of the memory regions to be programmed.
 */
static int mpu_configure_regions(const struct z_arm_mpu_partition
	regions[], uint8_t regions_num, uint8_t start_reg_index,
	bool do_sanity_check)
{
    2b38:	b5f0      	push	{r4, r5, r6, r7, lr}
#endif /* CPU_CORTEX_M0PLUS | CPU_CORTEX_M3 | CPU_CORTEX_M4 */
}

static inline void set_region_number(uint32_t index)
{
	MPU->RNR = index;
    2b3a:	4f1e      	ldr	r7, [pc, #120]	; (2bb4 <mpu_configure_regions+0x7c>)
	int i;
	int reg_index = start_reg_index;

	for (i = 0; i < regions_num; i++) {
    2b3c:	2600      	movs	r6, #0
    2b3e:	428e      	cmp	r6, r1
    2b40:	db01      	blt.n	2b46 <mpu_configure_regions+0xe>
		/* Increment number of programmed MPU indices. */
		reg_index++;
	}

	return reg_index;
}
    2b42:	4610      	mov	r0, r2
    2b44:	bdf0      	pop	{r4, r5, r6, r7, pc}
		if (regions[i].size == 0U) {
    2b46:	6844      	ldr	r4, [r0, #4]
    2b48:	b384      	cbz	r4, 2bac <mpu_configure_regions+0x74>
		if (do_sanity_check &&
    2b4a:	b153      	cbz	r3, 2b62 <mpu_configure_regions+0x2a>
	 * and greater or equal to the minimum
	 * MPU region size. Start address of the
	 * partition must align with size.
	 */
	int partition_is_valid =
		((part->size & (part->size - 1U)) == 0U)
    2b4c:	f104 3cff 	add.w	ip, r4, #4294967295
		&&
		(part->size >= CONFIG_ARM_MPU_REGION_MIN_ALIGN_AND_SIZE)
		&&
    2b50:	ea14 0f0c 	tst.w	r4, ip
    2b54:	d118      	bne.n	2b88 <mpu_configure_regions+0x50>
		&&
    2b56:	2c1f      	cmp	r4, #31
    2b58:	d916      	bls.n	2b88 <mpu_configure_regions+0x50>
		((part->start & (part->size - 1U)) == 0U);
    2b5a:	6805      	ldr	r5, [r0, #0]
		&&
    2b5c:	ea1c 0f05 	tst.w	ip, r5
    2b60:	d112      	bne.n	2b88 <mpu_configure_regions+0x50>
 * to that power-of-two value.
 */
static inline uint32_t size_to_mpu_rasr_size(uint32_t size)
{
	/* The minimal supported region size is 32 bytes */
	if (size <= 32U) {
    2b62:	2c20      	cmp	r4, #32
	region_conf.base = new_region->start;
    2b64:	6805      	ldr	r5, [r0, #0]
	get_region_attr_from_mpu_partition_info(&region_conf.attr,
    2b66:	f8d0 c008 	ldr.w	ip, [r0, #8]
		reg_index = mpu_configure_region(reg_index, &regions[i]);
    2b6a:	b2d2      	uxtb	r2, r2
    2b6c:	d90f      	bls.n	2b8e <mpu_configure_regions+0x56>
	/*
	 * A size value greater than 2^31 could not be handled by
	 * round_up_to_next_power_of_two() properly. We handle
	 * it separately here.
	 */
	if (size > (1UL << 31)) {
    2b6e:	f1b4 4f00 	cmp.w	r4, #2147483648	; 0x80000000
    2b72:	d80e      	bhi.n	2b92 <mpu_configure_regions+0x5a>
		return REGION_4G;
	}

	return ((32 - __builtin_clz(size - 1U) - 2 + 1) << MPU_RASR_SIZE_Pos) &
    2b74:	3c01      	subs	r4, #1
    2b76:	fab4 f484 	clz	r4, r4
    2b7a:	f1c4 041f 	rsb	r4, r4, #31
    2b7e:	0064      	lsls	r4, r4, #1
	if (index > (get_num_regions() - 1U)) {
    2b80:	2a07      	cmp	r2, #7
#if defined(CONFIG_CPU_CORTEX_R)
	(void) size;

	p_attr->rasr = attr->rasr_attr;
#else
	p_attr->rasr = attr->rasr_attr | size_to_mpu_rasr_size(size);
    2b82:	ea4c 0404 	orr.w	r4, ip, r4
    2b86:	d906      	bls.n	2b96 <mpu_configure_regions+0x5e>
			return -EINVAL;
    2b88:	f06f 0215 	mvn.w	r2, #21
    2b8c:	e7d9      	b.n	2b42 <mpu_configure_regions+0xa>
		return REGION_32B;
    2b8e:	2408      	movs	r4, #8
    2b90:	e7f6      	b.n	2b80 <mpu_configure_regions+0x48>
		return REGION_4G;
    2b92:	243e      	movs	r4, #62	; 0x3e
    2b94:	e7f4      	b.n	2b80 <mpu_configure_regions+0x48>
	MPU->RBAR = (region_conf->base & MPU_RBAR_ADDR_Msk)
    2b96:	f025 051f 	bic.w	r5, r5, #31
				| MPU_RBAR_VALID_Msk | index;
    2b9a:	4315      	orrs	r5, r2
    2b9c:	f045 0510 	orr.w	r5, r5, #16
	MPU->RASR = region_conf->attr.rasr | MPU_RASR_ENABLE_Msk;
    2ba0:	f044 0401 	orr.w	r4, r4, #1
    2ba4:	60ba      	str	r2, [r7, #8]
	MPU->RBAR = (region_conf->base & MPU_RBAR_ADDR_Msk)
    2ba6:	60fd      	str	r5, [r7, #12]
		reg_index++;
    2ba8:	3201      	adds	r2, #1
	MPU->RASR = region_conf->attr.rasr | MPU_RASR_ENABLE_Msk;
    2baa:	613c      	str	r4, [r7, #16]
	for (i = 0; i < regions_num; i++) {
    2bac:	3601      	adds	r6, #1
    2bae:	300c      	adds	r0, #12
    2bb0:	e7c5      	b.n	2b3e <mpu_configure_regions+0x6>
    2bb2:	bf00      	nop
    2bb4:	e000ed90 	.word	0xe000ed90

00002bb8 <arm_core_mpu_enable>:
void arm_core_mpu_enable(void)
{
	/* Enable MPU and use the default memory map as a
	 * background region for privileged software access.
	 */
	MPU->CTRL = MPU_CTRL_ENABLE_Msk | MPU_CTRL_PRIVDEFENA_Msk;
    2bb8:	4b03      	ldr	r3, [pc, #12]	; (2bc8 <arm_core_mpu_enable+0x10>)
    2bba:	2205      	movs	r2, #5
    2bbc:	605a      	str	r2, [r3, #4]
  __ASM volatile ("dsb 0xF":::"memory");
    2bbe:	f3bf 8f4f 	dsb	sy
  __ASM volatile ("isb 0xF":::"memory");
    2bc2:	f3bf 8f6f 	isb	sy

	/* Make sure that all the registers are set before proceeding */
	__DSB();
	__ISB();
}
    2bc6:	4770      	bx	lr
    2bc8:	e000ed90 	.word	0xe000ed90

00002bcc <arm_core_mpu_disable>:
  __ASM volatile ("dmb 0xF":::"memory");
    2bcc:	f3bf 8f5f 	dmb	sy
{
	/* Force any outstanding transfers to complete before disabling MPU */
	__DMB();

	/* Disable MPU */
	MPU->CTRL = 0;
    2bd0:	4b01      	ldr	r3, [pc, #4]	; (2bd8 <arm_core_mpu_disable+0xc>)
    2bd2:	2200      	movs	r2, #0
    2bd4:	605a      	str	r2, [r3, #4]
}
    2bd6:	4770      	bx	lr
    2bd8:	e000ed90 	.word	0xe000ed90

00002bdc <arm_core_mpu_configure_static_mpu_regions>:
 * @brief configure fixed (static) MPU regions.
 */
void arm_core_mpu_configure_static_mpu_regions(const struct z_arm_mpu_partition
	static_regions[], const uint8_t regions_num,
	const uint32_t background_area_start, const uint32_t background_area_end)
{
    2bdc:	b510      	push	{r4, lr}
static int mpu_configure_static_mpu_regions(const struct z_arm_mpu_partition
	static_regions[], const uint8_t regions_num,
	const uint32_t background_area_base,
	const uint32_t background_area_end)
{
	int mpu_reg_index = static_regions_num;
    2bde:	4c03      	ldr	r4, [pc, #12]	; (2bec <arm_core_mpu_configure_static_mpu_regions+0x10>)
	 * programmed on top of SRAM region configuration.
	 */
	ARG_UNUSED(background_area_base);
	ARG_UNUSED(background_area_end);

	mpu_reg_index = mpu_configure_regions(static_regions,
    2be0:	2301      	movs	r3, #1
    2be2:	7822      	ldrb	r2, [r4, #0]
    2be4:	f7ff ffa8 	bl	2b38 <mpu_configure_regions>
		regions_num, mpu_reg_index, true);

	static_regions_num = mpu_reg_index;
    2be8:	7020      	strb	r0, [r4, #0]
					       background_area_start, background_area_end) == -EINVAL) {

		__ASSERT(0, "Configuring %u static MPU regions failed\n",
			regions_num);
	}
}
    2bea:	bd10      	pop	{r4, pc}
    2bec:	20000f06 	.word	0x20000f06

00002bf0 <arm_core_mpu_configure_dynamic_mpu_regions>:
/**
 * @brief configure dynamic MPU regions.
 */
void arm_core_mpu_configure_dynamic_mpu_regions(const struct z_arm_mpu_partition
	dynamic_regions[], uint8_t regions_num)
{
    2bf0:	b508      	push	{r3, lr}

	/* In ARMv7-M architecture the dynamic regions are
	 * programmed on top of existing SRAM region configuration.
	 */

	mpu_reg_index = mpu_configure_regions(dynamic_regions,
    2bf2:	4a08      	ldr	r2, [pc, #32]	; (2c14 <arm_core_mpu_configure_dynamic_mpu_regions+0x24>)
    2bf4:	2300      	movs	r3, #0
    2bf6:	7812      	ldrb	r2, [r2, #0]
    2bf8:	f7ff ff9e 	bl	2b38 <mpu_configure_regions>
		regions_num, mpu_reg_index, false);

	if (mpu_reg_index != -EINVAL) {
    2bfc:	f110 0f16 	cmn.w	r0, #22
    2c00:	d003      	beq.n	2c0a <arm_core_mpu_configure_dynamic_mpu_regions+0x1a>
  MPU->RNR = rnr;
    2c02:	4b05      	ldr	r3, [pc, #20]	; (2c18 <arm_core_mpu_configure_dynamic_mpu_regions+0x28>)
  MPU->RASR = 0U;
    2c04:	2200      	movs	r2, #0

		/* Disable the non-programmed MPU regions. */
		for (int i = mpu_reg_index; i < get_num_regions(); i++) {
    2c06:	2807      	cmp	r0, #7
    2c08:	dd00      	ble.n	2c0c <arm_core_mpu_configure_dynamic_mpu_regions+0x1c>
		== -EINVAL) {

		__ASSERT(0, "Configuring %u dynamic MPU regions failed\n",
			regions_num);
	}
}
    2c0a:	bd08      	pop	{r3, pc}
  MPU->RNR = rnr;
    2c0c:	6098      	str	r0, [r3, #8]
  MPU->RASR = 0U;
    2c0e:	611a      	str	r2, [r3, #16]
    2c10:	3001      	adds	r0, #1
    2c12:	e7f8      	b.n	2c06 <arm_core_mpu_configure_dynamic_mpu_regions+0x16>
    2c14:	20000f06 	.word	0x20000f06
    2c18:	e000ed90 	.word	0xe000ed90

00002c1c <z_arm_mpu_init>:
 */
int z_arm_mpu_init(void)
{
	uint32_t r_index;

	if (mpu_config.num_regions > get_num_regions()) {
    2c1c:	4913      	ldr	r1, [pc, #76]	; (2c6c <z_arm_mpu_init+0x50>)
    2c1e:	6808      	ldr	r0, [r1, #0]
    2c20:	2808      	cmp	r0, #8
{
    2c22:	b510      	push	{r4, lr}
	if (mpu_config.num_regions > get_num_regions()) {
    2c24:	d81e      	bhi.n	2c64 <z_arm_mpu_init+0x48>
		return -1;
	}

	LOG_DBG("total region count: %d", get_num_regions());

	arm_core_mpu_disable();
    2c26:	f7ff ffd1 	bl	2bcc <arm_core_mpu_disable>
    2c2a:	4c11      	ldr	r4, [pc, #68]	; (2c70 <z_arm_mpu_init+0x54>)
    2c2c:	6849      	ldr	r1, [r1, #4]

	/* Architecture-specific configuration */
	mpu_init();

	/* Program fixed regions configured at SOC definition. */
	for (r_index = 0U; r_index < mpu_config.num_regions; r_index++) {
    2c2e:	2200      	movs	r2, #0
    2c30:	4290      	cmp	r0, r2
    2c32:	f101 010c 	add.w	r1, r1, #12
    2c36:	d105      	bne.n	2c44 <z_arm_mpu_init+0x28>
		region_init(r_index, &mpu_config.mpu_regions[r_index]);
	}

	/* Update the number of programmed MPU regions. */
	static_regions_num = mpu_config.num_regions;
    2c38:	4b0e      	ldr	r3, [pc, #56]	; (2c74 <z_arm_mpu_init+0x58>)
    2c3a:	7018      	strb	r0, [r3, #0]


	arm_core_mpu_enable();
    2c3c:	f7ff ffbc 	bl	2bb8 <arm_core_mpu_enable>
		(MPU->TYPE & MPU_TYPE_DREGION_Msk) >> MPU_TYPE_DREGION_Pos ==
		NUM_MPU_REGIONS,
		"Invalid number of MPU regions\n");
#endif /* CORTEX_M0PLUS || CPU_CORTEX_M3 || CPU_CORTEX_M4 */

	return 0;
    2c40:	2000      	movs	r0, #0
}
    2c42:	bd10      	pop	{r4, pc}
    2c44:	60a2      	str	r2, [r4, #8]
	MPU->RBAR = (region_conf->base & MPU_RBAR_ADDR_Msk)
    2c46:	f851 3c0c 	ldr.w	r3, [r1, #-12]
    2c4a:	f023 031f 	bic.w	r3, r3, #31
				| MPU_RBAR_VALID_Msk | index;
    2c4e:	4313      	orrs	r3, r2
    2c50:	f043 0310 	orr.w	r3, r3, #16
	MPU->RBAR = (region_conf->base & MPU_RBAR_ADDR_Msk)
    2c54:	60e3      	str	r3, [r4, #12]
	MPU->RASR = region_conf->attr.rasr | MPU_RASR_ENABLE_Msk;
    2c56:	f851 3c04 	ldr.w	r3, [r1, #-4]
    2c5a:	f043 0301 	orr.w	r3, r3, #1
    2c5e:	6123      	str	r3, [r4, #16]
	for (r_index = 0U; r_index < mpu_config.num_regions; r_index++) {
    2c60:	3201      	adds	r2, #1
    2c62:	e7e5      	b.n	2c30 <z_arm_mpu_init+0x14>
		return -1;
    2c64:	f04f 30ff 	mov.w	r0, #4294967295
    2c68:	e7eb      	b.n	2c42 <z_arm_mpu_init+0x26>
    2c6a:	bf00      	nop
    2c6c:	00007870 	.word	0x00007870
    2c70:	e000ed90 	.word	0xe000ed90
    2c74:	20000f06 	.word	0x20000f06

00002c78 <printf>:

	return r;
}

int printf(const char *ZRESTRICT format, ...)
{
    2c78:	b40f      	push	{r0, r1, r2, r3}
    2c7a:	b507      	push	{r0, r1, r2, lr}
    2c7c:	ab04      	add	r3, sp, #16
	va_list vargs;
	int     r;

	va_start(vargs, format);
	r = cbvprintf(fputc, DESC(stdout), format, vargs);
    2c7e:	2102      	movs	r1, #2
{
    2c80:	f853 2b04 	ldr.w	r2, [r3], #4
	r = cbvprintf(fputc, DESC(stdout), format, vargs);
    2c84:	4804      	ldr	r0, [pc, #16]	; (2c98 <printf+0x20>)
	va_start(vargs, format);
    2c86:	9301      	str	r3, [sp, #4]
	r = cbvprintf(fputc, DESC(stdout), format, vargs);
    2c88:	f7fe fd52 	bl	1730 <cbvprintf>
	va_end(vargs);

	return r;
}
    2c8c:	b003      	add	sp, #12
    2c8e:	f85d eb04 	ldr.w	lr, [sp], #4
    2c92:	b004      	add	sp, #16
    2c94:	4770      	bx	lr
    2c96:	bf00      	nop
    2c98:	00006a7b 	.word	0x00006a7b

00002c9c <__stdout_hook_install>:

static int (*_stdout_hook)(int) = _stdout_hook_default;

void __stdout_hook_install(int (*hook)(int))
{
	_stdout_hook = hook;
    2c9c:	4b01      	ldr	r3, [pc, #4]	; (2ca4 <__stdout_hook_install+0x8>)
    2c9e:	6018      	str	r0, [r3, #0]
}
    2ca0:	4770      	bx	lr
    2ca2:	bf00      	nop
    2ca4:	200000c8 	.word	0x200000c8

00002ca8 <z_impl_zephyr_fputc>:

int z_impl_zephyr_fputc(int c, FILE *stream)
{
	return (stream == stdout || stream == stderr) ? _stdout_hook(c) : EOF;
    2ca8:	3902      	subs	r1, #2
    2caa:	2901      	cmp	r1, #1
    2cac:	d802      	bhi.n	2cb4 <z_impl_zephyr_fputc+0xc>
    2cae:	4b03      	ldr	r3, [pc, #12]	; (2cbc <z_impl_zephyr_fputc+0x14>)
    2cb0:	681b      	ldr	r3, [r3, #0]
    2cb2:	4718      	bx	r3
}
    2cb4:	f04f 30ff 	mov.w	r0, #4294967295
    2cb8:	4770      	bx	lr
    2cba:	bf00      	nop
    2cbc:	200000c8 	.word	0x200000c8

00002cc0 <nordicsemi_nrf52_init>:
	__asm__ volatile(
    2cc0:	f04f 0320 	mov.w	r3, #32
    2cc4:	f3ef 8111 	mrs	r1, BASEPRI
    2cc8:	f383 8812 	msr	BASEPRI_MAX, r3
    2ccc:	f3bf 8f6f 	isb	sy

	key = irq_lock();

#ifdef CONFIG_NRF_ENABLE_ICACHE
	/* Enable the instruction cache */
	NRF_NVMC->ICACHECNF = NVMC_ICACHECNF_CACHEEN_Msk;
    2cd0:	4a0f      	ldr	r2, [pc, #60]	; (2d10 <nordicsemi_nrf52_init+0x50>)
    2cd2:	2301      	movs	r3, #1
    2cd4:	f8c2 3540 	str.w	r3, [r2, #1344]	; 0x540
#endif

#if NRF_POWER_HAS_DCDCEN
NRF_STATIC_INLINE void nrf_power_dcdcen_set(NRF_POWER_Type * p_reg, bool enable)
{
    p_reg->DCDCEN = (enable ? POWER_DCDCEN_DCDCEN_Enabled : POWER_DCDCEN_DCDCEN_Disabled) <<
    2cd8:	f04f 4280 	mov.w	r2, #1073741824	; 0x40000000
    2cdc:	f8c2 3578 	str.w	r3, [r2, #1400]	; 0x578
{
    #ifndef NRF52_SERIES
        return false;
    #else
        #if defined (NRF52840_XXAA) || defined (DEVELOP_IN_NRF52840)
            uint32_t var1 = *(uint32_t *)0x10000130ul;
    2ce0:	4a0c      	ldr	r2, [pc, #48]	; (2d14 <nordicsemi_nrf52_init+0x54>)
            uint32_t var2 = *(uint32_t *)0x10000134ul;
        #endif
        #if defined (NRF52840_XXAA) || defined (DEVELOP_IN_NRF52840)
            if (var1 == 0x08)
    2ce2:	6812      	ldr	r2, [r2, #0]
    2ce4:	2a08      	cmp	r2, #8
    2ce6:	d108      	bne.n	2cfa <nordicsemi_nrf52_init+0x3a>
            uint32_t var2 = *(uint32_t *)0x10000134ul;
    2ce8:	4a0b      	ldr	r2, [pc, #44]	; (2d18 <nordicsemi_nrf52_init+0x58>)
    2cea:	6812      	ldr	r2, [r2, #0]
            {
                switch(var2)
    2cec:	2a05      	cmp	r2, #5
    2cee:	d804      	bhi.n	2cfa <nordicsemi_nrf52_init+0x3a>
#endif // defined(POWER_RAM_POWER_S0POWER_Msk)

#if NRF_POWER_HAS_DCDCEN_VDDH
NRF_STATIC_INLINE void nrf_power_dcdcen_vddh_set(NRF_POWER_Type * p_reg, bool enable)
{
    if (enable && nrf52_errata_197())
    2cf0:	480a      	ldr	r0, [pc, #40]	; (2d1c <nordicsemi_nrf52_init+0x5c>)
    2cf2:	5c82      	ldrb	r2, [r0, r2]
    2cf4:	b10a      	cbz	r2, 2cfa <nordicsemi_nrf52_init+0x3a>
    {
        // Workaround for anomaly 197 "POWER: DCDC of REG0 not functional".
        *(volatile uint32_t *)0x40000638ul = 1ul;
    2cf6:	4a0a      	ldr	r2, [pc, #40]	; (2d20 <nordicsemi_nrf52_init+0x60>)
    2cf8:	6013      	str	r3, [r2, #0]
    }
    p_reg->DCDCEN0 = (enable ? POWER_DCDCEN0_DCDCEN_Enabled : POWER_DCDCEN0_DCDCEN_Disabled) <<
    2cfa:	f04f 4380 	mov.w	r3, #1073741824	; 0x40000000
    2cfe:	2201      	movs	r2, #1
    2d00:	f8c3 2580 	str.w	r2, [r3, #1408]	; 0x580
	__asm__ volatile(
    2d04:	f381 8811 	msr	BASEPRI, r1
    2d08:	f3bf 8f6f 	isb	sy
	NMI_INIT();

	irq_unlock(key);

	return 0;
}
    2d0c:	2000      	movs	r0, #0
    2d0e:	4770      	bx	lr
    2d10:	4001e000 	.word	0x4001e000
    2d14:	10000130 	.word	0x10000130
    2d18:	10000134 	.word	0x10000134
    2d1c:	00007d71 	.word	0x00007d71
    2d20:	40000638 	.word	0x40000638

00002d24 <sys_arch_reboot>:
    *p_gpregret = val;
    2d24:	f04f 4380 	mov.w	r3, #1073741824	; 0x40000000
    2d28:	b2c0      	uxtb	r0, r0
    2d2a:	f8c3 051c 	str.w	r0, [r3, #1308]	; 0x51c
  __ASM volatile ("dsb 0xF":::"memory");
    2d2e:	f3bf 8f4f 	dsb	sy
__NO_RETURN __STATIC_INLINE void __NVIC_SystemReset(void)
{
  __DSB();                                                          /* Ensure all outstanding memory accesses included
                                                                       buffered write are completed before reset */
  SCB->AIRCR  = (uint32_t)((0x5FAUL << SCB_AIRCR_VECTKEY_Pos)    |
                           (SCB->AIRCR & SCB_AIRCR_PRIGROUP_Msk) |
    2d32:	4905      	ldr	r1, [pc, #20]	; (2d48 <sys_arch_reboot+0x24>)
    2d34:	4b05      	ldr	r3, [pc, #20]	; (2d4c <sys_arch_reboot+0x28>)
    2d36:	68ca      	ldr	r2, [r1, #12]
    2d38:	f402 62e0 	and.w	r2, r2, #1792	; 0x700
    2d3c:	4313      	orrs	r3, r2
  SCB->AIRCR  = (uint32_t)((0x5FAUL << SCB_AIRCR_VECTKEY_Pos)    |
    2d3e:	60cb      	str	r3, [r1, #12]
    2d40:	f3bf 8f4f 	dsb	sy
                            SCB_AIRCR_SYSRESETREQ_Msk    );         /* Keep priority group unchanged */
  __DSB();                                                          /* Ensure completion of memory access */

  for(;;)                                                           /* wait until reset */
  {
    __NOP();
    2d44:	bf00      	nop
  for(;;)                                                           /* wait until reset */
    2d46:	e7fd      	b.n	2d44 <sys_arch_reboot+0x20>
    2d48:	e000ed00 	.word	0xe000ed00
    2d4c:	05fa0004 	.word	0x05fa0004

00002d50 <arch_busy_wait>:

#else // NRFX_CHECK(NRFX_DELAY_DWT_BASED)

NRF_STATIC_INLINE void nrfx_coredep_delay_us(uint32_t time_us)
{
    if (time_us == 0)
    2d50:	b120      	cbz	r0, 2d5c <arch_busy_wait+0xc>
    };

    typedef void (* delay_func_t)(uint32_t);
    const delay_func_t delay_cycles =
        // Set LSB to 1 to execute the code in the Thumb mode.
        (delay_func_t)((((uint32_t)delay_machine_code) | 1));
    2d52:	4b03      	ldr	r3, [pc, #12]	; (2d60 <arch_busy_wait+0x10>)
    uint32_t cycles = time_us * NRFX_DELAY_CPU_FREQ_MHZ;
    delay_cycles(cycles);
    2d54:	0180      	lsls	r0, r0, #6
    2d56:	f043 0301 	orr.w	r3, r3, #1
    2d5a:	4718      	bx	r3

void arch_busy_wait(uint32_t time_us)
{
	nrfx_coredep_delay_us(time_us);
}
    2d5c:	4770      	bx	lr
    2d5e:	bf00      	nop
    2d60:	00007830 	.word	0x00007830

00002d64 <adc_context_start_sampling.isra.0>:
    return (p_reg->STATUS == (SAADC_STATUS_STATUS_Busy << SAADC_STATUS_STATUS_Pos));
}

NRF_STATIC_INLINE void nrf_saadc_enable(NRF_SAADC_Type * p_reg)
{
    p_reg->ENABLE = (SAADC_ENABLE_ENABLE_Enabled << SAADC_ENABLE_ENABLE_Pos);
    2d64:	4a05      	ldr	r2, [pc, #20]	; (2d7c <adc_context_start_sampling.isra.0+0x18>)
    2d66:	2301      	movs	r3, #1
    2d68:	f8c2 3500 	str.w	r3, [r2, #1280]	; 0x500

static void adc_context_start_sampling(struct adc_context *ctx)
{
	nrf_saadc_enable(NRF_SAADC);

	if (ctx->sequence.calibrate) {
    2d6c:	b108      	cbz	r0, 2d72 <adc_context_start_sampling.isra.0+0xe>
    *((volatile uint32_t *)((uint8_t *)p_reg + (uint32_t)task)) = 0x1UL;
    2d6e:	60d3      	str	r3, [r2, #12]
}
    2d70:	4770      	bx	lr
    *((volatile uint32_t *)((uint8_t *)p_reg + (uint32_t)task)) = 0x1UL;
    2d72:	6013      	str	r3, [r2, #0]
    2d74:	4a02      	ldr	r2, [pc, #8]	; (2d80 <adc_context_start_sampling.isra.0+0x1c>)
    2d76:	6013      	str	r3, [r2, #0]
				       NRF_SAADC_TASK_CALIBRATEOFFSET);
	} else {
		nrf_saadc_task_trigger(NRF_SAADC, NRF_SAADC_TASK_START);
		nrf_saadc_task_trigger(NRF_SAADC, NRF_SAADC_TASK_SAMPLE);
	}
}
    2d78:	4770      	bx	lr
    2d7a:	bf00      	nop
    2d7c:	40007000 	.word	0x40007000
    2d80:	40007004 	.word	0x40007004

00002d84 <adc_nrfx_channel_setup>:
	uint8_t channel_id = channel_cfg->channel_id;
    2d84:	7908      	ldrb	r0, [r1, #4]
{
    2d86:	b570      	push	{r4, r5, r6, lr}
	uint8_t channel_id = channel_cfg->channel_id;
    2d88:	f000 041f 	and.w	r4, r0, #31
	if (channel_id >= SAADC_CH_NUM) {
    2d8c:	2c07      	cmp	r4, #7
    2d8e:	d81f      	bhi.n	2dd0 <adc_nrfx_channel_setup+0x4c>
	switch (channel_cfg->gain) {
    2d90:	780b      	ldrb	r3, [r1, #0]
    2d92:	2b09      	cmp	r3, #9
    2d94:	d81c      	bhi.n	2dd0 <adc_nrfx_channel_setup+0x4c>
    2d96:	e8df f003 	tbb	[pc, r3]
    2d9a:	0606      	.short	0x0606
    2d9c:	1b060606 	.word	0x1b060606
    2da0:	201b1e05 	.word	0x201b1e05
		config.gain = NRF_SAADC_GAIN1;
    2da4:	2305      	movs	r3, #5
	switch (channel_cfg->reference) {
    2da6:	784a      	ldrb	r2, [r1, #1]
    2da8:	2a03      	cmp	r2, #3
    2daa:	d018      	beq.n	2dde <adc_nrfx_channel_setup+0x5a>
    2dac:	2a04      	cmp	r2, #4
    2dae:	d10f      	bne.n	2dd0 <adc_nrfx_channel_setup+0x4c>
    2db0:	2500      	movs	r5, #0
	switch (channel_cfg->acquisition_time) {
    2db2:	884a      	ldrh	r2, [r1, #2]
    2db4:	f244 060a 	movw	r6, #16394	; 0x400a
    2db8:	42b2      	cmp	r2, r6
    2dba:	d044      	beq.n	2e46 <adc_nrfx_channel_setup+0xc2>
    2dbc:	d811      	bhi.n	2de2 <adc_nrfx_channel_setup+0x5e>
    2dbe:	f244 0603 	movw	r6, #16387	; 0x4003
    2dc2:	42b2      	cmp	r2, r6
    2dc4:	d03b      	beq.n	2e3e <adc_nrfx_channel_setup+0xba>
    2dc6:	f244 0605 	movw	r6, #16389	; 0x4005
    2dca:	42b2      	cmp	r2, r6
    2dcc:	d039      	beq.n	2e42 <adc_nrfx_channel_setup+0xbe>
    2dce:	b3d2      	cbz	r2, 2e46 <adc_nrfx_channel_setup+0xc2>
    2dd0:	f06f 0015 	mvn.w	r0, #21
    2dd4:	e032      	b.n	2e3c <adc_nrfx_channel_setup+0xb8>
		config.gain = NRF_SAADC_GAIN2;
    2dd6:	2306      	movs	r3, #6
		break;
    2dd8:	e7e5      	b.n	2da6 <adc_nrfx_channel_setup+0x22>
		config.gain = NRF_SAADC_GAIN4;
    2dda:	2307      	movs	r3, #7
		break;
    2ddc:	e7e3      	b.n	2da6 <adc_nrfx_channel_setup+0x22>
		config.reference = NRF_SAADC_REFERENCE_VDD4;
    2dde:	2501      	movs	r5, #1
    2de0:	e7e7      	b.n	2db2 <adc_nrfx_channel_setup+0x2e>
	switch (channel_cfg->acquisition_time) {
    2de2:	f244 0614 	movw	r6, #16404	; 0x4014
    2de6:	42b2      	cmp	r2, r6
    2de8:	d02f      	beq.n	2e4a <adc_nrfx_channel_setup+0xc6>
    2dea:	f244 0628 	movw	r6, #16424	; 0x4028
    2dee:	42b2      	cmp	r2, r6
    2df0:	d02d      	beq.n	2e4e <adc_nrfx_channel_setup+0xca>
    2df2:	f244 060f 	movw	r6, #16399	; 0x400f
    2df6:	42b2      	cmp	r2, r6
    2df8:	d1ea      	bne.n	2dd0 <adc_nrfx_channel_setup+0x4c>
		config.acq_time = NRF_SAADC_ACQTIME_15US;
    2dfa:	2203      	movs	r2, #3
            ((config->resistor_p   << SAADC_CH_CONFIG_RESP_Pos)   & SAADC_CH_CONFIG_RESP_Msk)
            | ((config->resistor_n << SAADC_CH_CONFIG_RESN_Pos)   & SAADC_CH_CONFIG_RESN_Msk)
            | ((config->gain       << SAADC_CH_CONFIG_GAIN_Pos)   & SAADC_CH_CONFIG_GAIN_Msk)
            | ((config->reference  << SAADC_CH_CONFIG_REFSEL_Pos) & SAADC_CH_CONFIG_REFSEL_Msk)
            | ((config->acq_time   << SAADC_CH_CONFIG_TACQ_Pos)   & SAADC_CH_CONFIG_TACQ_Msk)
            | ((config->mode       << SAADC_CH_CONFIG_MODE_Pos)   & SAADC_CH_CONFIG_MODE_Msk)
    2dfc:	f3c0 1040 	ubfx	r0, r0, #5, #1
            | ((config->gain       << SAADC_CH_CONFIG_GAIN_Pos)   & SAADC_CH_CONFIG_GAIN_Msk)
    2e00:	021b      	lsls	r3, r3, #8
            | ((config->mode       << SAADC_CH_CONFIG_MODE_Pos)   & SAADC_CH_CONFIG_MODE_Msk)
    2e02:	ea43 5300 	orr.w	r3, r3, r0, lsl #20
    2e06:	ea43 3305 	orr.w	r3, r3, r5, lsl #12
    2e0a:	ea43 4302 	orr.w	r3, r3, r2, lsl #16
    p_reg->CH[channel].CONFIG =
    2e0e:	0122      	lsls	r2, r4, #4
    2e10:	f102 4280 	add.w	r2, r2, #1073741824	; 0x40000000
    2e14:	f502 42e0 	add.w	r2, r2, #28672	; 0x7000
    p_reg->CH[channel].PSELP = pselp;
    2e18:	2000      	movs	r0, #0
    p_reg->CH[channel].CONFIG =
    2e1a:	f8c2 3518 	str.w	r3, [r2, #1304]	; 0x518
    p_reg->CH[channel].PSELN = pseln;
    2e1e:	0123      	lsls	r3, r4, #4
    2e20:	f103 4380 	add.w	r3, r3, #1073741824	; 0x40000000
    2e24:	f503 43e0 	add.w	r3, r3, #28672	; 0x7000
    2e28:	798a      	ldrb	r2, [r1, #6]
    2e2a:	f8c3 2514 	str.w	r2, [r3, #1300]	; 0x514
    p_reg->CH[channel].PSELP = pselp;
    2e2e:	f8c3 0510 	str.w	r0, [r3, #1296]	; 0x510
	m_data.positive_inputs[channel_id] = channel_cfg->input_positive;
    2e32:	4b08      	ldr	r3, [pc, #32]	; (2e54 <adc_nrfx_channel_setup+0xd0>)
    2e34:	441c      	add	r4, r3
    2e36:	794b      	ldrb	r3, [r1, #5]
    2e38:	f884 3090 	strb.w	r3, [r4, #144]	; 0x90
}
    2e3c:	bd70      	pop	{r4, r5, r6, pc}
	switch (channel_cfg->acquisition_time) {
    2e3e:	2200      	movs	r2, #0
    2e40:	e7dc      	b.n	2dfc <adc_nrfx_channel_setup+0x78>
		config.acq_time = NRF_SAADC_ACQTIME_5US;
    2e42:	2201      	movs	r2, #1
    2e44:	e7da      	b.n	2dfc <adc_nrfx_channel_setup+0x78>
		config.acq_time = NRF_SAADC_ACQTIME_10US;
    2e46:	2202      	movs	r2, #2
    2e48:	e7d8      	b.n	2dfc <adc_nrfx_channel_setup+0x78>
		config.acq_time = NRF_SAADC_ACQTIME_20US;
    2e4a:	2204      	movs	r2, #4
    2e4c:	e7d6      	b.n	2dfc <adc_nrfx_channel_setup+0x78>
		config.acq_time = NRF_SAADC_ACQTIME_40US;
    2e4e:	2205      	movs	r2, #5
    2e50:	e7d4      	b.n	2dfc <adc_nrfx_channel_setup+0x78>
    2e52:	bf00      	nop
    2e54:	20000000 	.word	0x20000000

00002e58 <saadc_irq_handler>:
    return (bool)*(volatile uint32_t *)((uint8_t *)p_reg + (uint32_t)event);
    2e58:	4b2d      	ldr	r3, [pc, #180]	; (2f10 <saadc_irq_handler+0xb8>)
    2e5a:	681a      	ldr	r2, [r3, #0]
	return error;
}
#endif /* CONFIG_ADC_ASYNC */

static void saadc_irq_handler(const struct device *dev)
{
    2e5c:	b510      	push	{r4, lr}
	if (nrf_saadc_event_check(NRF_SAADC, NRF_SAADC_EVENT_END)) {
    2e5e:	2a00      	cmp	r2, #0
    2e60:	d048      	beq.n	2ef4 <saadc_irq_handler+0x9c>
    *((volatile uint32_t *)((uint8_t *)p_reg + (uint32_t)event)) = 0x0UL;
    2e62:	2200      	movs	r2, #0
    2e64:	601a      	str	r2, [r3, #0]
#ifndef NRF_DECLARE_ONLY

NRF_STATIC_INLINE void nrf_event_readback(void * p_event_reg)
{
#if NRFX_CHECK(NRFX_EVENT_READBACK_ENABLED) && !defined(NRF51)
    (void)*((volatile uint32_t *)(p_event_reg));
    2e66:	681b      	ldr	r3, [r3, #0]
 * function if required and takes further actions accordingly.
 */
static inline void adc_context_on_sampling_done(struct adc_context *ctx,
						const struct device *dev)
{
	if (ctx->sequence.options) {
    2e68:	4c2a      	ldr	r4, [pc, #168]	; (2f14 <saadc_irq_handler+0xbc>)
    *((volatile uint32_t *)((uint8_t *)p_reg + (uint32_t)task)) = 0x1UL;
    2e6a:	4b2b      	ldr	r3, [pc, #172]	; (2f18 <saadc_irq_handler+0xc0>)
    2e6c:	2101      	movs	r1, #1
    2e6e:	6019      	str	r1, [r3, #0]
    p_reg->ENABLE = (SAADC_ENABLE_ENABLE_Disabled << SAADC_ENABLE_ENABLE_Pos);
    2e70:	f8c3 24f8 	str.w	r2, [r3, #1272]	; 0x4f8
    2e74:	6e63      	ldr	r3, [r4, #100]	; 0x64
    2e76:	b3c3      	cbz	r3, 2eea <saadc_irq_handler+0x92>
		adc_sequence_callback callback = ctx->options.callback;
    2e78:	6fe3      	ldr	r3, [r4, #124]	; 0x7c
		enum adc_action action;
		bool finish = false;
		bool repeat = false;

		if (callback) {
    2e7a:	b143      	cbz	r3, 2e8e <saadc_irq_handler+0x36>
			action = callback(dev,
    2e7c:	f8b4 2088 	ldrh.w	r2, [r4, #136]	; 0x88
    2e80:	f104 0164 	add.w	r1, r4, #100	; 0x64
    2e84:	4798      	blx	r3
					  ctx->sampling_index);
		} else {
			action = ADC_ACTION_CONTINUE;
		}

		switch (action) {
    2e86:	2801      	cmp	r0, #1
    2e88:	d014      	beq.n	2eb4 <saadc_irq_handler+0x5c>
    2e8a:	2802      	cmp	r0, #2
    2e8c:	d028      	beq.n	2ee0 <saadc_irq_handler+0x88>
			break;
		case ADC_ACTION_FINISH:
			finish = true;
			break;
		default: /* ADC_ACTION_CONTINUE */
			if (ctx->sampling_index <
    2e8e:	f8b4 3088 	ldrh.w	r3, [r4, #136]	; 0x88
    2e92:	f8b4 2084 	ldrh.w	r2, [r4, #132]	; 0x84
    2e96:	429a      	cmp	r2, r3
    2e98:	d922      	bls.n	2ee0 <saadc_irq_handler+0x88>
			    ctx->options.extra_samplings) {
				++ctx->sampling_index;
    2e9a:	3301      	adds	r3, #1
    2e9c:	f8a4 3088 	strh.w	r3, [r4, #136]	; 0x88
    return (nrf_saadc_value_t *)p_reg->RESULT.PTR;
    2ea0:	4b1e      	ldr	r3, [pc, #120]	; (2f1c <saadc_irq_handler+0xc4>)
    2ea2:	f8d3 262c 	ldr.w	r2, [r3, #1580]	; 0x62c
    return p_reg->RESULT.AMOUNT;
    2ea6:	f8d3 1634 	ldr.w	r1, [r3, #1588]	; 0x634
			nrf_saadc_buffer_pointer_get(NRF_SAADC) +
    2eaa:	b289      	uxth	r1, r1
		nrf_saadc_buffer_pointer_set(
    2eac:	eb02 0241 	add.w	r2, r2, r1, lsl #1
    p_reg->RESULT.PTR = (uint32_t)p_buffer;
    2eb0:	f8c3 262c 	str.w	r2, [r3, #1580]	; 0x62c
			/*
			 * Immediately start the next sampling if working with
			 * a zero interval or if the timer expired again while
			 * the current sampling was in progress.
			 */
			if (ctx->options.interval_us == 0U) {
    2eb4:	6fa3      	ldr	r3, [r4, #120]	; 0x78
    2eb6:	b92b      	cbnz	r3, 2ec4 <saadc_irq_handler+0x6c>
				adc_context_start_sampling(ctx);
			} else if (atomic_dec(&ctx->sampling_requested) > 1) {
				adc_context_start_sampling(ctx);
    2eb8:	f894 0076 	ldrb.w	r0, [r4, #118]	; 0x76
		 */
		nrf_saadc_task_trigger(NRF_SAADC, NRF_SAADC_TASK_STOP);
		nrf_saadc_task_trigger(NRF_SAADC, NRF_SAADC_TASK_START);
		nrf_saadc_task_trigger(NRF_SAADC, NRF_SAADC_TASK_SAMPLE);
	}
}
    2ebc:	e8bd 4010 	ldmia.w	sp!, {r4, lr}
    2ec0:	f7ff bf50 	b.w	2d64 <adc_context_start_sampling.isra.0>
	return __atomic_fetch_sub(target, value, __ATOMIC_SEQ_CST);
    2ec4:	f3bf 8f5b 	dmb	ish
    2ec8:	e854 3f00 	ldrex	r3, [r4]
    2ecc:	1e5a      	subs	r2, r3, #1
    2ece:	e844 2100 	strex	r1, r2, [r4]
    2ed2:	2900      	cmp	r1, #0
    2ed4:	d1f8      	bne.n	2ec8 <saadc_irq_handler+0x70>
    2ed6:	f3bf 8f5b 	dmb	ish
			} else if (atomic_dec(&ctx->sampling_requested) > 1) {
    2eda:	2b01      	cmp	r3, #1
    2edc:	dcec      	bgt.n	2eb8 <saadc_irq_handler+0x60>
    2ede:	bd10      	pop	{r4, pc}
			}

			return;
		}

		if (ctx->options.interval_us != 0U) {
    2ee0:	6fa3      	ldr	r3, [r4, #120]	; 0x78
    2ee2:	b113      	cbz	r3, 2eea <saadc_irq_handler+0x92>
	z_impl_k_timer_stop(timer);
    2ee4:	480e      	ldr	r0, [pc, #56]	; (2f20 <saadc_irq_handler+0xc8>)
    2ee6:	f004 fb12 	bl	750e <z_impl_k_timer_stop>
	z_impl_k_sem_give(sem);
    2eea:	480e      	ldr	r0, [pc, #56]	; (2f24 <saadc_irq_handler+0xcc>)
    2eec:	e8bd 4010 	ldmia.w	sp!, {r4, lr}
    2ef0:	f002 bd20 	b.w	5934 <z_impl_k_sem_give>
    return (bool)*(volatile uint32_t *)((uint8_t *)p_reg + (uint32_t)event);
    2ef4:	4b0c      	ldr	r3, [pc, #48]	; (2f28 <saadc_irq_handler+0xd0>)
    2ef6:	6819      	ldr	r1, [r3, #0]
	} else if (nrf_saadc_event_check(NRF_SAADC,
    2ef8:	2900      	cmp	r1, #0
    2efa:	d0f0      	beq.n	2ede <saadc_irq_handler+0x86>
    *((volatile uint32_t *)((uint8_t *)p_reg + (uint32_t)event)) = 0x0UL;
    2efc:	601a      	str	r2, [r3, #0]
    *((volatile uint32_t *)((uint8_t *)p_reg + (uint32_t)task)) = 0x1UL;
    2efe:	4a06      	ldr	r2, [pc, #24]	; (2f18 <saadc_irq_handler+0xc0>)
    2f00:	681b      	ldr	r3, [r3, #0]
    2f02:	2301      	movs	r3, #1
    2f04:	6013      	str	r3, [r2, #0]
    2f06:	f842 3c08 	str.w	r3, [r2, #-8]
    2f0a:	f842 3c04 	str.w	r3, [r2, #-4]
}
    2f0e:	e7e6      	b.n	2ede <saadc_irq_handler+0x86>
    2f10:	40007104 	.word	0x40007104
    2f14:	20000000 	.word	0x20000000
    2f18:	40007008 	.word	0x40007008
    2f1c:	40007000 	.word	0x40007000
    2f20:	20000008 	.word	0x20000008
    2f24:	20000050 	.word	0x20000050
    2f28:	40007110 	.word	0x40007110

00002f2c <adc_nrfx_read>:
{
    2f2c:	b5f7      	push	{r0, r1, r2, r4, r5, r6, r7, lr}
    2f2e:	460d      	mov	r5, r1
	return z_impl_k_sem_take(sem, timeout);
    2f30:	485d      	ldr	r0, [pc, #372]	; (30a8 <adc_nrfx_read+0x17c>)
    2f32:	f04f 32ff 	mov.w	r2, #4294967295
    2f36:	f04f 33ff 	mov.w	r3, #4294967295
    2f3a:	f002 fd1b 	bl	5974 <z_impl_k_sem_take>
	uint32_t selected_channels = sequence->channels;
    2f3e:	6868      	ldr	r0, [r5, #4]
	if (!selected_channels ||
    2f40:	b910      	cbnz	r0, 2f48 <adc_nrfx_read+0x1c>
	error = set_resolution(sequence);
    2f42:	f06f 0415 	mvn.w	r4, #21
    2f46:	e097      	b.n	3078 <adc_nrfx_read+0x14c>
	if (!selected_channels ||
    2f48:	f030 02ff 	bics.w	r2, r0, #255	; 0xff
    2f4c:	d1f9      	bne.n	2f42 <adc_nrfx_read+0x16>
    p_reg->CH[channel].PSELP = pselp;
    2f4e:	4c57      	ldr	r4, [pc, #348]	; (30ac <adc_nrfx_read+0x180>)
			if (m_data.positive_inputs[channel_id] == 0U) {
    2f50:	4f57      	ldr	r7, [pc, #348]	; (30b0 <adc_nrfx_read+0x184>)
	active_channels = 0U;
    2f52:	4611      	mov	r1, r2
		if (selected_channels & BIT(channel_id)) {
    2f54:	fa20 f302 	lsr.w	r3, r0, r2
    2f58:	f013 0301 	ands.w	r3, r3, #1
    2f5c:	d032      	beq.n	2fc4 <adc_nrfx_read+0x98>
			if (m_data.positive_inputs[channel_id] == 0U) {
    2f5e:	18bb      	adds	r3, r7, r2
    2f60:	f893 c090 	ldrb.w	ip, [r3, #144]	; 0x90
    2f64:	f1bc 0f00 	cmp.w	ip, #0
    2f68:	d0eb      	beq.n	2f42 <adc_nrfx_read+0x16>

NRF_STATIC_INLINE void nrf_saadc_burst_set(NRF_SAADC_Type *  p_reg,
                                           uint8_t           channel,
                                           nrf_saadc_burst_t burst)
{
    p_reg->CH[channel].CONFIG = (p_reg->CH[channel].CONFIG & ~SAADC_CH_CONFIG_BURST_Msk) |
    2f6a:	eb04 1e02 	add.w	lr, r4, r2, lsl #4
			nrf_saadc_burst_set(NRF_SAADC, channel_id,
    2f6e:	7c6e      	ldrb	r6, [r5, #17]
    2f70:	f8de 3518 	ldr.w	r3, [lr, #1304]	; 0x518
    2f74:	3e00      	subs	r6, #0
    2f76:	bf18      	it	ne
    2f78:	2601      	movne	r6, #1
    2f7a:	f023 7380 	bic.w	r3, r3, #16777216	; 0x1000000
    2f7e:	ea43 6306 	orr.w	r3, r3, r6, lsl #24
    2f82:	f8ce 3518 	str.w	r3, [lr, #1304]	; 0x518
    p_reg->CH[channel].PSELP = pselp;
    2f86:	f102 0351 	add.w	r3, r2, #81	; 0x51
    2f8a:	011b      	lsls	r3, r3, #4
			++active_channels;
    2f8c:	3101      	adds	r1, #1
    2f8e:	f844 c003 	str.w	ip, [r4, r3]
    2f92:	b2c9      	uxtb	r1, r1
	} while (++channel_id < SAADC_CH_NUM);
    2f94:	3201      	adds	r2, #1
    2f96:	2a08      	cmp	r2, #8
    2f98:	d1dc      	bne.n	2f54 <adc_nrfx_read+0x28>
	switch (sequence->resolution) {
    2f9a:	7c2b      	ldrb	r3, [r5, #16]
    2f9c:	3b08      	subs	r3, #8
    2f9e:	2b06      	cmp	r3, #6
    2fa0:	d8cf      	bhi.n	2f42 <adc_nrfx_read+0x16>
    2fa2:	a201      	add	r2, pc, #4	; (adr r2, 2fa8 <adc_nrfx_read+0x7c>)
    2fa4:	f852 f023 	ldr.w	pc, [r2, r3, lsl #2]
    2fa8:	0000308d 	.word	0x0000308d
    2fac:	00002f43 	.word	0x00002f43
    2fb0:	00002fcf 	.word	0x00002fcf
    2fb4:	00002f43 	.word	0x00002f43
    2fb8:	00003085 	.word	0x00003085
    2fbc:	00002f43 	.word	0x00002f43
    2fc0:	00003089 	.word	0x00003089
    2fc4:	f102 0651 	add.w	r6, r2, #81	; 0x51
    2fc8:	0136      	lsls	r6, r6, #4
    2fca:	51a3      	str	r3, [r4, r6]
}
    2fcc:	e7e2      	b.n	2f94 <adc_nrfx_read+0x68>
	error = set_resolution(sequence);
    2fce:	2201      	movs	r2, #1
    p_reg->RESOLUTION = resolution;
    2fd0:	4b36      	ldr	r3, [pc, #216]	; (30ac <adc_nrfx_read+0x180>)
	if ((active_channels > 1) && (sequence->oversampling > 0)) {
    2fd2:	2901      	cmp	r1, #1
    2fd4:	f8c3 25f0 	str.w	r2, [r3, #1520]	; 0x5f0
	error = set_oversampling(sequence, active_channels);
    2fd8:	7c6a      	ldrb	r2, [r5, #17]
	if ((active_channels > 1) && (sequence->oversampling > 0)) {
    2fda:	d959      	bls.n	3090 <adc_nrfx_read+0x164>
    2fdc:	2a00      	cmp	r2, #0
    2fde:	d1b0      	bne.n	2f42 <adc_nrfx_read+0x16>
    p_reg->OVERSAMPLE = oversample;
    2fe0:	f8c3 25f4 	str.w	r2, [r3, #1524]	; 0x5f4
	if (sequence->options) {
    2fe4:	682a      	ldr	r2, [r5, #0]
	needed_buffer_size = active_channels * sizeof(nrf_saadc_value_t);
    2fe6:	004b      	lsls	r3, r1, #1
	if (sequence->options) {
    2fe8:	b112      	cbz	r2, 2ff0 <adc_nrfx_read+0xc4>
		needed_buffer_size *= (1 + sequence->options->extra_samplings);
    2fea:	8992      	ldrh	r2, [r2, #12]
    2fec:	fb02 3303 	mla	r3, r2, r3, r3
	if (sequence->buffer_size < needed_buffer_size) {
    2ff0:	68ea      	ldr	r2, [r5, #12]
    2ff2:	429a      	cmp	r2, r3
    2ff4:	d354      	bcc.n	30a0 <adc_nrfx_read+0x174>
    p_reg->RESULT.PTR = (uint32_t)p_buffer;
    2ff6:	4b2d      	ldr	r3, [pc, #180]	; (30ac <adc_nrfx_read+0x180>)
    2ff8:	68aa      	ldr	r2, [r5, #8]
    2ffa:	f8c3 262c 	str.w	r2, [r3, #1580]	; 0x62c
	ctx->sequence = *sequence;
    2ffe:	462f      	mov	r7, r5
    p_reg->RESULT.MAXCNT = size;
    3000:	f8c3 1630 	str.w	r1, [r3, #1584]	; 0x630
    3004:	cf0f      	ldmia	r7!, {r0, r1, r2, r3}
    3006:	4c2a      	ldr	r4, [pc, #168]	; (30b0 <adc_nrfx_read+0x184>)
    3008:	f104 0664 	add.w	r6, r4, #100	; 0x64
    300c:	c60f      	stmia	r6!, {r0, r1, r2, r3}
    300e:	683b      	ldr	r3, [r7, #0]
    3010:	6033      	str	r3, [r6, #0]
	if (sequence->options) {
    3012:	682b      	ldr	r3, [r5, #0]
	ctx->status = 0;
    3014:	2600      	movs	r6, #0
    3016:	6626      	str	r6, [r4, #96]	; 0x60
	if (sequence->options) {
    3018:	2b00      	cmp	r3, #0
    301a:	d03c      	beq.n	3096 <adc_nrfx_read+0x16a>
		ctx->options = *sequence->options;
    301c:	cb0f      	ldmia	r3, {r0, r1, r2, r3}
    301e:	f104 0578 	add.w	r5, r4, #120	; 0x78
    3022:	e885 000f 	stmia.w	r5, {r0, r1, r2, r3}
		ctx->sequence.options = &ctx->options;
    3026:	6665      	str	r5, [r4, #100]	; 0x64
		ctx->sampling_index = 0U;
    3028:	f8a4 6088 	strh.w	r6, [r4, #136]	; 0x88
		if (ctx->options.interval_us != 0U) {
    302c:	b398      	cbz	r0, 3096 <adc_nrfx_read+0x16a>
	return __atomic_exchange_n(target, value, __ATOMIC_SEQ_CST);
    302e:	f3bf 8f5b 	dmb	ish
    3032:	e854 3f00 	ldrex	r3, [r4]
    3036:	e844 6200 	strex	r2, r6, [r4]
    303a:	2a00      	cmp	r2, #0
    303c:	d1f9      	bne.n	3032 <adc_nrfx_read+0x106>
    303e:	f3bf 8f5b 	dmb	ish
		} else {
			return (t * to_hz + off) / from_hz;
    3042:	481c      	ldr	r0, [pc, #112]	; (30b4 <adc_nrfx_read+0x188>)
    3044:	6fa6      	ldr	r6, [r4, #120]	; 0x78
    3046:	4a1c      	ldr	r2, [pc, #112]	; (30b8 <adc_nrfx_read+0x18c>)
    3048:	f44f 4500 	mov.w	r5, #32768	; 0x8000
    304c:	2100      	movs	r1, #0
    304e:	2300      	movs	r3, #0
    3050:	fbe5 0106 	umlal	r0, r1, r5, r6
    3054:	f7fd fe2c 	bl	cb0 <__aeabi_uldivmod>
	z_impl_k_timer_start(timer, duration, period);
    3058:	2200      	movs	r2, #0
    305a:	e9cd 0100 	strd	r0, r1, [sp]
    305e:	2300      	movs	r3, #0
    3060:	f104 0008 	add.w	r0, r4, #8
    3064:	f002 ff0e 	bl	5e84 <z_impl_k_timer_start>
	return z_impl_k_sem_take(sem, timeout);
    3068:	4814      	ldr	r0, [pc, #80]	; (30bc <adc_nrfx_read+0x190>)
    306a:	f04f 32ff 	mov.w	r2, #4294967295
    306e:	f04f 33ff 	mov.w	r3, #4294967295
    3072:	f002 fc7f 	bl	5974 <z_impl_k_sem_take>
	return ctx->status;
    3076:	6e24      	ldr	r4, [r4, #96]	; 0x60
	z_impl_k_sem_give(sem);
    3078:	480b      	ldr	r0, [pc, #44]	; (30a8 <adc_nrfx_read+0x17c>)
    307a:	f002 fc5b 	bl	5934 <z_impl_k_sem_give>
}
    307e:	4620      	mov	r0, r4
    3080:	b003      	add	sp, #12
    3082:	bdf0      	pop	{r4, r5, r6, r7, pc}
		nrf_resolution = NRF_SAADC_RESOLUTION_12BIT;
    3084:	2202      	movs	r2, #2
		break;
    3086:	e7a3      	b.n	2fd0 <adc_nrfx_read+0xa4>
		nrf_resolution = NRF_SAADC_RESOLUTION_14BIT;
    3088:	2203      	movs	r2, #3
		break;
    308a:	e7a1      	b.n	2fd0 <adc_nrfx_read+0xa4>
		nrf_resolution = NRF_SAADC_RESOLUTION_8BIT;
    308c:	2200      	movs	r2, #0
    308e:	e79f      	b.n	2fd0 <adc_nrfx_read+0xa4>
	switch (sequence->oversampling) {
    3090:	2a08      	cmp	r2, #8
    3092:	d9a5      	bls.n	2fe0 <adc_nrfx_read+0xb4>
    3094:	e755      	b.n	2f42 <adc_nrfx_read+0x16>
	adc_context_start_sampling(ctx);
    3096:	f894 0076 	ldrb.w	r0, [r4, #118]	; 0x76
    309a:	f7ff fe63 	bl	2d64 <adc_context_start_sampling.isra.0>
    309e:	e7e3      	b.n	3068 <adc_nrfx_read+0x13c>
		return -ENOMEM;
    30a0:	f06f 040b 	mvn.w	r4, #11
    30a4:	e7e8      	b.n	3078 <adc_nrfx_read+0x14c>
    30a6:	bf00      	nop
    30a8:	20000040 	.word	0x20000040
    30ac:	40007000 	.word	0x40007000
    30b0:	20000000 	.word	0x20000000
    30b4:	000f423f 	.word	0x000f423f
    30b8:	000f4240 	.word	0x000f4240
    30bc:	20000050 	.word	0x20000050

000030c0 <init_saadc>:
    *((volatile uint32_t *)((uint8_t *)p_reg + (uint32_t)event)) = 0x0UL;
    30c0:	4b0d      	ldr	r3, [pc, #52]	; (30f8 <init_saadc+0x38>)

static int init_saadc(const struct device *dev)
{
    30c2:	b510      	push	{r4, lr}
    30c4:	2400      	movs	r4, #0
    30c6:	601c      	str	r4, [r3, #0]
    30c8:	681b      	ldr	r3, [r3, #0]
    30ca:	4b0c      	ldr	r3, [pc, #48]	; (30fc <init_saadc+0x3c>)
    30cc:	601c      	str	r4, [r3, #0]
    30ce:	681b      	ldr	r3, [r3, #0]
    p_reg->INTENSET = mask;
    30d0:	4b0b      	ldr	r3, [pc, #44]	; (3100 <init_saadc+0x40>)
    30d2:	2212      	movs	r2, #18
    30d4:	f8c3 2304 	str.w	r2, [r3, #772]	; 0x304
	nrf_saadc_event_clear(NRF_SAADC, NRF_SAADC_EVENT_END);
	nrf_saadc_event_clear(NRF_SAADC, NRF_SAADC_EVENT_CALIBRATEDONE);
	nrf_saadc_int_enable(NRF_SAADC,
			     NRF_SAADC_INT_END | NRF_SAADC_INT_CALIBRATEDONE);
	NRFX_IRQ_ENABLE(DT_INST_IRQN(0));
    30d8:	2007      	movs	r0, #7
    30da:	f7ff fac5 	bl	2668 <arch_irq_enable>

	IRQ_CONNECT(DT_INST_IRQN(0), DT_INST_IRQ(0, priority),
    30de:	4622      	mov	r2, r4
    30e0:	2101      	movs	r1, #1
    30e2:	2007      	movs	r0, #7
    30e4:	f7ff fade 	bl	26a4 <z_arm_irq_priority_set>
		/* coverity[OVERRUN] */
		return (unsigned int) arch_syscall_invoke1(*(uintptr_t *)&sem, K_SYSCALL_K_SEM_COUNT_GET);
	}
#endif
	compiler_barrier();
	return z_impl_k_sem_count_get(sem);
    30e8:	4806      	ldr	r0, [pc, #24]	; (3104 <init_saadc+0x44>)
	if (!k_sem_count_get(&ctx->lock)) {
    30ea:	6c83      	ldr	r3, [r0, #72]	; 0x48
    30ec:	b913      	cbnz	r3, 30f4 <init_saadc+0x34>
	z_impl_k_sem_give(sem);
    30ee:	3040      	adds	r0, #64	; 0x40
    30f0:	f002 fc20 	bl	5934 <z_impl_k_sem_give>
		    saadc_irq_handler, DEVICE_DT_INST_GET(0), 0);

	adc_context_unlock_unconditionally(&m_data.ctx);

	return 0;
}
    30f4:	2000      	movs	r0, #0
    30f6:	bd10      	pop	{r4, pc}
    30f8:	40007104 	.word	0x40007104
    30fc:	40007110 	.word	0x40007110
    3100:	40007000 	.word	0x40007000
    3104:	20000000 	.word	0x20000000

00003108 <onoff_stop>:
}

static clock_control_subsys_t get_subsys(struct onoff_manager *mgr)
{
	struct nrf_clock_control_data *data = CLOCK_DEVICE->data;
	size_t offset = (size_t)(mgr - data->mgr);
    3108:	4a0e      	ldr	r2, [pc, #56]	; (3144 <onoff_stop+0x3c>)
	return (clock_control_subsys_t)offset;
}

static void onoff_stop(struct onoff_manager *mgr,
			onoff_notify_fn notify)
{
    310a:	b570      	push	{r4, r5, r6, lr}
	size_t offset = (size_t)(mgr - data->mgr);
    310c:	1a84      	subs	r4, r0, r2
    310e:	10a3      	asrs	r3, r4, #2
    3110:	4c0d      	ldr	r4, [pc, #52]	; (3148 <onoff_stop+0x40>)
    3112:	435c      	muls	r4, r3
{
    3114:	4605      	mov	r5, r0
    3116:	b2e4      	uxtb	r4, r4
	err = set_off_state(&subdata->flags, ctx);
    3118:	200c      	movs	r0, #12
    311a:	fb00 2004 	mla	r0, r0, r4, r2
{
    311e:	460e      	mov	r6, r1
	err = set_off_state(&subdata->flags, ctx);
    3120:	2140      	movs	r1, #64	; 0x40
    3122:	4408      	add	r0, r1
    3124:	f003 fd19 	bl	6b5a <set_off_state>
	if (err < 0) {
    3128:	1e01      	subs	r1, r0, #0
    312a:	db05      	blt.n	3138 <onoff_stop+0x30>
	get_sub_config(dev, type)->stop();
    312c:	4b07      	ldr	r3, [pc, #28]	; (314c <onoff_stop+0x44>)
    312e:	eb03 04c4 	add.w	r4, r3, r4, lsl #3
    3132:	6863      	ldr	r3, [r4, #4]
    3134:	4798      	blx	r3
	return 0;
    3136:	2100      	movs	r1, #0
	int res;

	res = stop(CLOCK_DEVICE, get_subsys(mgr), CTX_ONOFF);
	notify(mgr, res);
    3138:	4628      	mov	r0, r5
    313a:	4633      	mov	r3, r6
}
    313c:	e8bd 4070 	ldmia.w	sp!, {r4, r5, r6, lr}
	notify(mgr, res);
    3140:	4718      	bx	r3
    3142:	bf00      	nop
    3144:	20000bcc 	.word	0x20000bcc
    3148:	b6db6db7 	.word	0xb6db6db7
    314c:	000078b4 	.word	0x000078b4

00003150 <onoff_start>:
	notify(mgr, 0);
}

static void onoff_start(struct onoff_manager *mgr,
			onoff_notify_fn notify)
{
    3150:	e92d 41f0 	stmdb	sp!, {r4, r5, r6, r7, r8, lr}
	size_t offset = (size_t)(mgr - data->mgr);
    3154:	4e10      	ldr	r6, [pc, #64]	; (3198 <onoff_start+0x48>)
    3156:	1b84      	subs	r4, r0, r6
    3158:	10a3      	asrs	r3, r4, #2
    315a:	4c10      	ldr	r4, [pc, #64]	; (319c <onoff_start+0x4c>)
    315c:	435c      	muls	r4, r3
    315e:	b2e4      	uxtb	r4, r4
	err = set_starting_state(&subdata->flags, ctx);
    3160:	250c      	movs	r5, #12
    3162:	4365      	muls	r5, r4
{
    3164:	4680      	mov	r8, r0
	err = set_starting_state(&subdata->flags, ctx);
    3166:	f105 0040 	add.w	r0, r5, #64	; 0x40
{
    316a:	460f      	mov	r7, r1
	err = set_starting_state(&subdata->flags, ctx);
    316c:	4430      	add	r0, r6
    316e:	2140      	movs	r1, #64	; 0x40
    3170:	f003 fd0c 	bl	6b8c <set_starting_state>
	if (err < 0) {
    3174:	1e01      	subs	r1, r0, #0
    3176:	db09      	blt.n	318c <onoff_start+0x3c>
	subdata->cb = cb;
    3178:	4a09      	ldr	r2, [pc, #36]	; (31a0 <onoff_start+0x50>)
    317a:	1973      	adds	r3, r6, r5
	subdata->user_data = user_data;
    317c:	e9c3 270e 	strd	r2, r7, [r3, #56]	; 0x38
	 get_sub_config(dev, type)->start();
    3180:	4b08      	ldr	r3, [pc, #32]	; (31a4 <onoff_start+0x54>)
    3182:	f853 3034 	ldr.w	r3, [r3, r4, lsl #3]
	err = async_start(CLOCK_DEVICE, get_subsys(mgr),
			  onoff_started_callback, notify, CTX_ONOFF);
	if (err < 0) {
		notify(mgr, err);
	}
}
    3186:	e8bd 41f0 	ldmia.w	sp!, {r4, r5, r6, r7, r8, lr}
	 get_sub_config(dev, type)->start();
    318a:	4718      	bx	r3
		notify(mgr, err);
    318c:	4640      	mov	r0, r8
    318e:	463b      	mov	r3, r7
}
    3190:	e8bd 41f0 	ldmia.w	sp!, {r4, r5, r6, r7, r8, lr}
		notify(mgr, err);
    3194:	4718      	bx	r3
    3196:	bf00      	nop
    3198:	20000bcc 	.word	0x20000bcc
    319c:	b6db6db7 	.word	0xb6db6db7
    31a0:	00006bef 	.word	0x00006bef
    31a4:	000078b4 	.word	0x000078b4

000031a8 <clk_init>:
	static const struct onoff_transitions transitions = {
		.start = onoff_start,
		.stop = onoff_stop
	};

	IRQ_CONNECT(DT_INST_IRQN(0), DT_INST_IRQ(0, priority),
    31a8:	2200      	movs	r2, #0
{
    31aa:	b570      	push	{r4, r5, r6, lr}
	IRQ_CONNECT(DT_INST_IRQN(0), DT_INST_IRQ(0, priority),
    31ac:	2101      	movs	r1, #1
{
    31ae:	4604      	mov	r4, r0
	IRQ_CONNECT(DT_INST_IRQN(0), DT_INST_IRQ(0, priority),
    31b0:	4610      	mov	r0, r2
    31b2:	f7ff fa77 	bl	26a4 <z_arm_irq_priority_set>
		    nrfx_isr, nrfx_power_clock_irq_handler, 0);
	irq_enable(DT_INST_IRQN(0));
    31b6:	2000      	movs	r0, #0
    31b8:	f7ff fa56 	bl	2668 <arch_irq_enable>

	nrfx_err = nrfx_clock_init(clock_event_handler);
    31bc:	480f      	ldr	r0, [pc, #60]	; (31fc <clk_init+0x54>)
    31be:	f000 ffc3 	bl	4148 <nrfx_clock_init>
	if (nrfx_err != NRFX_SUCCESS) {
    31c2:	4b0f      	ldr	r3, [pc, #60]	; (3200 <clk_init+0x58>)
    31c4:	4298      	cmp	r0, r3
    31c6:	d115      	bne.n	31f4 <clk_init+0x4c>
		struct nrf_clock_control_data *data = dev->data;

		z_nrf_clock_calibration_init(data->mgr);
	}

	nrfx_clock_enable();
    31c8:	f003 ff63 	bl	7092 <nrfx_clock_enable>

	for (enum clock_control_nrf_type i = 0;
		i < CLOCK_CONTROL_NRF_TYPE_COUNT; i++) {
		struct nrf_clock_control_sub_data *subdata =
						get_sub_data(dev, i);
    31cc:	6926      	ldr	r6, [r4, #16]

		err = onoff_manager_init(get_onoff_manager(dev, i),
    31ce:	490d      	ldr	r1, [pc, #52]	; (3204 <clk_init+0x5c>)
    31d0:	4630      	mov	r0, r6
    31d2:	f003 fa31 	bl	6638 <onoff_manager_init>
					 &transitions);
		if (err < 0) {
    31d6:	2800      	cmp	r0, #0
    31d8:	db0b      	blt.n	31f2 <clk_init+0x4a>
			return err;
		}

		subdata->flags = CLOCK_CONTROL_STATUS_OFF;
    31da:	2501      	movs	r5, #1
    31dc:	6435      	str	r5, [r6, #64]	; 0x40
						get_sub_data(dev, i);
    31de:	6924      	ldr	r4, [r4, #16]
		err = onoff_manager_init(get_onoff_manager(dev, i),
    31e0:	4908      	ldr	r1, [pc, #32]	; (3204 <clk_init+0x5c>)
    31e2:	f104 001c 	add.w	r0, r4, #28
    31e6:	f003 fa27 	bl	6638 <onoff_manager_init>
		if (err < 0) {
    31ea:	2800      	cmp	r0, #0
    31ec:	db01      	blt.n	31f2 <clk_init+0x4a>
		subdata->flags = CLOCK_CONTROL_STATUS_OFF;
    31ee:	64e5      	str	r5, [r4, #76]	; 0x4c
	}

	return 0;
    31f0:	2000      	movs	r0, #0
}
    31f2:	bd70      	pop	{r4, r5, r6, pc}
		return -EIO;
    31f4:	f06f 0004 	mvn.w	r0, #4
    31f8:	e7fb      	b.n	31f2 <clk_init+0x4a>
    31fa:	bf00      	nop
    31fc:	0000323d 	.word	0x0000323d
    3200:	0bad0000 	.word	0x0bad0000
    3204:	000078c4 	.word	0x000078c4

00003208 <clkstarted_handle.constprop.0>:
static void clkstarted_handle(const struct device *dev,
    3208:	4601      	mov	r1, r0
	clock_control_cb_t callback = sub_data->cb;
    320a:	230c      	movs	r3, #12
    320c:	4809      	ldr	r0, [pc, #36]	; (3234 <clkstarted_handle.constprop.0+0x2c>)
    320e:	434b      	muls	r3, r1
static void clkstarted_handle(const struct device *dev,
    3210:	b570      	push	{r4, r5, r6, lr}
	clock_control_cb_t callback = sub_data->cb;
    3212:	18c4      	adds	r4, r0, r3
	void *user_data = sub_data->user_data;
    3214:	e9d4 560e 	ldrd	r5, r6, [r4, #56]	; 0x38
	sub_data->cb = NULL;
    3218:	2200      	movs	r2, #0
	set_on_state(&sub_data->flags);
    321a:	3340      	adds	r3, #64	; 0x40
	sub_data->cb = NULL;
    321c:	63a2      	str	r2, [r4, #56]	; 0x38
	set_on_state(&sub_data->flags);
    321e:	4418      	add	r0, r3
    3220:	f003 fcd2 	bl	6bc8 <set_on_state>
	if (callback) {
    3224:	b12d      	cbz	r5, 3232 <clkstarted_handle.constprop.0+0x2a>
		callback(dev, (clock_control_subsys_t)type, user_data);
    3226:	4632      	mov	r2, r6
    3228:	462b      	mov	r3, r5
    322a:	4803      	ldr	r0, [pc, #12]	; (3238 <clkstarted_handle.constprop.0+0x30>)
}
    322c:	e8bd 4070 	ldmia.w	sp!, {r4, r5, r6, lr}
		callback(dev, (clock_control_subsys_t)type, user_data);
    3230:	4718      	bx	r3
}
    3232:	bd70      	pop	{r4, r5, r6, pc}
    3234:	20000bcc 	.word	0x20000bcc
    3238:	000075d8 	.word	0x000075d8

0000323c <clock_event_handler>:
	switch (event) {
    323c:	b110      	cbz	r0, 3244 <clock_event_handler+0x8>
    323e:	2801      	cmp	r0, #1
    3240:	d004      	beq.n	324c <clock_event_handler+0x10>
    3242:	4770      	bx	lr
		if (GET_STATUS(data->flags) == CLOCK_CONTROL_STATUS_STARTING) {
    3244:	4b03      	ldr	r3, [pc, #12]	; (3254 <clock_event_handler+0x18>)
    3246:	6c1b      	ldr	r3, [r3, #64]	; 0x40
    3248:	075b      	lsls	r3, r3, #29
    324a:	d101      	bne.n	3250 <clock_event_handler+0x14>
		clkstarted_handle(dev, CLOCK_CONTROL_NRF_TYPE_LFCLK);
    324c:	f7ff bfdc 	b.w	3208 <clkstarted_handle.constprop.0>
}
    3250:	4770      	bx	lr
    3252:	bf00      	nop
    3254:	20000bcc 	.word	0x20000bcc

00003258 <generic_hfclk_start>:
{
    3258:	b508      	push	{r3, lr}
	__asm__ volatile(
    325a:	f04f 0320 	mov.w	r3, #32
    325e:	f3ef 8111 	mrs	r1, BASEPRI
    3262:	f383 8812 	msr	BASEPRI_MAX, r3
    3266:	f3bf 8f6f 	isb	sy
	hfclk_users |= HF_USER_GENERIC;
    326a:	4a12      	ldr	r2, [pc, #72]	; (32b4 <generic_hfclk_start+0x5c>)
    326c:	6813      	ldr	r3, [r2, #0]
    326e:	f043 0002 	orr.w	r0, r3, #2
	if (hfclk_users & HF_USER_BT) {
    3272:	f013 0301 	ands.w	r3, r3, #1
	hfclk_users |= HF_USER_GENERIC;
    3276:	6010      	str	r0, [r2, #0]
	if (hfclk_users & HF_USER_BT) {
    3278:	d00c      	beq.n	3294 <generic_hfclk_start+0x3c>
            break;
        case NRF_CLOCK_DOMAIN_HFCLK:
            if (p_clk_src != NULL)
            {
                (*(nrf_clock_hfclk_t *)p_clk_src) =
                    (nrf_clock_hfclk_t)((p_reg->HFCLKSTAT & CLOCK_HFCLKSTAT_SRC_Msk)
    327a:	f04f 4280 	mov.w	r2, #1073741824	; 0x40000000
    327e:	f8d2 340c 	ldr.w	r3, [r2, #1036]	; 0x40c
                                        >> CLOCK_HFCLKSTAT_SRC_Pos);
            }
            if ((p_reg->HFCLKSTAT & CLOCK_HFCLKSTAT_STATE_Msk)
    3282:	f8d2 240c 	ldr.w	r2, [r2, #1036]	; 0x40c
		if (type == NRF_CLOCK_HFCLK_HIGH_ACCURACY) {
    3286:	f013 0301 	ands.w	r3, r3, #1
    328a:	d003      	beq.n	3294 <generic_hfclk_start+0x3c>
			set_on_state(get_hf_flags());
    328c:	480a      	ldr	r0, [pc, #40]	; (32b8 <generic_hfclk_start+0x60>)
    328e:	f003 fc9b 	bl	6bc8 <set_on_state>
			already_started = true;
    3292:	2301      	movs	r3, #1
	__asm__ volatile(
    3294:	f381 8811 	msr	BASEPRI, r1
    3298:	f3bf 8f6f 	isb	sy
	if (already_started) {
    329c:	b123      	cbz	r3, 32a8 <generic_hfclk_start+0x50>
}
    329e:	e8bd 4008 	ldmia.w	sp!, {r3, lr}
		clkstarted_handle(CLOCK_DEVICE,
    32a2:	2000      	movs	r0, #0
    32a4:	f7ff bfb0 	b.w	3208 <clkstarted_handle.constprop.0>
}
    32a8:	e8bd 4008 	ldmia.w	sp!, {r3, lr}
    nrfx_clock_stop(NRF_CLOCK_DOMAIN_LFCLK);
}

NRFX_STATIC_INLINE void nrfx_clock_hfclk_start(void)
{
    nrfx_clock_start(NRF_CLOCK_DOMAIN_HFCLK);
    32ac:	2001      	movs	r0, #1
    32ae:	f000 bf5b 	b.w	4168 <nrfx_clock_start>
    32b2:	bf00      	nop
    32b4:	20000c1c 	.word	0x20000c1c
    32b8:	20000c0c 	.word	0x20000c0c

000032bc <generic_hfclk_stop>:
	return __atomic_fetch_and(target, value, __ATOMIC_SEQ_CST);
    32bc:	4b09      	ldr	r3, [pc, #36]	; (32e4 <generic_hfclk_stop+0x28>)
    32be:	f3bf 8f5b 	dmb	ish
    32c2:	e853 2f00 	ldrex	r2, [r3]
    32c6:	f022 0102 	bic.w	r1, r2, #2
    32ca:	e843 1000 	strex	r0, r1, [r3]
    32ce:	2800      	cmp	r0, #0
    32d0:	d1f7      	bne.n	32c2 <generic_hfclk_stop+0x6>
    32d2:	f3bf 8f5b 	dmb	ish
	if (atomic_and(&hfclk_users, ~HF_USER_GENERIC) & HF_USER_BT) {
    32d6:	07d3      	lsls	r3, r2, #31
    32d8:	d402      	bmi.n	32e0 <generic_hfclk_stop+0x24>
}

NRFX_STATIC_INLINE void nrfx_clock_hfclk_stop(void)
{
    nrfx_clock_stop(NRF_CLOCK_DOMAIN_HFCLK);
    32da:	2001      	movs	r0, #1
    32dc:	f000 bf76 	b.w	41cc <nrfx_clock_stop>
}
    32e0:	4770      	bx	lr
    32e2:	bf00      	nop
    32e4:	20000c1c 	.word	0x20000c1c

000032e8 <api_blocking_start>:
{
    32e8:	b51f      	push	{r0, r1, r2, r3, r4, lr}
	struct k_sem sem = Z_SEM_INITIALIZER(sem, 0, 1);
    32ea:	2200      	movs	r2, #0
    32ec:	2301      	movs	r3, #1
    32ee:	e9cd 2302 	strd	r2, r3, [sp, #8]
	err = api_start(dev, subsys, blocking_start_callback, &sem);
    32f2:	4a09      	ldr	r2, [pc, #36]	; (3318 <api_blocking_start+0x30>)
	struct k_sem sem = Z_SEM_INITIALIZER(sem, 0, 1);
    32f4:	f8cd d000 	str.w	sp, [sp]
	err = api_start(dev, subsys, blocking_start_callback, &sem);
    32f8:	466b      	mov	r3, sp
	struct k_sem sem = Z_SEM_INITIALIZER(sem, 0, 1);
    32fa:	f8cd d004 	str.w	sp, [sp, #4]
	err = api_start(dev, subsys, blocking_start_callback, &sem);
    32fe:	f003 fc9c 	bl	6c3a <api_start>
	if (err < 0) {
    3302:	2800      	cmp	r0, #0
    3304:	db05      	blt.n	3312 <api_blocking_start+0x2a>
	return z_impl_k_sem_take(sem, timeout);
    3306:	f44f 4280 	mov.w	r2, #16384	; 0x4000
    330a:	2300      	movs	r3, #0
    330c:	4668      	mov	r0, sp
    330e:	f002 fb31 	bl	5974 <z_impl_k_sem_take>
}
    3312:	b005      	add	sp, #20
    3314:	f85d fb04 	ldr.w	pc, [sp], #4
    3318:	00006c0d 	.word	0x00006c0d

0000331c <z_nrf_clock_control_lf_on>:
{
    331c:	e92d 43f8 	stmdb	sp!, {r3, r4, r5, r6, r7, r8, r9, lr}
	return __atomic_exchange_n(target, value, __ATOMIC_SEQ_CST);
    3320:	493a      	ldr	r1, [pc, #232]	; (340c <z_nrf_clock_control_lf_on+0xf0>)
    3322:	f3bf 8f5b 	dmb	ish
    3326:	4606      	mov	r6, r0
    3328:	2201      	movs	r2, #1
    332a:	e851 3f00 	ldrex	r3, [r1]
    332e:	e841 2000 	strex	r0, r2, [r1]
    3332:	2800      	cmp	r0, #0
    3334:	d1f9      	bne.n	332a <z_nrf_clock_control_lf_on+0xe>
    3336:	f3bf 8f5b 	dmb	ish
	if (atomic_set(&on, 1) == 0) {
    333a:	b933      	cbnz	r3, 334a <z_nrf_clock_control_lf_on+0x2e>
 */
static inline void sys_notify_init_spinwait(struct sys_notify *notify)
{
	__ASSERT_NO_MSG(notify != NULL);

	*notify = (struct sys_notify){
    333c:	4934      	ldr	r1, [pc, #208]	; (3410 <z_nrf_clock_control_lf_on+0xf4>)
		err = onoff_request(mgr, &cli);
    333e:	4835      	ldr	r0, [pc, #212]	; (3414 <z_nrf_clock_control_lf_on+0xf8>)
    3340:	604b      	str	r3, [r1, #4]
    3342:	60cb      	str	r3, [r1, #12]
    3344:	608a      	str	r2, [r1, #8]
    3346:	f003 f98a 	bl	665e <onoff_request>
	switch (start_mode) {
    334a:	1e73      	subs	r3, r6, #1
    334c:	2b01      	cmp	r3, #1
    334e:	d832      	bhi.n	33b6 <z_nrf_clock_control_lf_on+0x9a>
	if ((mode == CLOCK_CONTROL_NRF_LF_START_AVAILABLE) &&
    3350:	2e01      	cmp	r6, #1
    3352:	d107      	bne.n	3364 <z_nrf_clock_control_lf_on+0x48>
    return clk_src;
}

NRF_STATIC_INLINE nrf_clock_lfclk_t nrf_clock_lf_srccopy_get(NRF_CLOCK_Type const * p_reg)
{
    return (nrf_clock_lfclk_t)((p_reg->LFCLKSRCCOPY & CLOCK_LFCLKSRCCOPY_SRC_Msk)
    3354:	f04f 4380 	mov.w	r3, #1073741824	; 0x40000000
    3358:	f8d3 341c 	ldr.w	r3, [r3, #1052]	; 0x41c
    335c:	f003 0303 	and.w	r3, r3, #3
	    (target_type == NRF_CLOCK_LFCLK_Xtal) &&
    3360:	2b01      	cmp	r3, #1
    3362:	d028      	beq.n	33b6 <z_nrf_clock_control_lf_on+0x9a>
	bool isr_mode = k_is_in_isr() || k_is_pre_kernel();
    3364:	f004 f883 	bl	746e <k_is_in_isr>
    3368:	4604      	mov	r4, r0
    336a:	b918      	cbnz	r0, 3374 <z_nrf_clock_control_lf_on+0x58>
	return !z_sys_post_kernel;
    336c:	4b2a      	ldr	r3, [pc, #168]	; (3418 <z_nrf_clock_control_lf_on+0xfc>)
	int key = isr_mode ? irq_lock() : 0;
    336e:	781b      	ldrb	r3, [r3, #0]
    3370:	2b00      	cmp	r3, #0
    3372:	d144      	bne.n	33fe <z_nrf_clock_control_lf_on+0xe2>
	__asm__ volatile(
    3374:	f04f 0320 	mov.w	r3, #32
    3378:	f3ef 8511 	mrs	r5, BASEPRI
    337c:	f383 8812 	msr	BASEPRI_MAX, r3
    3380:	f3bf 8f6f 	isb	sy
    3384:	2401      	movs	r4, #1
    return (bool)*((volatile uint32_t *)((uint8_t *)p_reg + event));
    3386:	4f25      	ldr	r7, [pc, #148]	; (341c <z_nrf_clock_control_lf_on+0x100>)
    NVIC->ICPR[(((uint32_t)IRQn) >> 5UL)] = (uint32_t)(1UL << (((uint32_t)IRQn) & 0x1FUL));
    3388:	f8df 8094 	ldr.w	r8, [pc, #148]	; 3420 <z_nrf_clock_control_lf_on+0x104>
    *((volatile uint32_t *)((uint8_t *)p_reg + (uint32_t)task)) = 0x1UL;
    338c:	f8df 9094 	ldr.w	r9, [pc, #148]	; 3424 <z_nrf_clock_control_lf_on+0x108>
                    (nrf_clock_lfclk_t)((p_reg->LFCLKSTAT & CLOCK_LFCLKSTAT_SRC_Msk)
    3390:	f04f 4280 	mov.w	r2, #1073741824	; 0x40000000
    3394:	f8d2 3418 	ldr.w	r3, [r2, #1048]	; 0x418
            if ((p_reg->LFCLKSTAT & CLOCK_LFCLKSTAT_STATE_Msk)
    3398:	f8d2 2418 	ldr.w	r2, [r2, #1048]	; 0x418
    339c:	03d2      	lsls	r2, r2, #15
    339e:	d50c      	bpl.n	33ba <z_nrf_clock_control_lf_on+0x9e>
                                        >> CLOCK_LFCLKSTAT_SRC_Pos);
    33a0:	f003 0303 	and.w	r3, r3, #3
	while (!(nrfx_clock_is_running(d, (void *)&type)
    33a4:	2b01      	cmp	r3, #1
    33a6:	d001      	beq.n	33ac <z_nrf_clock_control_lf_on+0x90>
		     || (mode == CLOCK_CONTROL_NRF_LF_START_AVAILABLE)))) {
    33a8:	2e01      	cmp	r6, #1
    33aa:	d106      	bne.n	33ba <z_nrf_clock_control_lf_on+0x9e>
	if (isr_mode) {
    33ac:	b30c      	cbz	r4, 33f2 <z_nrf_clock_control_lf_on+0xd6>
	__asm__ volatile(
    33ae:	f385 8811 	msr	BASEPRI, r5
    33b2:	f3bf 8f6f 	isb	sy
}
    33b6:	e8bd 83f8 	ldmia.w	sp!, {r3, r4, r5, r6, r7, r8, r9, pc}
			if (isr_mode || !IS_ENABLED(CONFIG_MULTITHREADING)) {
    33ba:	b1ac      	cbz	r4, 33e8 <z_nrf_clock_control_lf_on+0xcc>
 *
 * @return N/A
 */
static inline void k_cpu_atomic_idle(unsigned int key)
{
	arch_cpu_atomic_idle(key);
    33bc:	4628      	mov	r0, r5
    33be:	f7ff f8eb 	bl	2598 <arch_cpu_atomic_idle>
    return (nrf_clock_lfclk_t)(p_reg->LFCLKSRC);
    33c2:	f04f 4280 	mov.w	r2, #1073741824	; 0x40000000
    33c6:	f8d2 3518 	ldr.w	r3, [r2, #1304]	; 0x518
		if ((target_type ==  NRF_CLOCK_LFCLK_Xtal)
    33ca:	2b00      	cmp	r3, #0
    33cc:	d1e0      	bne.n	3390 <z_nrf_clock_control_lf_on+0x74>
    return (bool)*((volatile uint32_t *)((uint8_t *)p_reg + event));
    33ce:	6839      	ldr	r1, [r7, #0]
		    && nrf_clock_event_check(NRF_CLOCK,
    33d0:	2900      	cmp	r1, #0
    33d2:	d0dd      	beq.n	3390 <z_nrf_clock_control_lf_on+0x74>
    *((volatile uint32_t *)((uint8_t *)p_reg + (uint32_t)event)) = 0x0UL;
    33d4:	603b      	str	r3, [r7, #0]
    33d6:	683b      	ldr	r3, [r7, #0]
    p_reg->LFCLKSRC = (uint32_t)(source);
    33d8:	2301      	movs	r3, #1
    33da:	f8c2 3518 	str.w	r3, [r2, #1304]	; 0x518
    33de:	f8c8 3180 	str.w	r3, [r8, #384]	; 0x180
    *((volatile uint32_t *)((uint8_t *)p_reg + (uint32_t)task)) = 0x1UL;
    33e2:	f8c9 3000 	str.w	r3, [r9]
}
    33e6:	e7d3      	b.n	3390 <z_nrf_clock_control_lf_on+0x74>
	return z_impl_k_sleep(timeout);
    33e8:	2100      	movs	r1, #0
    33ea:	2021      	movs	r0, #33	; 0x21
    33ec:	f002 fa30 	bl	5850 <z_impl_k_sleep>
	return k_sleep(Z_TIMEOUT_MS(ms));
    33f0:	e7e7      	b.n	33c2 <z_nrf_clock_control_lf_on+0xa6>
    p_reg->INTENSET = mask;
    33f2:	f04f 4380 	mov.w	r3, #1073741824	; 0x40000000
    33f6:	2202      	movs	r2, #2
    33f8:	f8c3 2304 	str.w	r2, [r3, #772]	; 0x304
}
    33fc:	e7db      	b.n	33b6 <z_nrf_clock_control_lf_on+0x9a>
    p_reg->INTENCLR = mask;
    33fe:	f04f 4380 	mov.w	r3, #1073741824	; 0x40000000
    3402:	2202      	movs	r2, #2
    3404:	f8c3 2308 	str.w	r2, [r3, #776]	; 0x308
	int key = isr_mode ? irq_lock() : 0;
    3408:	4605      	mov	r5, r0
}
    340a:	e7bc      	b.n	3386 <z_nrf_clock_control_lf_on+0x6a>
    340c:	20000c20 	.word	0x20000c20
    3410:	20000bbc 	.word	0x20000bbc
    3414:	20000be8 	.word	0x20000be8
    3418:	20000f47 	.word	0x20000f47
    341c:	40000104 	.word	0x40000104
    3420:	e000e100 	.word	0xe000e100
    3424:	40000008 	.word	0x40000008

00003428 <console_out>:

static int console_out(int c)
{
#ifdef CONFIG_UART_CONSOLE_DEBUG_SERVER_HOOKS

	int handled_by_debug_server = HANDLE_DEBUG_HOOK_OUT(c);
    3428:	4b0a      	ldr	r3, [pc, #40]	; (3454 <console_out+0x2c>)
{
    342a:	b570      	push	{r4, r5, r6, lr}
	int handled_by_debug_server = HANDLE_DEBUG_HOOK_OUT(c);
    342c:	b2c6      	uxtb	r6, r0
    342e:	681b      	ldr	r3, [r3, #0]
{
    3430:	4604      	mov	r4, r0
	int handled_by_debug_server = HANDLE_DEBUG_HOOK_OUT(c);
    3432:	4630      	mov	r0, r6
    3434:	4798      	blx	r3

	if (handled_by_debug_server) {
    3436:	2801      	cmp	r0, #1
    3438:	d00a      	beq.n	3450 <console_out+0x28>
		return c;
	}

#endif  /* CONFIG_UART_CONSOLE_DEBUG_SERVER_HOOKS */

	if ('\n' == c) {
    343a:	2c0a      	cmp	r4, #10
    343c:	4d06      	ldr	r5, [pc, #24]	; (3458 <console_out+0x30>)
    343e:	d103      	bne.n	3448 <console_out+0x20>
		uart_poll_out(uart_console_dev, '\r');
    3440:	6828      	ldr	r0, [r5, #0]
    3442:	210d      	movs	r1, #13
    3444:	f003 fc14 	bl	6c70 <uart_poll_out>
	}
	uart_poll_out(uart_console_dev, c);
    3448:	6828      	ldr	r0, [r5, #0]
    344a:	4631      	mov	r1, r6
    344c:	f003 fc10 	bl	6c70 <uart_poll_out>

	return c;
}
    3450:	4620      	mov	r0, r4
    3452:	bd70      	pop	{r4, r5, r6, pc}
    3454:	200000cc 	.word	0x200000cc
    3458:	20000c24 	.word	0x20000c24

0000345c <uart_console_init>:
 * @brief Initialize one UART as the console/debug port
 *
 * @return 0 if successful, otherwise failed.
 */
static int uart_console_init(const struct device *arg)
{
    345c:	b508      	push	{r3, lr}

	ARG_UNUSED(arg);

	/* Claim console device */
	uart_console_dev = DEVICE_DT_GET(DT_CHOSEN(zephyr_console));
    345e:	4b08      	ldr	r3, [pc, #32]	; (3480 <uart_console_init+0x24>)
    3460:	4808      	ldr	r0, [pc, #32]	; (3484 <uart_console_init+0x28>)
    3462:	6018      	str	r0, [r3, #0]
    3464:	f003 feb2 	bl	71cc <z_device_ready>
    3468:	b138      	cbz	r0, 347a <uart_console_init+0x1e>
	__stdout_hook_install(console_out);
    346a:	4807      	ldr	r0, [pc, #28]	; (3488 <uart_console_init+0x2c>)
    346c:	f7ff fc16 	bl	2c9c <__stdout_hook_install>
	__printk_hook_install(console_out);
    3470:	4805      	ldr	r0, [pc, #20]	; (3488 <uart_console_init+0x2c>)
    3472:	f7ff f835 	bl	24e0 <__printk_hook_install>
		return -ENODEV;
	}

	uart_console_hook_install();

	return 0;
    3476:	2000      	movs	r0, #0
}
    3478:	bd08      	pop	{r3, pc}
		return -ENODEV;
    347a:	f06f 0012 	mvn.w	r0, #18
    347e:	e7fb      	b.n	3478 <uart_console_init+0x1c>
    3480:	20000c24 	.word	0x20000c24
    3484:	00007638 	.word	0x00007638
    3488:	00003429 	.word	0x00003429

0000348c <nrfx_gpio_handler>:
			dev = DEVICE_DT_INST_GET(i); \
		}

	if (0) {
	} /* Followed by else if from FOREACH macro. Done to avoid return statement in macro.  */
	DT_INST_FOREACH_STATUS_OKAY(GPIO_NRF_GET_DEV)
    348c:	0942      	lsrs	r2, r0, #5
}

static void nrfx_gpio_handler(nrfx_gpiote_pin_t abs_pin,
			      nrfx_gpiote_trigger_t trigger,
			      void *context)
{
    348e:	b570      	push	{r4, r5, r6, lr}
    3490:	4603      	mov	r3, r0
	DT_INST_FOREACH_STATUS_OKAY(GPIO_NRF_GET_DEV)
    3492:	d002      	beq.n	349a <nrfx_gpio_handler+0xe>
    3494:	2a01      	cmp	r2, #1
    3496:	d01d      	beq.n	34d4 <nrfx_gpio_handler+0x48>

	struct gpio_nrfx_data *data = get_port_data(port);
	sys_slist_t *list = &data->callbacks;

	gpio_fire_callbacks(list, port, BIT(pin));
}
    3498:	bd70      	pop	{r4, r5, r6, pc}
	DT_INST_FOREACH_STATUS_OKAY(GPIO_NRF_GET_DEV)
    349a:	4e0f      	ldr	r6, [pc, #60]	; (34d8 <nrfx_gpio_handler+0x4c>)
					const struct device *port,
					uint32_t pins)
{
	struct gpio_callback *cb, *tmp;

	SYS_SLIST_FOR_EACH_CONTAINER_SAFE(list, cb, tmp, node) {
    349c:	6932      	ldr	r2, [r6, #16]
    349e:	6851      	ldr	r1, [r2, #4]
    34a0:	2900      	cmp	r1, #0
    34a2:	d0f9      	beq.n	3498 <nrfx_gpio_handler+0xc>
    34a4:	680c      	ldr	r4, [r1, #0]
}

NRF_STATIC_INLINE uint32_t nrf_gpio_pin_port_number_extract(uint32_t * p_pin)
{
    uint32_t pin_number = *p_pin;
    *p_pin = pin_number & 0x1F;
    34a6:	f003 031f 	and.w	r3, r3, #31
	gpio_fire_callbacks(list, port, BIT(pin));
    34aa:	2501      	movs	r5, #1
    34ac:	2c00      	cmp	r4, #0
    34ae:	fa05 f503 	lsl.w	r5, r5, r3
	return node->next;
    34b2:	bf38      	it	cc
    34b4:	2400      	movcc	r4, #0
		if (cb->pin_mask & pins) {
    34b6:	688a      	ldr	r2, [r1, #8]
    34b8:	402a      	ands	r2, r5
    34ba:	d002      	beq.n	34c2 <nrfx_gpio_handler+0x36>
			__ASSERT(cb->handler, "No callback handler!");
			cb->handler(port, cb, cb->pin_mask & pins);
    34bc:	684b      	ldr	r3, [r1, #4]
    34be:	4630      	mov	r0, r6
    34c0:	4798      	blx	r3
	SYS_SLIST_FOR_EACH_CONTAINER_SAFE(list, cb, tmp, node) {
    34c2:	2c00      	cmp	r4, #0
    34c4:	d0e8      	beq.n	3498 <nrfx_gpio_handler+0xc>
    34c6:	6823      	ldr	r3, [r4, #0]
    34c8:	2b00      	cmp	r3, #0
    34ca:	bf38      	it	cc
    34cc:	2300      	movcc	r3, #0
Z_GENLIST_PEEK_NEXT_NO_CHECK(slist, snode)
    34ce:	4621      	mov	r1, r4
    34d0:	461c      	mov	r4, r3
    34d2:	e7f0      	b.n	34b6 <nrfx_gpio_handler+0x2a>
	DT_INST_FOREACH_STATUS_OKAY(GPIO_NRF_GET_DEV)
    34d4:	4e01      	ldr	r6, [pc, #4]	; (34dc <nrfx_gpio_handler+0x50>)
    34d6:	e7e1      	b.n	349c <nrfx_gpio_handler+0x10>
    34d8:	000075f0 	.word	0x000075f0
    34dc:	00007608 	.word	0x00007608

000034e0 <gpio_nrfx_pin_interrupt_configure>:
{
    34e0:	b530      	push	{r4, r5, lr}
	uint32_t abs_pin = NRF_GPIO_PIN_MAP(get_port_cfg(port)->port_num, pin);
    34e2:	6840      	ldr	r0, [r0, #4]
    34e4:	7b04      	ldrb	r4, [r0, #12]
    34e6:	f001 051f 	and.w	r5, r1, #31
	if (mode == GPIO_INT_MODE_DISABLED) {
    34ea:	f5b2 5f00 	cmp.w	r2, #8192	; 0x2000
	uint32_t abs_pin = NRF_GPIO_PIN_MAP(get_port_cfg(port)->port_num, pin);
    34ee:	ea45 1544 	orr.w	r5, r5, r4, lsl #5
{
    34f2:	b085      	sub	sp, #20
    34f4:	f04f 0400 	mov.w	r4, #0
	if (mode == GPIO_INT_MODE_DISABLED) {
    34f8:	d104      	bne.n	3504 <gpio_nrfx_pin_interrupt_configure+0x24>
		nrfx_gpiote_trigger_disable(abs_pin);
    34fa:	4628      	mov	r0, r5
    34fc:	f001 f94c 	bl	4798 <nrfx_gpiote_trigger_disable>
	return 0;
    3500:	2000      	movs	r0, #0
    3502:	e032      	b.n	356a <gpio_nrfx_pin_interrupt_configure+0x8a>
	if (mode == GPIO_INT_MODE_LEVEL) {
    3504:	f5b2 4f80 	cmp.w	r2, #16384	; 0x4000
	nrfx_gpiote_trigger_config_t trigger_config = {
    3508:	e9cd 4402 	strd	r4, r4, [sp, #8]
	if (mode == GPIO_INT_MODE_LEVEL) {
    350c:	d12f      	bne.n	356e <gpio_nrfx_pin_interrupt_configure+0x8e>
		return trig == GPIO_INT_TRIG_LOW ? NRFX_GPIOTE_TRIGGER_LOW :
    350e:	f5b3 3f00 	cmp.w	r3, #131072	; 0x20000
    3512:	bf0c      	ite	eq
    3514:	2304      	moveq	r3, #4
    3516:	2305      	movne	r3, #5
	nrfx_gpiote_trigger_config_t trigger_config = {
    3518:	f88d 3008 	strb.w	r3, [sp, #8]
	if (!(BIT(pin) & get_port_cfg(port)->edge_sense) &&
    351c:	6883      	ldr	r3, [r0, #8]
    351e:	fa23 f101 	lsr.w	r1, r3, r1
    3522:	07c9      	lsls	r1, r1, #31
    3524:	d42f      	bmi.n	3586 <gpio_nrfx_pin_interrupt_configure+0xa6>
    3526:	f5b2 3fa0 	cmp.w	r2, #81920	; 0x14000
    352a:	d12c      	bne.n	3586 <gpio_nrfx_pin_interrupt_configure+0xa6>

    return pin_number >> 5;
    352c:	096a      	lsrs	r2, r5, #5
        case 1: return NRF_P1;
    352e:	2a01      	cmp	r2, #1
    *p_pin = pin_number & 0x1F;
    3530:	f005 031f 	and.w	r3, r5, #31
        case 1: return NRF_P1;
    3534:	4a1c      	ldr	r2, [pc, #112]	; (35a8 <gpio_nrfx_pin_interrupt_configure+0xc8>)
    return (nrf_gpio_pin_dir_t)((reg->PIN_CNF[pin_number] &
    3536:	f503 73e0 	add.w	r3, r3, #448	; 0x1c0
        case 1: return NRF_P1;
    353a:	bf18      	it	ne
    353c:	f04f 42a0 	movne.w	r2, #1342177280	; 0x50000000
    return (nrf_gpio_pin_dir_t)((reg->PIN_CNF[pin_number] &
    3540:	f852 3023 	ldr.w	r3, [r2, r3, lsl #2]
	    (mode == GPIO_INT_MODE_EDGE) &&
    3544:	07db      	lsls	r3, r3, #31
    3546:	d41e      	bmi.n	3586 <gpio_nrfx_pin_interrupt_configure+0xa6>
		err = nrfx_gpiote_channel_get(abs_pin, &ch);
    3548:	f10d 0407 	add.w	r4, sp, #7
    354c:	4621      	mov	r1, r4
    354e:	4628      	mov	r0, r5
    3550:	f001 f88e 	bl	4670 <nrfx_gpiote_channel_get>
		if (err == NRFX_ERROR_INVALID_PARAM) {
    3554:	4b15      	ldr	r3, [pc, #84]	; (35ac <gpio_nrfx_pin_interrupt_configure+0xcc>)
    3556:	4298      	cmp	r0, r3
    3558:	d114      	bne.n	3584 <gpio_nrfx_pin_interrupt_configure+0xa4>
			err = nrfx_gpiote_channel_alloc(&ch);
    355a:	4620      	mov	r0, r4
    355c:	f001 f8d2 	bl	4704 <nrfx_gpiote_channel_alloc>
			if (err != NRFX_SUCCESS) {
    3560:	4b13      	ldr	r3, [pc, #76]	; (35b0 <gpio_nrfx_pin_interrupt_configure+0xd0>)
    3562:	4298      	cmp	r0, r3
    3564:	d00e      	beq.n	3584 <gpio_nrfx_pin_interrupt_configure+0xa4>
				return -ENOMEM;
    3566:	f06f 000b 	mvn.w	r0, #11
}
    356a:	b005      	add	sp, #20
    356c:	bd30      	pop	{r4, r5, pc}
	return trig == GPIO_INT_TRIG_BOTH ? NRFX_GPIOTE_TRIGGER_TOGGLE :
    356e:	f5b3 2fc0 	cmp.w	r3, #393216	; 0x60000
    3572:	d005      	beq.n	3580 <gpio_nrfx_pin_interrupt_configure+0xa0>
    3574:	f5b3 3f00 	cmp.w	r3, #131072	; 0x20000
    3578:	bf0c      	ite	eq
    357a:	2302      	moveq	r3, #2
    357c:	2301      	movne	r3, #1
    357e:	e7cb      	b.n	3518 <gpio_nrfx_pin_interrupt_configure+0x38>
    3580:	2303      	movs	r3, #3
    3582:	e7c9      	b.n	3518 <gpio_nrfx_pin_interrupt_configure+0x38>
		trigger_config.p_in_channel = &ch;
    3584:	9403      	str	r4, [sp, #12]
	err = nrfx_gpiote_input_configure(abs_pin, NULL, &trigger_config, NULL);
    3586:	2300      	movs	r3, #0
    3588:	4619      	mov	r1, r3
    358a:	aa02      	add	r2, sp, #8
    358c:	4628      	mov	r0, r5
    358e:	f000 ff4d 	bl	442c <nrfx_gpiote_input_configure>
	if (err != NRFX_SUCCESS) {
    3592:	4b07      	ldr	r3, [pc, #28]	; (35b0 <gpio_nrfx_pin_interrupt_configure+0xd0>)
    3594:	4298      	cmp	r0, r3
    3596:	d104      	bne.n	35a2 <gpio_nrfx_pin_interrupt_configure+0xc2>
	nrfx_gpiote_trigger_enable(abs_pin, true);
    3598:	2101      	movs	r1, #1
    359a:	4628      	mov	r0, r5
    359c:	f001 f8b8 	bl	4710 <nrfx_gpiote_trigger_enable>
    35a0:	e7ae      	b.n	3500 <gpio_nrfx_pin_interrupt_configure+0x20>
		return -EIO;
    35a2:	f06f 0004 	mvn.w	r0, #4
    35a6:	e7e0      	b.n	356a <gpio_nrfx_pin_interrupt_configure+0x8a>
    35a8:	50000300 	.word	0x50000300
    35ac:	0bad0004 	.word	0x0bad0004
    35b0:	0bad0000 	.word	0x0bad0000

000035b4 <gpio_nrfx_init>:

#define GPIOTE_NODE DT_INST(0, nordic_nrf_gpiote)

static int gpio_nrfx_init(const struct device *port)
{
    35b4:	b510      	push	{r4, lr}
	nrfx_err_t err;

	if (nrfx_gpiote_is_init()) {
    35b6:	f001 f895 	bl	46e4 <nrfx_gpiote_is_init>
    35ba:	4604      	mov	r4, r0
    35bc:	b968      	cbnz	r0, 35da <gpio_nrfx_init+0x26>
		return 0;
	}

	err = nrfx_gpiote_init(0/*not used*/);
    35be:	f001 f869 	bl	4694 <nrfx_gpiote_init>
	if (err != NRFX_SUCCESS) {
    35c2:	4b08      	ldr	r3, [pc, #32]	; (35e4 <gpio_nrfx_init+0x30>)
    35c4:	4298      	cmp	r0, r3
    35c6:	d10a      	bne.n	35de <gpio_nrfx_init+0x2a>
		return -EIO;
	}

	nrfx_gpiote_global_callback_set(nrfx_gpio_handler, NULL);
    35c8:	4807      	ldr	r0, [pc, #28]	; (35e8 <gpio_nrfx_init+0x34>)
    35ca:	4621      	mov	r1, r4
    35cc:	f001 f84a 	bl	4664 <nrfx_gpiote_global_callback_set>

	IRQ_CONNECT(DT_IRQN(GPIOTE_NODE), DT_IRQ(GPIOTE_NODE, priority),
    35d0:	4622      	mov	r2, r4
    35d2:	2105      	movs	r1, #5
    35d4:	2006      	movs	r0, #6
    35d6:	f7ff f865 	bl	26a4 <z_arm_irq_priority_set>
		return 0;
    35da:	2000      	movs	r0, #0
		    nrfx_isr, nrfx_gpiote_irq_handler, 0);

	return 0;
}
    35dc:	bd10      	pop	{r4, pc}
		return -EIO;
    35de:	f06f 0004 	mvn.w	r0, #4
    35e2:	e7fb      	b.n	35dc <gpio_nrfx_init+0x28>
    35e4:	0bad0000 	.word	0x0bad0000
    35e8:	0000348d 	.word	0x0000348d

000035ec <gpio_nrfx_pin_configure>:
{
    35ec:	e92d 43f0 	stmdb	sp!, {r4, r5, r6, r7, r8, r9, lr}
	const struct gpio_nrfx_cfg *cfg = get_port_cfg(port);
    35f0:	6847      	ldr	r7, [r0, #4]
	nrfx_gpiote_pin_t abs_pin = NRF_GPIO_PIN_MAP(cfg->port_num, pin);
    35f2:	7b3b      	ldrb	r3, [r7, #12]
    35f4:	f001 051f 	and.w	r5, r1, #31
{
    35f8:	b085      	sub	sp, #20
    35fa:	460e      	mov	r6, r1
	nrfx_gpiote_pin_t abs_pin = NRF_GPIO_PIN_MAP(cfg->port_num, pin);
    35fc:	ea45 1543 	orr.w	r5, r5, r3, lsl #5
	if (flags == GPIO_DISCONNECTED) {
    3600:	4614      	mov	r4, r2
    3602:	b9ca      	cbnz	r2, 3638 <gpio_nrfx_pin_configure+0x4c>
	err = nrfx_gpiote_channel_get(pin, &ch);
    3604:	a902      	add	r1, sp, #8
    3606:	4628      	mov	r0, r5
    3608:	f001 f832 	bl	4670 <nrfx_gpiote_channel_get>
    360c:	4604      	mov	r4, r0
	err = nrfx_gpiote_pin_uninit(pin);
    360e:	4628      	mov	r0, r5
    3610:	f001 f8e4 	bl	47dc <nrfx_gpiote_pin_uninit>
	if (err != NRFX_SUCCESS) {
    3614:	4b48      	ldr	r3, [pc, #288]	; (3738 <gpio_nrfx_pin_configure+0x14c>)
    3616:	4298      	cmp	r0, r3
    3618:	d004      	beq.n	3624 <gpio_nrfx_pin_configure+0x38>
		return -EIO;
    361a:	f06f 0004 	mvn.w	r0, #4
}
    361e:	b005      	add	sp, #20
    3620:	e8bd 83f0 	ldmia.w	sp!, {r4, r5, r6, r7, r8, r9, pc}
	if (free_ch) {
    3624:	4284      	cmp	r4, r0
    3626:	d105      	bne.n	3634 <gpio_nrfx_pin_configure+0x48>
		err = nrfx_gpiote_channel_free(ch);
    3628:	f89d 0008 	ldrb.w	r0, [sp, #8]
    362c:	f001 f864 	bl	46f8 <nrfx_gpiote_channel_free>
	return (err != NRFX_SUCCESS) ? -EIO : 0;
    3630:	42a0      	cmp	r0, r4
    3632:	d1f2      	bne.n	361a <gpio_nrfx_pin_configure+0x2e>
	return (err != NRFX_SUCCESS) ? -EINVAL : 0;
    3634:	2000      	movs	r0, #0
    3636:	e7f2      	b.n	361e <gpio_nrfx_pin_configure+0x32>
	nrfx_gpiote_trigger_config_t trigger_config = {
    3638:	f04f 0900 	mov.w	r9, #0
	err = nrfx_gpiote_channel_get(pin, &ch);
    363c:	f10d 0103 	add.w	r1, sp, #3
    3640:	4630      	mov	r0, r6
	nrfx_gpiote_trigger_config_t trigger_config = {
    3642:	e9cd 9902 	strd	r9, r9, [sp, #8]
	err = nrfx_gpiote_channel_get(pin, &ch);
    3646:	f001 f813 	bl	4670 <nrfx_gpiote_channel_get>
	err = nrfx_gpiote_input_configure(abs_pin, NULL, &trigger_config, NULL);
    364a:	464b      	mov	r3, r9
	err = nrfx_gpiote_channel_get(pin, &ch);
    364c:	4680      	mov	r8, r0
	err = nrfx_gpiote_input_configure(abs_pin, NULL, &trigger_config, NULL);
    364e:	aa02      	add	r2, sp, #8
    3650:	4649      	mov	r1, r9
    3652:	4628      	mov	r0, r5
    3654:	f000 feea 	bl	442c <nrfx_gpiote_input_configure>
	if (err != NRFX_SUCCESS) {
    3658:	4b37      	ldr	r3, [pc, #220]	; (3738 <gpio_nrfx_pin_configure+0x14c>)
    365a:	4298      	cmp	r0, r3
    365c:	d002      	beq.n	3664 <gpio_nrfx_pin_configure+0x78>
	switch (flags & (GPIO_DS_LOW_MASK | GPIO_DS_HIGH_MASK |
    365e:	f06f 0015 	mvn.w	r0, #21
    3662:	e7dc      	b.n	361e <gpio_nrfx_pin_configure+0x32>
	if (free_ch) {
    3664:	4580      	cmp	r8, r0
    3666:	d103      	bne.n	3670 <gpio_nrfx_pin_configure+0x84>
		err = nrfx_gpiote_channel_free(ch);
    3668:	f89d 0003 	ldrb.w	r0, [sp, #3]
    366c:	f001 f844 	bl	46f8 <nrfx_gpiote_channel_free>
	if (flags & GPIO_OUTPUT) {
    3670:	05a3      	lsls	r3, r4, #22
    3672:	d54e      	bpl.n	3712 <gpio_nrfx_pin_configure+0x126>
	switch (flags & (GPIO_DS_LOW_MASK | GPIO_DS_HIGH_MASK |
    3674:	4b31      	ldr	r3, [pc, #196]	; (373c <gpio_nrfx_pin_configure+0x150>)
    3676:	4a32      	ldr	r2, [pc, #200]	; (3740 <gpio_nrfx_pin_configure+0x154>)
    3678:	4023      	ands	r3, r4
    367a:	4293      	cmp	r3, r2
    367c:	d03a      	beq.n	36f4 <gpio_nrfx_pin_configure+0x108>
    367e:	d80c      	bhi.n	369a <gpio_nrfx_pin_configure+0xae>
    3680:	2b06      	cmp	r3, #6
    3682:	d014      	beq.n	36ae <gpio_nrfx_pin_configure+0xc2>
    3684:	d804      	bhi.n	3690 <gpio_nrfx_pin_configure+0xa4>
    3686:	b193      	cbz	r3, 36ae <gpio_nrfx_pin_configure+0xc2>
    3688:	2b02      	cmp	r3, #2
    368a:	d1e8      	bne.n	365e <gpio_nrfx_pin_configure+0x72>
    368c:	2304      	movs	r3, #4
    368e:	e00e      	b.n	36ae <gpio_nrfx_pin_configure+0xc2>
    3690:	f5b3 1f80 	cmp.w	r3, #1048576	; 0x100000
    3694:	d1e3      	bne.n	365e <gpio_nrfx_pin_configure+0x72>
		*drive = NRF_GPIO_PIN_H0S1;
    3696:	2301      	movs	r3, #1
    3698:	e009      	b.n	36ae <gpio_nrfx_pin_configure+0xc2>
	switch (flags & (GPIO_DS_LOW_MASK | GPIO_DS_HIGH_MASK |
    369a:	4a2a      	ldr	r2, [pc, #168]	; (3744 <gpio_nrfx_pin_configure+0x158>)
    369c:	4293      	cmp	r3, r2
    369e:	d02b      	beq.n	36f8 <gpio_nrfx_pin_configure+0x10c>
    36a0:	f5b3 0fa0 	cmp.w	r3, #5242880	; 0x500000
    36a4:	d02a      	beq.n	36fc <gpio_nrfx_pin_configure+0x110>
    36a6:	f5b3 0f80 	cmp.w	r3, #4194304	; 0x400000
    36aa:	d1d8      	bne.n	365e <gpio_nrfx_pin_configure+0x72>
		*drive = NRF_GPIO_PIN_S0H1;
    36ac:	2302      	movs	r3, #2
		nrfx_gpiote_output_config_t output_config = {
    36ae:	f88d 3004 	strb.w	r3, [sp, #4]
				NRF_GPIO_PIN_INPUT_CONNECT :
    36b2:	f484 7380 	eor.w	r3, r4, #256	; 0x100
    36b6:	f3c3 2300 	ubfx	r3, r3, #8, #1
	if (flags & GPIO_PULL_UP) {
    36ba:	06e0      	lsls	r0, r4, #27
		nrfx_gpiote_output_config_t output_config = {
    36bc:	f88d 3005 	strb.w	r3, [sp, #5]
		return NRF_GPIO_PIN_PULLDOWN;
    36c0:	bf54      	ite	pl
    36c2:	f3c4 1340 	ubfxpl	r3, r4, #5, #1
		return NRF_GPIO_PIN_PULLUP;
    36c6:	2303      	movmi	r3, #3
		if (flags & GPIO_OUTPUT_INIT_HIGH) {
    36c8:	0521      	lsls	r1, r4, #20
		nrfx_gpiote_output_config_t output_config = {
    36ca:	f88d 3006 	strb.w	r3, [sp, #6]
		if (flags & GPIO_OUTPUT_INIT_HIGH) {
    36ce:	d517      	bpl.n	3700 <gpio_nrfx_pin_configure+0x114>
			nrf_gpio_port_out_set(cfg->port, BIT(pin));
    36d0:	687b      	ldr	r3, [r7, #4]
    36d2:	2101      	movs	r1, #1
    36d4:	fa01 f606 	lsl.w	r6, r1, r6
    p_reg->OUTSET = set_mask;
    36d8:	f8c3 6508 	str.w	r6, [r3, #1288]	; 0x508
		err = nrfx_gpiote_output_configure(abs_pin, &output_config, NULL);
    36dc:	2200      	movs	r2, #0
    36de:	a901      	add	r1, sp, #4
    36e0:	4628      	mov	r0, r5
    36e2:	f000 ff4f 	bl	4584 <nrfx_gpiote_output_configure>
		return (err != NRFX_SUCCESS) ? -EINVAL : 0;
    36e6:	4b14      	ldr	r3, [pc, #80]	; (3738 <gpio_nrfx_pin_configure+0x14c>)
    36e8:	4298      	cmp	r0, r3
    36ea:	bf14      	ite	ne
    36ec:	f06f 0015 	mvnne.w	r0, #21
    36f0:	2000      	moveq	r0, #0
    36f2:	e794      	b.n	361e <gpio_nrfx_pin_configure+0x32>
		*drive = NRF_GPIO_PIN_H0D1;
    36f4:	2307      	movs	r3, #7
    36f6:	e7da      	b.n	36ae <gpio_nrfx_pin_configure+0xc2>
		*drive = NRF_GPIO_PIN_D0H1;
    36f8:	2305      	movs	r3, #5
    36fa:	e7d8      	b.n	36ae <gpio_nrfx_pin_configure+0xc2>
		*drive = NRF_GPIO_PIN_H0H1;
    36fc:	2303      	movs	r3, #3
    36fe:	e7d6      	b.n	36ae <gpio_nrfx_pin_configure+0xc2>
		} else if (flags & GPIO_OUTPUT_INIT_LOW) {
    3700:	0562      	lsls	r2, r4, #21
			nrf_gpio_port_out_clear(cfg->port, BIT(pin));
    3702:	bf41      	itttt	mi
    3704:	687b      	ldrmi	r3, [r7, #4]
    3706:	2101      	movmi	r1, #1
    3708:	fa01 f606 	lslmi.w	r6, r1, r6
    p_reg->OUTCLR = clr_mask;
    370c:	f8c3 650c 	strmi.w	r6, [r3, #1292]	; 0x50c
}
    3710:	e7e4      	b.n	36dc <gpio_nrfx_pin_configure+0xf0>
	if (flags & GPIO_PULL_UP) {
    3712:	06e3      	lsls	r3, r4, #27
	err = nrfx_gpiote_input_configure(abs_pin, &input_config, NULL, NULL);
    3714:	f04f 0300 	mov.w	r3, #0
		return NRF_GPIO_PIN_PULLUP;
    3718:	bf54      	ite	pl
    371a:	f3c4 1440 	ubfxpl	r4, r4, #5, #1
    371e:	2403      	movmi	r4, #3
	err = nrfx_gpiote_input_configure(abs_pin, &input_config, NULL, NULL);
    3720:	461a      	mov	r2, r3
    3722:	a901      	add	r1, sp, #4
    3724:	4628      	mov	r0, r5
	nrfx_gpiote_input_config_t input_config = {
    3726:	f88d 4004 	strb.w	r4, [sp, #4]
	err = nrfx_gpiote_input_configure(abs_pin, &input_config, NULL, NULL);
    372a:	f000 fe7f 	bl	442c <nrfx_gpiote_input_configure>
	return (err != NRFX_SUCCESS) ? -EINVAL : 0;
    372e:	4b02      	ldr	r3, [pc, #8]	; (3738 <gpio_nrfx_pin_configure+0x14c>)
    3730:	4298      	cmp	r0, r3
    3732:	f43f af7f 	beq.w	3634 <gpio_nrfx_pin_configure+0x48>
    3736:	e792      	b.n	365e <gpio_nrfx_pin_configure+0x72>
    3738:	0bad0000 	.word	0x0bad0000
    373c:	00f00006 	.word	0x00f00006
    3740:	00100006 	.word	0x00100006
    3744:	00400002 	.word	0x00400002

00003748 <pwm_nrfx_get_cycles_per_sec>:
{
	/* TODO: Since this function might be removed, we will always return
	 * 16MHz from this function and handle the conversion with prescaler,
	 * etc, in the pin set function. See issue #6958.
	 */
	*cycles = 16ul * 1000ul * 1000ul;
    3748:	4802      	ldr	r0, [pc, #8]	; (3754 <pwm_nrfx_get_cycles_per_sec+0xc>)
    374a:	2100      	movs	r1, #0
    374c:	e9c2 0100 	strd	r0, r1, [r2]

	return 0;
}
    3750:	2000      	movs	r0, #0
    3752:	4770      	bx	lr
    3754:	00f42400 	.word	0x00f42400

00003758 <pwm_nrfx_init>:
	.pin_set = pwm_nrfx_pin_set,
	.get_cycles_per_sec = pwm_nrfx_get_cycles_per_sec,
};

static int pwm_nrfx_init(const struct device *dev)
{
    3758:	4602      	mov	r2, r0
	const struct pwm_nrfx_config *config = dev->config;
    375a:	6840      	ldr	r0, [r0, #4]
	struct pwm_nrfx_data *data = dev->data;

	for (size_t i = 0; i < ARRAY_SIZE(data->current); i++) {
    375c:	6912      	ldr	r2, [r2, #16]
{
    375e:	b538      	push	{r3, r4, r5, lr}
    3760:	f100 0308 	add.w	r3, r0, #8
    3764:	3204      	adds	r2, #4
    3766:	f100 040c 	add.w	r4, r0, #12
    376a:	4619      	mov	r1, r3
		bool inverted = config->initial_config.output_pins[i] & NRFX_PWM_PIN_INVERTED;
		uint16_t value = (inverted)?(PWM_NRFX_CH_VALUE_INVERTED):(PWM_NRFX_CH_VALUE_NORMAL);
    376c:	f913 5b01 	ldrsb.w	r5, [r3], #1
    3770:	2d00      	cmp	r5, #0
    3772:	bfb4      	ite	lt
    3774:	2500      	movlt	r5, #0
    3776:	f44f 4500 	movge.w	r5, #32768	; 0x8000
	for (size_t i = 0; i < ARRAY_SIZE(data->current); i++) {
    377a:	42a3      	cmp	r3, r4

		data->current[i] = value;
    377c:	f822 5b02 	strh.w	r5, [r2], #2
	for (size_t i = 0; i < ARRAY_SIZE(data->current); i++) {
    3780:	d1f4      	bne.n	376c <pwm_nrfx_init+0x14>
	};

	nrfx_err_t result = nrfx_pwm_init(&config->pwm,
    3782:	2300      	movs	r3, #0
    3784:	461a      	mov	r2, r3
    3786:	f001 f92b 	bl	49e0 <nrfx_pwm_init>
					  &config->initial_config,
					  NULL,
					  NULL);
	if (result != NRFX_SUCCESS) {
    378a:	4b03      	ldr	r3, [pc, #12]	; (3798 <pwm_nrfx_init+0x40>)
		LOG_ERR("Failed to initialize device: %s", dev->name);
		return -EBUSY;
    378c:	4298      	cmp	r0, r3
	}

	return 0;
}
    378e:	bf14      	ite	ne
    3790:	f06f 000f 	mvnne.w	r0, #15
    3794:	2000      	moveq	r0, #0
    3796:	bd38      	pop	{r3, r4, r5, pc}
    3798:	0bad0000 	.word	0x0bad0000

0000379c <pwm_nrfx_pin_set>:
{
    379c:	e92d 47f0 	stmdb	sp!, {r4, r5, r6, r7, r8, r9, sl, lr}
    37a0:	f89d 4020 	ldrb.w	r4, [sp, #32]
	const struct pwm_nrfx_config *config = dev->config;
    37a4:	6846      	ldr	r6, [r0, #4]
{
    37a6:	460f      	mov	r7, r1
    37a8:	4615      	mov	r5, r2
	struct pwm_nrfx_data *data = dev->data;
    37aa:	6901      	ldr	r1, [r0, #16]
{
    37ac:	4698      	mov	r8, r3
	if (flags) {
    37ae:	2c00      	cmp	r4, #0
    37b0:	d13f      	bne.n	3832 <pwm_nrfx_pin_set+0x96>
	for (i = 0U; i < NRF_PWM_CHANNEL_COUNT; i++) {
    37b2:	1df2      	adds	r2, r6, #7
		if (output_pins[i] != NRFX_PWM_PIN_NOT_USED
    37b4:	f812 3f01 	ldrb.w	r3, [r2, #1]!
    37b8:	2bff      	cmp	r3, #255	; 0xff
    37ba:	d003      	beq.n	37c4 <pwm_nrfx_pin_set+0x28>
		    && (pwm == (output_pins[i] & PWM_NRFX_CH_PIN_MASK))) {
    37bc:	f023 0380 	bic.w	r3, r3, #128	; 0x80
    37c0:	429f      	cmp	r7, r3
    37c2:	d039      	beq.n	3838 <pwm_nrfx_pin_set+0x9c>
	for (i = 0U; i < NRF_PWM_CHANNEL_COUNT; i++) {
    37c4:	3401      	adds	r4, #1
    37c6:	b2e4      	uxtb	r4, r4
    37c8:	2c04      	cmp	r4, #4
    37ca:	d1f3      	bne.n	37b4 <pwm_nrfx_pin_set+0x18>
		return -EINVAL;
    37cc:	f06f 0015 	mvn.w	r0, #21
    37d0:	e009      	b.n	37e6 <pwm_nrfx_pin_set+0x4a>
	was_stopped = !pwm_channel_is_active(channel, data) &&
    37d2:	2000      	movs	r0, #0
    37d4:	e040      	b.n	3858 <pwm_nrfx_pin_set+0xbc>
		countertop >>= 1;
    37d6:	3301      	adds	r3, #1
	} while (prescaler <= PWM_PRESCALER_PRESCALER_Msk);
    37d8:	2b08      	cmp	r3, #8
		countertop >>= 1;
    37da:	ea4f 0252 	mov.w	r2, r2, lsr #1
	} while (prescaler <= PWM_PRESCALER_PRESCALER_Msk);
    37de:	d158      	bne.n	3892 <pwm_nrfx_pin_set+0xf6>
    37e0:	e7f4      	b.n	37cc <pwm_nrfx_pin_set+0x30>
		if (was_stopped) {
    37e2:	b9c8      	cbnz	r0, 3818 <pwm_nrfx_pin_set+0x7c>
	return 0;
    37e4:	2000      	movs	r0, #0
}
    37e6:	e8bd 87f0 	ldmia.w	sp!, {r4, r5, r6, r7, r8, r9, sl, pc}
			&& channel_inverted_state;
    37ea:	4545      	cmp	r5, r8
    37ec:	f200 8086 	bhi.w	38fc <pwm_nrfx_pin_set+0x160>
        case 1: return NRF_P1;
    37f0:	2f01      	cmp	r7, #1
    37f2:	4b49      	ldr	r3, [pc, #292]	; (3918 <pwm_nrfx_pin_set+0x17c>)
    nrf_gpio_port_out_clear(reg, 1UL << pin_number);
    37f4:	f04f 0201 	mov.w	r2, #1
        case 1: return NRF_P1;
    37f8:	bf18      	it	ne
    37fa:	f04f 43a0 	movne.w	r3, #1342177280	; 0x50000000
    nrf_gpio_port_out_clear(reg, 1UL << pin_number);
    37fe:	4082      	lsls	r2, r0
    p_reg->OUTCLR = clr_mask;
    3800:	f8c3 250c 	str.w	r2, [r3, #1292]	; 0x50c
		if (!any_other_channel_is_active(channel, data)) {
    3804:	4620      	mov	r0, r4
    3806:	f003 fa8a 	bl	6d1e <any_other_channel_is_active>
    380a:	2800      	cmp	r0, #0
    380c:	d1ea      	bne.n	37e4 <pwm_nrfx_pin_set+0x48>
			nrfx_pwm_stop(&config->pwm, false);
    380e:	4601      	mov	r1, r0
    3810:	4630      	mov	r0, r6
    3812:	f003 fcc4 	bl	719e <nrfx_pwm_stop>
    3816:	e7e5      	b.n	37e4 <pwm_nrfx_pin_set+0x48>
			while (!nrfx_pwm_is_stopped(&config->pwm)) {
    3818:	4630      	mov	r0, r6
    381a:	f001 f9cd 	bl	4bb8 <nrfx_pwm_is_stopped>
    381e:	2800      	cmp	r0, #0
    3820:	d0fa      	beq.n	3818 <pwm_nrfx_pin_set+0x7c>
			nrfx_pwm_simple_playback(&config->pwm,
    3822:	2302      	movs	r3, #2
    3824:	2201      	movs	r2, #1
    3826:	f106 0118 	add.w	r1, r6, #24
    382a:	4630      	mov	r0, r6
    382c:	f001 f986 	bl	4b3c <nrfx_pwm_simple_playback>
    3830:	e7d8      	b.n	37e4 <pwm_nrfx_pin_set+0x48>
		return -ENOTSUP;
    3832:	f06f 0085 	mvn.w	r0, #133	; 0x85
    3836:	e7d6      	b.n	37e6 <pwm_nrfx_pin_set+0x4a>
	uint16_t pulse_cycle =
    3838:	eb01 0944 	add.w	r9, r1, r4, lsl #1
		data->current[channel] & PWM_NRFX_CH_PULSE_CYCLES_MASK;
    383c:	f8b9 a004 	ldrh.w	sl, [r9, #4]
	uint16_t pulse_cycle =
    3840:	f3ca 030e 	ubfx	r3, sl, #0, #15
	return (pulse_cycle > 0 && pulse_cycle < data->countertop);
    3844:	b113      	cbz	r3, 384c <pwm_nrfx_pin_set+0xb0>
    3846:	898a      	ldrh	r2, [r1, #12]
    3848:	429a      	cmp	r2, r3
    384a:	d8c2      	bhi.n	37d2 <pwm_nrfx_pin_set+0x36>
		      !any_other_channel_is_active(channel, data);
    384c:	4620      	mov	r0, r4
    384e:	f003 fa66 	bl	6d1e <any_other_channel_is_active>
	was_stopped = !pwm_channel_is_active(channel, data) &&
    3852:	f080 0001 	eor.w	r0, r0, #1
    3856:	b2c0      	uxtb	r0, r0
	if (config->initial_config.count_mode == NRF_PWM_MODE_UP_AND_DOWN) {
    3858:	f896 c00e 	ldrb.w	ip, [r6, #14]
    385c:	f1bc 0f01 	cmp.w	ip, #1
		period_cycles /= 2;
    3860:	bf04      	itt	eq
    3862:	086d      	lsreq	r5, r5, #1
		pulse_cycles /= 2;
    3864:	ea4f 0858 	moveq.w	r8, r8, lsr #1
	if (period_cycles != 0 && period_cycles != data->period_cycles) {
    3868:	b325      	cbz	r5, 38b4 <pwm_nrfx_pin_set+0x118>
    386a:	680b      	ldr	r3, [r1, #0]
    386c:	42ab      	cmp	r3, r5
    386e:	d021      	beq.n	38b4 <pwm_nrfx_pin_set+0x118>
    3870:	2300      	movs	r3, #0
				data->current[i]
    3872:	f101 0e04 	add.w	lr, r1, #4
		if (i != channel) {
    3876:	b2da      	uxtb	r2, r3
    3878:	42a2      	cmp	r2, r4
    387a:	d005      	beq.n	3888 <pwm_nrfx_pin_set+0xec>
			uint16_t channel_pulse_cycle =
    387c:	f83e 2013 	ldrh.w	r2, [lr, r3, lsl #1]
			if (channel_pulse_cycle > 0) {
    3880:	f3c2 020e 	ubfx	r2, r2, #0, #15
    3884:	2a00      	cmp	r2, #0
    3886:	d1a1      	bne.n	37cc <pwm_nrfx_pin_set+0x30>
	for (i = 0; i < NRF_PWM_CHANNEL_COUNT; ++i) {
    3888:	3301      	adds	r3, #1
    388a:	2b04      	cmp	r3, #4
    388c:	d1f3      	bne.n	3876 <pwm_nrfx_pin_set+0xda>
    388e:	462a      	mov	r2, r5
    3890:	2300      	movs	r3, #0
		if (countertop <= PWM_COUNTERTOP_COUNTERTOP_Msk) {
    3892:	f5b2 4f00 	cmp.w	r2, #32768	; 0x8000
    3896:	fa5f fe83 	uxtb.w	lr, r3
    389a:	d29c      	bcs.n	37d6 <pwm_nrfx_pin_set+0x3a>
			data->prescaler     = prescaler;
    389c:	f881 e00e 	strb.w	lr, [r1, #14]
			nrf_pwm_configure(config->pwm.p_registers,
    38a0:	f8d6 e000 	ldr.w	lr, [r6]
			data->period_cycles = period_cycles;
    38a4:	600d      	str	r5, [r1, #0]
			data->countertop    = (uint16_t)countertop;
    38a6:	818a      	strh	r2, [r1, #12]
                                         nrf_pwm_mode_t mode,
                                         uint16_t       top_value)
{
    NRFX_ASSERT(top_value <= PWM_COUNTERTOP_COUNTERTOP_Msk);

    p_reg->PRESCALER  = base_clock;
    38a8:	f8ce 350c 	str.w	r3, [lr, #1292]	; 0x50c
    p_reg->MODE       = mode;
    38ac:	f8ce c504 	str.w	ip, [lr, #1284]	; 0x504
    p_reg->COUNTERTOP = top_value;
    38b0:	f8ce 2508 	str.w	r2, [lr, #1288]	; 0x508
		| (pulse_cycles >> data->prescaler));
    38b4:	7b8a      	ldrb	r2, [r1, #14]
	pulse_cycles = MIN(pulse_cycles, period_cycles);
    38b6:	4545      	cmp	r5, r8
    38b8:	462b      	mov	r3, r5
    38ba:	bf28      	it	cs
    38bc:	4643      	movcs	r3, r8
		| (pulse_cycles >> data->prescaler));
    38be:	fa23 f202 	lsr.w	r2, r3, r2
		(data->current[channel] & PWM_NRFX_CH_POLARITY_MASK)
    38c2:	f40a 4a00 	and.w	sl, sl, #32768	; 0x8000
		| (pulse_cycles >> data->prescaler));
    38c6:	ea42 020a 	orr.w	r2, r2, sl
    38ca:	b292      	uxth	r2, r2
	data->current[channel] = (
    38cc:	f8a9 2004 	strh.w	r2, [r9, #4]
	uint16_t pulse_cycle =
    38d0:	f3c2 020e 	ubfx	r2, r2, #0, #15
	return (pulse_cycle > 0 && pulse_cycle < data->countertop);
    38d4:	b11a      	cbz	r2, 38de <pwm_nrfx_pin_set+0x142>
    38d6:	f8b1 c00c 	ldrh.w	ip, [r1, #12]
    38da:	4594      	cmp	ip, r2
    38dc:	d881      	bhi.n	37e2 <pwm_nrfx_pin_set+0x46>
			config->initial_config.output_pins[channel]
    38de:	1932      	adds	r2, r6, r4
    38e0:	f007 001f 	and.w	r0, r7, #31
    38e4:	f992 2008 	ldrsb.w	r2, [r2, #8]
		bool pulse_0_and_not_inverted =
    38e8:	097f      	lsrs	r7, r7, #5
			&& !channel_inverted_state;
    38ea:	2b00      	cmp	r3, #0
    38ec:	f43f af7d 	beq.w	37ea <pwm_nrfx_pin_set+0x4e>
			&& channel_inverted_state;
    38f0:	4545      	cmp	r5, r8
    38f2:	d806      	bhi.n	3902 <pwm_nrfx_pin_set+0x166>
    38f4:	2a00      	cmp	r2, #0
    38f6:	f6ff af7b 	blt.w	37f0 <pwm_nrfx_pin_set+0x54>
    38fa:	e002      	b.n	3902 <pwm_nrfx_pin_set+0x166>
		if (pulse_0_and_not_inverted || pulse_100_and_inverted) {
    38fc:	2a00      	cmp	r2, #0
    38fe:	f6bf af77 	bge.w	37f0 <pwm_nrfx_pin_set+0x54>
        case 0: return NRF_P0;
    3902:	2f01      	cmp	r7, #1
    3904:	4b04      	ldr	r3, [pc, #16]	; (3918 <pwm_nrfx_pin_set+0x17c>)
    nrf_gpio_port_out_set(reg, 1UL << pin_number);
    3906:	f04f 0201 	mov.w	r2, #1
        case 0: return NRF_P0;
    390a:	bf18      	it	ne
    390c:	f04f 43a0 	movne.w	r3, #1342177280	; 0x50000000
    nrf_gpio_port_out_set(reg, 1UL << pin_number);
    3910:	4082      	lsls	r2, r0
    p_reg->OUTSET = set_mask;
    3912:	f8c3 2508 	str.w	r2, [r3, #1288]	; 0x508
    3916:	e775      	b.n	3804 <pwm_nrfx_pin_set+0x68>
    3918:	50000300 	.word	0x50000300

0000391c <uarte_nrfx_configure>:
	return 0;
}

static int uarte_nrfx_configure(const struct device *dev,
				const struct uart_config *cfg)
{
    391c:	b5f0      	push	{r4, r5, r6, r7, lr}
	nrf_uarte_config_t uarte_cfg;

#if defined(UARTE_CONFIG_STOP_Msk)
	switch (cfg->stop_bits) {
    391e:	794b      	ldrb	r3, [r1, #5]
    3920:	2b01      	cmp	r3, #1
    3922:	d026      	beq.n	3972 <uarte_nrfx_configure+0x56>
    3924:	2b03      	cmp	r3, #3
    3926:	d121      	bne.n	396c <uarte_nrfx_configure+0x50>
	case UART_CFG_STOP_BITS_1:
		uarte_cfg.stop = NRF_UARTE_STOP_ONE;
		break;
	case UART_CFG_STOP_BITS_2:
		uarte_cfg.stop = NRF_UARTE_STOP_TWO;
    3928:	2610      	movs	r6, #16
	if (cfg->stop_bits != UART_CFG_STOP_BITS_1) {
		return -ENOTSUP;
	}
#endif

	if (cfg->data_bits != UART_CFG_DATA_BITS_8) {
    392a:	798b      	ldrb	r3, [r1, #6]
    392c:	2b03      	cmp	r3, #3
    392e:	d11d      	bne.n	396c <uarte_nrfx_configure+0x50>
		return -ENOTSUP;
	}

	switch (cfg->flow_ctrl) {
    3930:	79cc      	ldrb	r4, [r1, #7]
    3932:	b10c      	cbz	r4, 3938 <uarte_nrfx_configure+0x1c>
    3934:	2c01      	cmp	r4, #1
    3936:	d119      	bne.n	396c <uarte_nrfx_configure+0x50>
	}

#if defined(UARTE_CONFIG_PARITYTYPE_Msk)
	uarte_cfg.paritytype = NRF_UARTE_PARITYTYPE_EVEN;
#endif
	switch (cfg->parity) {
    3938:	790a      	ldrb	r2, [r1, #4]
    393a:	b112      	cbz	r2, 3942 <uarte_nrfx_configure+0x26>
    393c:	2a02      	cmp	r2, #2
    393e:	d115      	bne.n	396c <uarte_nrfx_configure+0x50>
	case UART_CFG_PARITY_NONE:
		uarte_cfg.parity = NRF_UARTE_PARITY_EXCLUDED;
		break;
	case UART_CFG_PARITY_EVEN:
		uarte_cfg.parity = NRF_UARTE_PARITY_INCLUDED;
    3940:	220e      	movs	r2, #14
#endif
	default:
		return -ENOTSUP;
	}

	if (baudrate_set(dev, cfg->baudrate) != 0) {
    3942:	680b      	ldr	r3, [r1, #0]
	return config->uarte_regs;
    3944:	6845      	ldr	r5, [r0, #4]
	switch (baudrate) {
    3946:	f5b3 4f16 	cmp.w	r3, #38400	; 0x9600
	return config->uarte_regs;
    394a:	682d      	ldr	r5, [r5, #0]
	switch (baudrate) {
    394c:	d065      	beq.n	3a1a <uarte_nrfx_configure+0xfe>
    394e:	d82d      	bhi.n	39ac <uarte_nrfx_configure+0x90>
    3950:	f5b3 5f16 	cmp.w	r3, #9600	; 0x2580
    3954:	d064      	beq.n	3a20 <uarte_nrfx_configure+0x104>
    3956:	d816      	bhi.n	3986 <uarte_nrfx_configure+0x6a>
    3958:	f5b3 6f96 	cmp.w	r3, #1200	; 0x4b0
    395c:	d062      	beq.n	3a24 <uarte_nrfx_configure+0x108>
    395e:	d80a      	bhi.n	3976 <uarte_nrfx_configure+0x5a>
    3960:	f5b3 7f96 	cmp.w	r3, #300	; 0x12c
    3964:	d061      	beq.n	3a2a <uarte_nrfx_configure+0x10e>
    3966:	f5b3 7f16 	cmp.w	r3, #600	; 0x258
    396a:	d061      	beq.n	3a30 <uarte_nrfx_configure+0x114>
    396c:	f06f 0085 	mvn.w	r0, #133	; 0x85
    3970:	e052      	b.n	3a18 <uarte_nrfx_configure+0xfc>
	switch (cfg->stop_bits) {
    3972:	2600      	movs	r6, #0
    3974:	e7d9      	b.n	392a <uarte_nrfx_configure+0xe>
	switch (baudrate) {
    3976:	f5b3 6f16 	cmp.w	r3, #2400	; 0x960
    397a:	d05c      	beq.n	3a36 <uarte_nrfx_configure+0x11a>
    397c:	f5b3 5f96 	cmp.w	r3, #4800	; 0x12c0
    3980:	d1f4      	bne.n	396c <uarte_nrfx_configure+0x50>
		nrf_baudrate = NRF_UARTE_BAUDRATE_4800;
    3982:	4b37      	ldr	r3, [pc, #220]	; (3a60 <uarte_nrfx_configure+0x144>)
    3984:	e03c      	b.n	3a00 <uarte_nrfx_configure+0xe4>
	switch (baudrate) {
    3986:	f5b3 4fe1 	cmp.w	r3, #28800	; 0x7080
    398a:	d057      	beq.n	3a3c <uarte_nrfx_configure+0x120>
    398c:	d807      	bhi.n	399e <uarte_nrfx_configure+0x82>
    398e:	f5b3 5f61 	cmp.w	r3, #14400	; 0x3840
    3992:	d055      	beq.n	3a40 <uarte_nrfx_configure+0x124>
    3994:	f5b3 4f96 	cmp.w	r3, #19200	; 0x4b00
    3998:	d1e8      	bne.n	396c <uarte_nrfx_configure+0x50>
		nrf_baudrate = NRF_UARTE_BAUDRATE_19200;
    399a:	4b32      	ldr	r3, [pc, #200]	; (3a64 <uarte_nrfx_configure+0x148>)
    399c:	e030      	b.n	3a00 <uarte_nrfx_configure+0xe4>
	switch (baudrate) {
    399e:	f647 2712 	movw	r7, #31250	; 0x7a12
    39a2:	42bb      	cmp	r3, r7
    39a4:	d1e2      	bne.n	396c <uarte_nrfx_configure+0x50>
		nrf_baudrate = NRF_UARTE_BAUDRATE_31250;
    39a6:	f44f 0300 	mov.w	r3, #8388608	; 0x800000
    39aa:	e029      	b.n	3a00 <uarte_nrfx_configure+0xe4>
	switch (baudrate) {
    39ac:	f5b3 3f61 	cmp.w	r3, #230400	; 0x38400
    39b0:	d048      	beq.n	3a44 <uarte_nrfx_configure+0x128>
    39b2:	d813      	bhi.n	39dc <uarte_nrfx_configure+0xc0>
    39b4:	f5b3 3f96 	cmp.w	r3, #76800	; 0x12c00
    39b8:	d047      	beq.n	3a4a <uarte_nrfx_configure+0x12e>
    39ba:	d809      	bhi.n	39d0 <uarte_nrfx_configure+0xb4>
    39bc:	f64d 27c0 	movw	r7, #56000	; 0xdac0
    39c0:	42bb      	cmp	r3, r7
    39c2:	d044      	beq.n	3a4e <uarte_nrfx_configure+0x132>
    39c4:	f5b3 4f61 	cmp.w	r3, #57600	; 0xe100
    39c8:	d1d0      	bne.n	396c <uarte_nrfx_configure+0x50>
		nrf_baudrate = NRF_UARTE_BAUDRATE_57600;
    39ca:	f44f 036b 	mov.w	r3, #15400960	; 0xeb0000
    39ce:	e017      	b.n	3a00 <uarte_nrfx_configure+0xe4>
	switch (baudrate) {
    39d0:	f5b3 3fe1 	cmp.w	r3, #115200	; 0x1c200
    39d4:	d1ca      	bne.n	396c <uarte_nrfx_configure+0x50>
		nrf_baudrate = NRF_UARTE_BAUDRATE_115200;
    39d6:	f04f 73eb 	mov.w	r3, #30801920	; 0x1d60000
    39da:	e011      	b.n	3a00 <uarte_nrfx_configure+0xe4>
	switch (baudrate) {
    39dc:	f5b3 2f61 	cmp.w	r3, #921600	; 0xe1000
    39e0:	d038      	beq.n	3a54 <uarte_nrfx_configure+0x138>
    39e2:	d808      	bhi.n	39f6 <uarte_nrfx_configure+0xda>
    39e4:	4f20      	ldr	r7, [pc, #128]	; (3a68 <uarte_nrfx_configure+0x14c>)
    39e6:	42bb      	cmp	r3, r7
    39e8:	d037      	beq.n	3a5a <uarte_nrfx_configure+0x13e>
    39ea:	f5b3 2fe1 	cmp.w	r3, #460800	; 0x70800
    39ee:	d1bd      	bne.n	396c <uarte_nrfx_configure+0x50>
		nrf_baudrate = NRF_UARTE_BAUDRATE_460800;
    39f0:	f04f 63e8 	mov.w	r3, #121634816	; 0x7400000
    39f4:	e004      	b.n	3a00 <uarte_nrfx_configure+0xe4>
	switch (baudrate) {
    39f6:	4f1d      	ldr	r7, [pc, #116]	; (3a6c <uarte_nrfx_configure+0x150>)
    39f8:	42bb      	cmp	r3, r7
    39fa:	d1b7      	bne.n	396c <uarte_nrfx_configure+0x50>
		nrf_baudrate = NRF_UARTE_BAUDRATE_1000000;
    39fc:	f04f 5380 	mov.w	r3, #268435456	; 0x10000000
                    | (uint32_t)p_cfg->hwfc;
}

NRF_STATIC_INLINE void nrf_uarte_baudrate_set(NRF_UARTE_Type * p_reg, nrf_uarte_baudrate_t baudrate)
{
    p_reg->BAUDRATE = baudrate;
    3a00:	f8c5 3524 	str.w	r3, [r5, #1316]	; 0x524
		return -ENOTSUP;
	}

	nrf_uarte_configure(get_uarte_instance(dev), &uarte_cfg);

	get_dev_data(dev)->uart_config = *cfg;
    3a04:	6903      	ldr	r3, [r0, #16]
    3a06:	c903      	ldmia	r1, {r0, r1}
                    | (uint32_t)p_cfg->hwfc;
    3a08:	4334      	orrs	r4, r6
    3a0a:	4322      	orrs	r2, r4
    3a0c:	3304      	adds	r3, #4
    p_reg->CONFIG = (uint32_t)p_cfg->parity
    3a0e:	f8c5 256c 	str.w	r2, [r5, #1388]	; 0x56c
    3a12:	e883 0003 	stmia.w	r3, {r0, r1}

	return 0;
    3a16:	2000      	movs	r0, #0
}
    3a18:	bdf0      	pop	{r4, r5, r6, r7, pc}
		nrf_baudrate = NRF_UARTE_BAUDRATE_38400;
    3a1a:	f44f 031d 	mov.w	r3, #10289152	; 0x9d0000
    3a1e:	e7ef      	b.n	3a00 <uarte_nrfx_configure+0xe4>
		nrf_baudrate = NRF_UARTE_BAUDRATE_9600;
    3a20:	4b13      	ldr	r3, [pc, #76]	; (3a70 <uarte_nrfx_configure+0x154>)
    3a22:	e7ed      	b.n	3a00 <uarte_nrfx_configure+0xe4>
		nrf_baudrate = NRF_UARTE_BAUDRATE_1200;
    3a24:	f44f 239e 	mov.w	r3, #323584	; 0x4f000
    3a28:	e7ea      	b.n	3a00 <uarte_nrfx_configure+0xe4>
		nrf_baudrate = 0x00014000;
    3a2a:	f44f 33a0 	mov.w	r3, #81920	; 0x14000
    3a2e:	e7e7      	b.n	3a00 <uarte_nrfx_configure+0xe4>
	switch (baudrate) {
    3a30:	f44f 331c 	mov.w	r3, #159744	; 0x27000
    3a34:	e7e4      	b.n	3a00 <uarte_nrfx_configure+0xe4>
		nrf_baudrate = NRF_UARTE_BAUDRATE_2400;
    3a36:	f44f 231d 	mov.w	r3, #643072	; 0x9d000
    3a3a:	e7e1      	b.n	3a00 <uarte_nrfx_configure+0xe4>
		nrf_baudrate = NRF_UARTE_BAUDRATE_28800;
    3a3c:	4b0d      	ldr	r3, [pc, #52]	; (3a74 <uarte_nrfx_configure+0x158>)
    3a3e:	e7df      	b.n	3a00 <uarte_nrfx_configure+0xe4>
		nrf_baudrate = NRF_UARTE_BAUDRATE_14400;
    3a40:	4b0d      	ldr	r3, [pc, #52]	; (3a78 <uarte_nrfx_configure+0x15c>)
    3a42:	e7dd      	b.n	3a00 <uarte_nrfx_configure+0xe4>
		nrf_baudrate = NRF_UARTE_BAUDRATE_230400;
    3a44:	f04f 736c 	mov.w	r3, #61865984	; 0x3b00000
    3a48:	e7da      	b.n	3a00 <uarte_nrfx_configure+0xe4>
		nrf_baudrate = NRF_UARTE_BAUDRATE_76800;
    3a4a:	4b0c      	ldr	r3, [pc, #48]	; (3a7c <uarte_nrfx_configure+0x160>)
    3a4c:	e7d8      	b.n	3a00 <uarte_nrfx_configure+0xe4>
		nrf_baudrate = NRF_UARTE_BAUDRATE_56000;
    3a4e:	f44f 0365 	mov.w	r3, #15007744	; 0xe50000
    3a52:	e7d5      	b.n	3a00 <uarte_nrfx_configure+0xe4>
		nrf_baudrate = NRF_UARTE_BAUDRATE_921600;
    3a54:	f04f 6370 	mov.w	r3, #251658240	; 0xf000000
    3a58:	e7d2      	b.n	3a00 <uarte_nrfx_configure+0xe4>
		nrf_baudrate = NRF_UARTE_BAUDRATE_250000;
    3a5a:	f04f 6380 	mov.w	r3, #67108864	; 0x4000000
    3a5e:	e7cf      	b.n	3a00 <uarte_nrfx_configure+0xe4>
    3a60:	0013b000 	.word	0x0013b000
    3a64:	004ea000 	.word	0x004ea000
    3a68:	0003d090 	.word	0x0003d090
    3a6c:	000f4240 	.word	0x000f4240
    3a70:	00275000 	.word	0x00275000
    3a74:	0075c000 	.word	0x0075c000
    3a78:	003af000 	.word	0x003af000
    3a7c:	013a9000 	.word	0x013a9000

00003a80 <nrf_gpio_cfg_input>:
    *p_pin = pin_number & 0x1F;
    3a80:	f000 021f 	and.w	r2, r0, #31
    return pin_number >> 5;
    3a84:	0940      	lsrs	r0, r0, #5
    switch (nrf_gpio_pin_port_number_extract(p_pin))
    3a86:	2801      	cmp	r0, #1
        case 1: return NRF_P1;
    3a88:	4b04      	ldr	r3, [pc, #16]	; (3a9c <CONFIG_UART_CONSOLE_INPUT_EXPIRED_TIMEOUT+0x4>)
    reg->PIN_CNF[pin_number] = cnf;
    3a8a:	f502 72e0 	add.w	r2, r2, #448	; 0x1c0
        case 1: return NRF_P1;
    3a8e:	bf18      	it	ne
    3a90:	f04f 43a0 	movne.w	r3, #1342177280	; 0x50000000
           ((uint32_t)pull << GPIO_PIN_CNF_PULL_Pos)   |
    3a94:	0089      	lsls	r1, r1, #2
    reg->PIN_CNF[pin_number] = cnf;
    3a96:	f843 1022 	str.w	r1, [r3, r2, lsl #2]
}
    3a9a:	4770      	bx	lr
    3a9c:	50000300 	.word	0x50000300

00003aa0 <uarte_nrfx_poll_out>:
 *
 * @param dev UARTE device struct
 * @param c Character to send
 */
static void uarte_nrfx_poll_out(const struct device *dev, unsigned char c)
{
    3aa0:	b5f8      	push	{r3, r4, r5, r6, r7, lr}
	struct uarte_nrfx_data *data = get_dev_data(dev);
    3aa2:	6906      	ldr	r6, [r0, #16]
{
    3aa4:	4605      	mov	r5, r0
    3aa6:	460f      	mov	r7, r1
	bool isr_mode = k_is_in_isr() || k_is_pre_kernel();
    3aa8:	f003 fce1 	bl	746e <k_is_in_isr>
    3aac:	b910      	cbnz	r0, 3ab4 <uarte_nrfx_poll_out+0x14>
	return !z_sys_post_kernel;
    3aae:	4b20      	ldr	r3, [pc, #128]	; (3b30 <uarte_nrfx_poll_out+0x90>)
	int key;

	if (isr_mode) {
    3ab0:	781b      	ldrb	r3, [r3, #0]
    3ab2:	b983      	cbnz	r3, 3ad6 <uarte_nrfx_poll_out+0x36>
	__asm__ volatile(
    3ab4:	f04f 0320 	mov.w	r3, #32
    3ab8:	f3ef 8411 	mrs	r4, BASEPRI
    3abc:	f383 8812 	msr	BASEPRI_MAX, r3
    3ac0:	f3bf 8f6f 	isb	sy
		while (1) {
			key = irq_lock();
			if (is_tx_ready(dev)) {
    3ac4:	4628      	mov	r0, r5
    3ac6:	f003 f9ac 	bl	6e22 <is_tx_ready>
    3aca:	bb28      	cbnz	r0, 3b18 <uarte_nrfx_poll_out+0x78>
	__asm__ volatile(
    3acc:	f384 8811 	msr	BASEPRI, r4
    3ad0:	f3bf 8f6f 	isb	sy
}
    3ad4:	e7ee      	b.n	3ab4 <uarte_nrfx_poll_out+0x14>
{
    3ad6:	2464      	movs	r4, #100	; 0x64
		NRFX_WAIT_FOR(is_tx_ready(dev), 100, 1, res);
    3ad8:	4628      	mov	r0, r5
    3ada:	f003 f9a2 	bl	6e22 <is_tx_ready>
    3ade:	b970      	cbnz	r0, 3afe <uarte_nrfx_poll_out+0x5e>
    3ae0:	2001      	movs	r0, #1
    3ae2:	f003 fae1 	bl	70a8 <nrfx_busy_wait>
    3ae6:	3c01      	subs	r4, #1
    3ae8:	d1f6      	bne.n	3ad8 <uarte_nrfx_poll_out+0x38>
    3aea:	2100      	movs	r1, #0
    3aec:	2021      	movs	r0, #33	; 0x21
    3aee:	f001 feaf 	bl	5850 <z_impl_k_sleep>
	return k_sleep(Z_TIMEOUT_MS(ms));
    3af2:	e7f0      	b.n	3ad6 <uarte_nrfx_poll_out+0x36>
	__asm__ volatile(
    3af4:	f384 8811 	msr	BASEPRI, r4
    3af8:	f3bf 8f6f 	isb	sy
}
    3afc:	e7f5      	b.n	3aea <uarte_nrfx_poll_out+0x4a>
	__asm__ volatile(
    3afe:	f04f 0320 	mov.w	r3, #32
    3b02:	f3ef 8411 	mrs	r4, BASEPRI
    3b06:	f383 8812 	msr	BASEPRI_MAX, r3
    3b0a:	f3bf 8f6f 	isb	sy
			if (is_tx_ready(dev)) {
    3b0e:	4628      	mov	r0, r5
    3b10:	f003 f987 	bl	6e22 <is_tx_ready>
    3b14:	2800      	cmp	r0, #0
    3b16:	d0ed      	beq.n	3af4 <uarte_nrfx_poll_out+0x54>
		}
	} else {
		key = wait_tx_ready(dev);
	}

	data->char_out = c;
    3b18:	4631      	mov	r1, r6
	tx_start(dev, &data->char_out, 1);
    3b1a:	2201      	movs	r2, #1
	data->char_out = c;
    3b1c:	f801 7f14 	strb.w	r7, [r1, #20]!
	tx_start(dev, &data->char_out, 1);
    3b20:	4628      	mov	r0, r5
    3b22:	f003 fa11 	bl	6f48 <tx_start>
	__asm__ volatile(
    3b26:	f384 8811 	msr	BASEPRI, r4
    3b2a:	f3bf 8f6f 	isb	sy

	irq_unlock(key);
}
    3b2e:	bdf8      	pop	{r3, r4, r5, r6, r7, pc}
    3b30:	20000f47 	.word	0x20000f47

00003b34 <nrf_gpio_cfg_output>:
    *p_pin = pin_number & 0x1F;
    3b34:	f000 021f 	and.w	r2, r0, #31
    return pin_number >> 5;
    3b38:	0940      	lsrs	r0, r0, #5
    switch (nrf_gpio_pin_port_number_extract(p_pin))
    3b3a:	2801      	cmp	r0, #1
        case 1: return NRF_P1;
    3b3c:	4b04      	ldr	r3, [pc, #16]	; (3b50 <nrf_gpio_cfg_output+0x1c>)
    reg->PIN_CNF[pin_number] = cnf;
    3b3e:	f502 72e0 	add.w	r2, r2, #448	; 0x1c0
        case 1: return NRF_P1;
    3b42:	bf18      	it	ne
    3b44:	f04f 43a0 	movne.w	r3, #1342177280	; 0x50000000
    reg->PIN_CNF[pin_number] = cnf;
    3b48:	2103      	movs	r1, #3
    3b4a:	f843 1022 	str.w	r1, [r3, r2, lsl #2]
}
    3b4e:	4770      	bx	lr
    3b50:	50000300 	.word	0x50000300

00003b54 <nrf_gpio_pin_set>:
    *p_pin = pin_number & 0x1F;
    3b54:	f000 011f 	and.w	r1, r0, #31
    return pin_number >> 5;
    3b58:	0940      	lsrs	r0, r0, #5
    switch (nrf_gpio_pin_port_number_extract(p_pin))
    3b5a:	2801      	cmp	r0, #1
        case 1: return NRF_P1;
    3b5c:	4b04      	ldr	r3, [pc, #16]	; (3b70 <nrf_gpio_pin_set+0x1c>)
    nrf_gpio_port_out_set(reg, 1UL << pin_number);
    3b5e:	f04f 0201 	mov.w	r2, #1
        case 1: return NRF_P1;
    3b62:	bf18      	it	ne
    3b64:	f04f 43a0 	movne.w	r3, #1342177280	; 0x50000000
    nrf_gpio_port_out_set(reg, 1UL << pin_number);
    3b68:	408a      	lsls	r2, r1
    p_reg->OUTSET = set_mask;
    3b6a:	f8c3 2508 	str.w	r2, [r3, #1288]	; 0x508
}
    3b6e:	4770      	bx	lr
    3b70:	50000300 	.word	0x50000300

00003b74 <uarte_instance_init.isra.0>:
	nrfx_gppi_channels_enable(BIT(data->ppi_ch_endtx));

	return 0;
}

static int uarte_instance_init(const struct device *dev,
    3b74:	e92d 41f0 	stmdb	sp!, {r4, r5, r6, r7, r8, lr}
	const struct uarte_nrfx_config *config = get_dev_config(dev);
    3b78:	f8d0 8004 	ldr.w	r8, [r0, #4]
			       uint8_t interrupts_active)
{
	int err;
	NRF_UARTE_Type *uarte = get_uarte_instance(dev);
	struct uarte_nrfx_data *data = get_dev_data(dev);
    3b7c:	6907      	ldr	r7, [r0, #16]
	return config->uarte_regs;
    3b7e:	f8d8 4000 	ldr.w	r4, [r8]
    p_reg->ENABLE = UARTE_ENABLE_ENABLE_Disabled;
    3b82:	2300      	movs	r3, #0
    3b84:	f8c4 3500 	str.w	r3, [r4, #1280]	; 0x500
	const struct uarte_nrfx_config *cfg = get_dev_config(dev);

	nrf_uarte_disable(uarte);

	data->dev = dev;
    3b88:	6038      	str	r0, [r7, #0]
	const struct uarte_nrfx_config *cfg = get_dev_config(dev);
    3b8a:	6845      	ldr	r5, [r0, #4]
static int uarte_instance_init(const struct device *dev,
    3b8c:	4606      	mov	r6, r0
		if (cfg->tx_pin != NRF_UARTE_PSEL_DISCONNECTED) {
    3b8e:	68e8      	ldr	r0, [r5, #12]
    3b90:	1c42      	adds	r2, r0, #1
    3b92:	d004      	beq.n	3b9e <uarte_instance_init.isra.0+0x2a>
        nrf_gpio_pin_set(pin_number);
    3b94:	f7ff ffde 	bl	3b54 <nrf_gpio_pin_set>
			nrf_gpio_cfg_output(cfg->tx_pin);
    3b98:	68e8      	ldr	r0, [r5, #12]
    3b9a:	f7ff ffcb 	bl	3b34 <nrf_gpio_cfg_output>
		if (cfg->rx_pin != NRF_UARTE_PSEL_DISCONNECTED) {
    3b9e:	6928      	ldr	r0, [r5, #16]
    3ba0:	1c43      	adds	r3, r0, #1
    3ba2:	d006      	beq.n	3bb2 <uarte_instance_init.isra.0+0x3e>
			nrf_gpio_cfg_input(cfg->rx_pin,
    3ba4:	7f2b      	ldrb	r3, [r5, #28]
    3ba6:	2b00      	cmp	r3, #0
    3ba8:	bf14      	ite	ne
    3baa:	2103      	movne	r1, #3
    3bac:	2100      	moveq	r1, #0
    3bae:	f7ff ff67 	bl	3a80 <nrf_gpio_cfg_input>
		if (cfg->rts_pin != NRF_UARTE_PSEL_DISCONNECTED) {
    3bb2:	6968      	ldr	r0, [r5, #20]
    3bb4:	1c42      	adds	r2, r0, #1
    3bb6:	d004      	beq.n	3bc2 <uarte_instance_init.isra.0+0x4e>
    3bb8:	f7ff ffcc 	bl	3b54 <nrf_gpio_pin_set>
			nrf_gpio_cfg_output(cfg->rts_pin);
    3bbc:	6968      	ldr	r0, [r5, #20]
    3bbe:	f7ff ffb9 	bl	3b34 <nrf_gpio_cfg_output>
		if (cfg->cts_pin != NRF_UARTE_PSEL_DISCONNECTED) {
    3bc2:	69a8      	ldr	r0, [r5, #24]
    3bc4:	1c43      	adds	r3, r0, #1
    3bc6:	d006      	beq.n	3bd6 <uarte_instance_init.isra.0+0x62>
			nrf_gpio_cfg_input(cfg->cts_pin,
    3bc8:	7f6b      	ldrb	r3, [r5, #29]
    3bca:	2b00      	cmp	r3, #0
    3bcc:	bf14      	ite	ne
    3bce:	2103      	movne	r1, #3
    3bd0:	2100      	moveq	r1, #0
    3bd2:	f7ff ff55 	bl	3a80 <nrf_gpio_cfg_input>
	nrf_uarte_txrx_pins_set(cfg->uarte_regs, cfg->tx_pin, cfg->rx_pin);
    3bd6:	e9d5 1203 	ldrd	r1, r2, [r5, #12]
    3bda:	682b      	ldr	r3, [r5, #0]
    p_reg->PSEL.TXD = pseltxd;
    3bdc:	f8c3 150c 	str.w	r1, [r3, #1292]	; 0x50c
    p_reg->PSEL.RXD = pselrxd;
    3be0:	f8c3 2514 	str.w	r2, [r3, #1300]	; 0x514
	nrf_uarte_hwfc_pins_set(cfg->uarte_regs, cfg->rts_pin, cfg->cts_pin);
    3be4:	e9d5 1205 	ldrd	r1, r2, [r5, #20]
    p_reg->PSEL.RTS = pselrts;
    3be8:	f8c3 1508 	str.w	r1, [r3, #1288]	; 0x508
	}
#else
	uarte_nrfx_pins_configure(dev, false);
#endif /* CONFIG_PINCTRL */

	err = uarte_nrfx_configure(dev, &get_dev_data(dev)->uart_config);
    3bec:	6931      	ldr	r1, [r6, #16]
    p_reg->PSEL.CTS = pselcts;
    3bee:	f8c3 2510 	str.w	r2, [r3, #1296]	; 0x510
    3bf2:	3104      	adds	r1, #4
    3bf4:	4630      	mov	r0, r6
    3bf6:	f7ff fe91 	bl	391c <uarte_nrfx_configure>
	if (err) {
    3bfa:	4605      	mov	r5, r0
    3bfc:	2800      	cmp	r0, #0
    3bfe:	d146      	bne.n	3c8e <uarte_instance_init.isra.0+0x11a>
		return err;
	}

	if (IS_ENABLED(CONFIG_UART_ENHANCED_POLL_OUT) &&
	    cfg->flags & UARTE_CFG_FLAG_PPI_ENDTX) {
    3c00:	f8d8 3004 	ldr.w	r3, [r8, #4]
	if (IS_ENABLED(CONFIG_UART_ENHANCED_POLL_OUT) &&
    3c04:	0799      	lsls	r1, r3, #30
    3c06:	d519      	bpl.n	3c3c <uarte_instance_init.isra.0+0xc8>
	ret = gppi_channel_alloc(&data->ppi_ch_endtx);
    3c08:	f107 0016 	add.w	r0, r7, #22
    3c0c:	f000 fee2 	bl	49d4 <nrfx_ppi_channel_alloc>
	if (ret != NRFX_SUCCESS) {
    3c10:	4b22      	ldr	r3, [pc, #136]	; (3c9c <uarte_instance_init.isra.0+0x128>)
    3c12:	4298      	cmp	r0, r3
    3c14:	d13e      	bne.n	3c94 <uarte_instance_init.isra.0+0x120>
	nrfx_gppi_channel_endpoints_setup(data->ppi_ch_endtx,
    3c16:	7db8      	ldrb	r0, [r7, #22]
    return (uint32_t)((uint8_t *)p_reg + (uint32_t)event);
    3c18:	00c3      	lsls	r3, r0, #3
    3c1a:	f103 4380 	add.w	r3, r3, #1073741824	; 0x40000000
    3c1e:	f503 33f8 	add.w	r3, r3, #126976	; 0x1f000
    return (uint32_t)p_reg + (uint32_t)task;
    3c22:	f104 020c 	add.w	r2, r4, #12
    return (uint32_t)((uint8_t *)p_reg + (uint32_t)event);
    3c26:	f504 7190 	add.w	r1, r4, #288	; 0x120
NRF_STATIC_INLINE void nrf_ppi_channel_endpoint_setup(NRF_PPI_Type *    p_reg,
                                                      nrf_ppi_channel_t channel,
                                                      uint32_t          eep,
                                                      uint32_t          tep)
{
    p_reg->CH[(uint32_t) channel].EEP = eep;
    3c2a:	f8c3 1510 	str.w	r1, [r3, #1296]	; 0x510
    p_reg->CH[(uint32_t) channel].TEP = tep;
    3c2e:	f8c3 2514 	str.w	r2, [r3, #1300]	; 0x514
    p_reg->CHENSET = mask;
    3c32:	4a1b      	ldr	r2, [pc, #108]	; (3ca0 <uarte_instance_init.isra.0+0x12c>)
	nrfx_gppi_channels_enable(BIT(data->ppi_ch_endtx));
    3c34:	2301      	movs	r3, #1
    3c36:	4083      	lsls	r3, r0
    3c38:	f8c2 3504 	str.w	r3, [r2, #1284]	; 0x504
    p_reg->ENABLE = UARTE_ENABLE_ENABLE_Enabled;
    3c3c:	2308      	movs	r3, #8
    3c3e:	f8c4 3500 	str.w	r3, [r4, #1280]	; 0x500
#endif
	{
		/* Enable receiver and transmitter */
		nrf_uarte_enable(uarte);

		if (!cfg->disable_rx) {
    3c42:	f898 3008 	ldrb.w	r3, [r8, #8]
    3c46:	b95b      	cbnz	r3, 3c60 <uarte_instance_init.isra.0+0xec>
    *((volatile uint32_t *)((uint8_t *)p_reg + (uint32_t)event)) = 0x0UL;
    3c48:	f8c4 3110 	str.w	r3, [r4, #272]	; 0x110
    3c4c:	f8d4 3110 	ldr.w	r3, [r4, #272]	; 0x110
			nrf_uarte_event_clear(uarte, NRF_UARTE_EVENT_ENDRX);

			nrf_uarte_rx_buffer_set(uarte, &data->rx_data, 1);
    3c50:	f107 0315 	add.w	r3, r7, #21

NRF_STATIC_INLINE void nrf_uarte_rx_buffer_set(NRF_UARTE_Type * p_reg,
                                               uint8_t *        p_buffer,
                                               size_t           length)
{
    p_reg->RXD.PTR    = (uint32_t)p_buffer;
    3c54:	f8c4 3534 	str.w	r3, [r4, #1332]	; 0x534
    p_reg->RXD.MAXCNT = length;
    3c58:	2301      	movs	r3, #1
    3c5a:	f8c4 3538 	str.w	r3, [r4, #1336]	; 0x538
    *((volatile uint32_t *)((uint8_t *)p_reg + (uint32_t)task)) = 0x1UL;
    3c5e:	6023      	str	r3, [r4, #0]
			nrf_uarte_task_trigger(uarte, NRF_UARTE_TASK_STARTRX);
		}
	}

	if (!(cfg->flags & UARTE_CFG_FLAG_PPI_ENDTX)) {
    3c60:	f8d8 3004 	ldr.w	r3, [r8, #4]
    3c64:	079a      	lsls	r2, r3, #30
    p_reg->INTENSET = mask;
    3c66:	bf5c      	itt	pl
    3c68:	f44f 7280 	movpl.w	r2, #256	; 0x100
    3c6c:	f8c4 2304 	strpl.w	r2, [r4, #772]	; 0x304
		nrf_uarte_int_enable(uarte, NRF_UARTE_INT_ENDTX_MASK);
	}

	if (cfg->flags & UARTE_CFG_FLAG_LOW_POWER) {
    3c70:	06db      	lsls	r3, r3, #27
    3c72:	bf44      	itt	mi
    3c74:	f44f 0380 	movmi.w	r3, #4194304	; 0x400000
    3c78:	f8c4 3304 	strmi.w	r3, [r4, #772]	; 0x304

	/* Set TXSTOPPED event by requesting fake (zero-length) transfer.
	 * Pointer to RAM variable (data->tx_buffer) is set because otherwise
	 * such operation may result in HardFault or RAM corruption.
	 */
	nrf_uarte_tx_buffer_set(uarte, &data->char_out, 0);
    3c7c:	3714      	adds	r7, #20
    p_reg->TXD.MAXCNT = length;
    3c7e:	2300      	movs	r3, #0
    p_reg->TXD.PTR    = (uint32_t)p_buffer;
    3c80:	f8c4 7544 	str.w	r7, [r4, #1348]	; 0x544
    p_reg->TXD.MAXCNT = length;
    3c84:	f8c4 3548 	str.w	r3, [r4, #1352]	; 0x548
    *((volatile uint32_t *)((uint8_t *)p_reg + (uint32_t)task)) = 0x1UL;
    3c88:	2301      	movs	r3, #1
    3c8a:	60a3      	str	r3, [r4, #8]
    3c8c:	60e3      	str	r3, [r4, #12]

	/* switch off transmitter to save an energy */
	nrf_uarte_task_trigger(uarte, NRF_UARTE_TASK_STOPTX);

	return 0;
}
    3c8e:	4628      	mov	r0, r5
    3c90:	e8bd 81f0 	ldmia.w	sp!, {r4, r5, r6, r7, r8, pc}
		return -EIO;
    3c94:	f06f 0504 	mvn.w	r5, #4
    3c98:	e7f9      	b.n	3c8e <uarte_instance_init.isra.0+0x11a>
    3c9a:	bf00      	nop
    3c9c:	0bad0000 	.word	0x0bad0000
    3ca0:	4001f000 	.word	0x4001f000

00003ca4 <sys_clock_timeout_handler>:
static void sys_clock_timeout_handler(int32_t chan,
				      uint64_t expire_time,
				      void *user_data)
{
	uint32_t cc_value = absolute_time_to_cc(expire_time);
	uint64_t dticks = (expire_time - last_count) / CYC_PER_TICK;
    3ca4:	4919      	ldr	r1, [pc, #100]	; (3d0c <sys_clock_timeout_handler+0x68>)
{
    3ca6:	b570      	push	{r4, r5, r6, lr}
    3ca8:	4604      	mov	r4, r0
	return absolute_time & COUNTER_MAX;
    3caa:	f022 467f 	bic.w	r6, r2, #4278190080	; 0xff000000
	uint64_t dticks = (expire_time - last_count) / CYC_PER_TICK;
    3cae:	6808      	ldr	r0, [r1, #0]

	last_count += dticks * CYC_PER_TICK;
    3cb0:	e9c1 2300 	strd	r2, r3, [r1]
	return (cc_value >= ANCHOR_RANGE_START) && (cc_value < ANCHOR_RANGE_END);
    3cb4:	f5a6 1300 	sub.w	r3, r6, #2097152	; 0x200000
	uint64_t dticks = (expire_time - last_count) / CYC_PER_TICK;
    3cb8:	1a10      	subs	r0, r2, r0
	if (in_anchor_range(cc_value)) {
    3cba:	f5b3 0f40 	cmp.w	r3, #12582912	; 0xc00000
    3cbe:	f04f 0500 	mov.w	r5, #0
    3cc2:	d20a      	bcs.n	3cda <sys_clock_timeout_handler+0x36>
		anchor = (((uint64_t)overflow_cnt) << COUNTER_BIT_WIDTH) + cc_value;
    3cc4:	4b12      	ldr	r3, [pc, #72]	; (3d10 <sys_clock_timeout_handler+0x6c>)
    3cc6:	6819      	ldr	r1, [r3, #0]
    3cc8:	060a      	lsls	r2, r1, #24
    3cca:	0a0b      	lsrs	r3, r1, #8
    3ccc:	1992      	adds	r2, r2, r6
    3cce:	4911      	ldr	r1, [pc, #68]	; (3d14 <sys_clock_timeout_handler+0x70>)
    3cd0:	f143 0300 	adc.w	r3, r3, #0
    3cd4:	e9c1 2300 	strd	r2, r3, [r1]
		return true;
    3cd8:	2501      	movs	r5, #1
		 */
		compare_set(chan, last_count + CYC_PER_TICK,
					  sys_clock_timeout_handler, NULL);
	}

	sys_clock_announce(IS_ENABLED(CONFIG_TICKLESS_KERNEL) ?
    3cda:	f002 f809 	bl	5cf0 <sys_clock_announce>
    p_reg->CC[ch] = cc_val;
}

NRF_STATIC_INLINE  uint32_t nrf_rtc_cc_get(NRF_RTC_Type const * p_reg, uint32_t ch)
{
    return p_reg->CC[ch];
    3cde:	00a3      	lsls	r3, r4, #2
    3ce0:	f103 4380 	add.w	r3, r3, #1073741824	; 0x40000000
    3ce4:	f503 3388 	add.w	r3, r3, #69632	; 0x11000
    3ce8:	f8d3 2540 	ldr.w	r2, [r3, #1344]	; 0x540
			   (int32_t)dticks : (dticks > 0));

	if (cc_value == get_comparator(chan)) {
    3cec:	42b2      	cmp	r2, r6
    3cee:	d10b      	bne.n	3d08 <sys_clock_timeout_handler+0x64>
		 * If anchor was updated we can enable same CC value to trigger
		 * interrupt after full cycle. Else set event in anchor update
		 * range. Since anchor was not updated we know that it's very
		 * far from mid point so setting is done without any protection.
		 */
		if (!anchor_updated) {
    3cf0:	b91d      	cbnz	r5, 3cfa <sys_clock_timeout_handler+0x56>
    p_reg->CC[ch] = cc_val;
    3cf2:	f44f 0200 	mov.w	r2, #8388608	; 0x800000
    3cf6:	f8c3 2540 	str.w	r2, [r3, #1344]	; 0x540
    *(__IO uint32_t *)((uint32_t)p_reg + task) = 1;
}

NRF_STATIC_INLINE void nrf_rtc_event_enable(NRF_RTC_Type * p_reg, uint32_t mask)
{
    p_reg->EVTENSET = mask;
    3cfa:	4b07      	ldr	r3, [pc, #28]	; (3d18 <sys_clock_timeout_handler+0x74>)
	nrf_rtc_event_enable(RTC, RTC_CHANNEL_INT_MASK(chan));
    3cfc:	f44f 3080 	mov.w	r0, #65536	; 0x10000
    3d00:	fa00 f404 	lsl.w	r4, r0, r4
    3d04:	f8c3 4344 	str.w	r4, [r3, #836]	; 0x344
			set_comparator(chan, COUNTER_HALF_SPAN);
		}
		event_enable(chan);
	}
}
    3d08:	bd70      	pop	{r4, r5, r6, pc}
    3d0a:	bf00      	nop
    3d0c:	20000498 	.word	0x20000498
    3d10:	20000c58 	.word	0x20000c58
    3d14:	20000480 	.word	0x20000480
    3d18:	40011000 	.word	0x40011000

00003d1c <compare_int_lock>:
{
    3d1c:	b510      	push	{r4, lr}
	atomic_val_t prev = atomic_and(&int_mask, ~BIT(chan));
    3d1e:	2301      	movs	r3, #1
    3d20:	4083      	lsls	r3, r0
	return __atomic_fetch_and(target, value, __ATOMIC_SEQ_CST);
    3d22:	4a11      	ldr	r2, [pc, #68]	; (3d68 <compare_int_lock+0x4c>)
    3d24:	f3bf 8f5b 	dmb	ish
    3d28:	43dc      	mvns	r4, r3
    3d2a:	e852 1f00 	ldrex	r1, [r2]
    3d2e:	ea01 0c04 	and.w	ip, r1, r4
    3d32:	e842 ce00 	strex	lr, ip, [r2]
    3d36:	f1be 0f00 	cmp.w	lr, #0
    3d3a:	d1f6      	bne.n	3d2a <compare_int_lock+0xe>
    3d3c:	f3bf 8f5b 	dmb	ish
	nrf_rtc_int_disable(RTC, RTC_CHANNEL_INT_MASK(chan));
    3d40:	f44f 3280 	mov.w	r2, #65536	; 0x10000
    3d44:	fa02 f000 	lsl.w	r0, r2, r0
    p_reg->INTENCLR = mask;
    3d48:	f102 4280 	add.w	r2, r2, #1073741824	; 0x40000000
    3d4c:	f502 5280 	add.w	r2, r2, #4096	; 0x1000
    3d50:	f8c2 0308 	str.w	r0, [r2, #776]	; 0x308
  __ASM volatile ("dmb 0xF":::"memory");
    3d54:	f3bf 8f5f 	dmb	sy
  __ASM volatile ("isb 0xF":::"memory");
    3d58:	f3bf 8f6f 	isb	sy
	return prev & BIT(chan);
    3d5c:	420b      	tst	r3, r1
}
    3d5e:	bf14      	ite	ne
    3d60:	2001      	movne	r0, #1
    3d62:	2000      	moveq	r0, #0
    3d64:	bd10      	pop	{r4, pc}
    3d66:	bf00      	nop
    3d68:	20000c54 	.word	0x20000c54

00003d6c <compare_int_unlock.part.0>:
		atomic_or(&int_mask, BIT(chan));
    3d6c:	2301      	movs	r3, #1
	return __atomic_fetch_or(target, value, __ATOMIC_SEQ_CST);
    3d6e:	4a12      	ldr	r2, [pc, #72]	; (3db8 <compare_int_unlock.part.0+0x4c>)
    3d70:	f3bf 8f5b 	dmb	ish
    3d74:	4083      	lsls	r3, r0
    3d76:	e852 1f00 	ldrex	r1, [r2]
    3d7a:	4319      	orrs	r1, r3
    3d7c:	e842 1c00 	strex	ip, r1, [r2]
    3d80:	f1bc 0f00 	cmp.w	ip, #0
    3d84:	d1f7      	bne.n	3d76 <compare_int_unlock.part.0+0xa>
    3d86:	f3bf 8f5b 	dmb	ish
    p_reg->INTENSET = mask;
    3d8a:	4a0c      	ldr	r2, [pc, #48]	; (3dbc <compare_int_unlock.part.0+0x50>)
		nrf_rtc_int_enable(RTC, RTC_CHANNEL_INT_MASK(chan));
    3d8c:	f44f 3380 	mov.w	r3, #65536	; 0x10000
    3d90:	4083      	lsls	r3, r0
    3d92:	f8c2 3304 	str.w	r3, [r2, #772]	; 0x304
	return __atomic_load_n(target, __ATOMIC_SEQ_CST);
    3d96:	4b0a      	ldr	r3, [pc, #40]	; (3dc0 <compare_int_unlock.part.0+0x54>)
    3d98:	f3bf 8f5b 	dmb	ish
    3d9c:	681b      	ldr	r3, [r3, #0]
    3d9e:	f3bf 8f5b 	dmb	ish
		if (atomic_get(&force_isr_mask) & BIT(chan)) {
    3da2:	fa23 f000 	lsr.w	r0, r3, r0
    3da6:	07c3      	lsls	r3, r0, #31
    NVIC->ISPR[(((uint32_t)IRQn) >> 5UL)] = (uint32_t)(1UL << (((uint32_t)IRQn) & 0x1FUL));
    3da8:	bf42      	ittt	mi
    3daa:	4b06      	ldrmi	r3, [pc, #24]	; (3dc4 <compare_int_unlock.part.0+0x58>)
    3dac:	f44f 3200 	movmi.w	r2, #131072	; 0x20000
    3db0:	f8c3 2100 	strmi.w	r2, [r3, #256]	; 0x100
}
    3db4:	4770      	bx	lr
    3db6:	bf00      	nop
    3db8:	20000c54 	.word	0x20000c54
    3dbc:	40011000 	.word	0x40011000
    3dc0:	20000c50 	.word	0x20000c50
    3dc4:	e000e100 	.word	0xe000e100

00003dc8 <z_nrf_rtc_timer_read>:
	uint64_t val = ((uint64_t)overflow_cnt) << COUNTER_BIT_WIDTH;
    3dc8:	4b0d      	ldr	r3, [pc, #52]	; (3e00 <z_nrf_rtc_timer_read+0x38>)
    3dca:	681b      	ldr	r3, [r3, #0]
    3dcc:	0a19      	lsrs	r1, r3, #8
    3dce:	0618      	lsls	r0, r3, #24
  __ASM volatile ("dmb 0xF":::"memory");
    3dd0:	f3bf 8f5f 	dmb	sy
     return p_reg->COUNTER;
    3dd4:	4b0b      	ldr	r3, [pc, #44]	; (3e04 <z_nrf_rtc_timer_read+0x3c>)
    3dd6:	f8d3 3504 	ldr.w	r3, [r3, #1284]	; 0x504
	val += cntr;
    3dda:	18c0      	adds	r0, r0, r3
    3ddc:	f141 0100 	adc.w	r1, r1, #0
	if (cntr < OVERFLOW_RISK_RANGE_END) {
    3de0:	f5b3 1f80 	cmp.w	r3, #1048576	; 0x100000
    3de4:	d20a      	bcs.n	3dfc <z_nrf_rtc_timer_read+0x34>
		if (val < anchor) {
    3de6:	4b08      	ldr	r3, [pc, #32]	; (3e08 <z_nrf_rtc_timer_read+0x40>)
    3de8:	e9d3 2300 	ldrd	r2, r3, [r3]
    3dec:	4299      	cmp	r1, r3
    3dee:	bf08      	it	eq
    3df0:	4290      	cmpeq	r0, r2
    3df2:	d203      	bcs.n	3dfc <z_nrf_rtc_timer_read+0x34>
			val += COUNTER_SPAN;
    3df4:	f110 7080 	adds.w	r0, r0, #16777216	; 0x1000000
    3df8:	f141 0100 	adc.w	r1, r1, #0
}
    3dfc:	4770      	bx	lr
    3dfe:	bf00      	nop
    3e00:	20000c58 	.word	0x20000c58
    3e04:	40011000 	.word	0x40011000
    3e08:	20000480 	.word	0x20000480

00003e0c <compare_set>:
{
    3e0c:	e92d 4ff0 	stmdb	sp!, {r4, r5, r6, r7, r8, r9, sl, fp, lr}
    3e10:	b085      	sub	sp, #20
    3e12:	4616      	mov	r6, r2
    3e14:	461f      	mov	r7, r3
    3e16:	4605      	mov	r5, r0
	key = compare_int_lock(chan);
    3e18:	f7ff ff80 	bl	3d1c <compare_int_lock>
    3e1c:	9001      	str	r0, [sp, #4]
	uint64_t curr_time = z_nrf_rtc_timer_read();
    3e1e:	f7ff ffd3 	bl	3dc8 <z_nrf_rtc_timer_read>
	if (curr_time < target_time) {
    3e22:	42b9      	cmp	r1, r7
    3e24:	bf08      	it	eq
    3e26:	42b0      	cmpeq	r0, r6
    3e28:	d27f      	bcs.n	3f2a <compare_set+0x11e>
		if (target_time - curr_time > COUNTER_SPAN) {
    3e2a:	ebb6 0800 	subs.w	r8, r6, r0
    3e2e:	eb67 0901 	sbc.w	r9, r7, r1
    3e32:	2300      	movs	r3, #0
    3e34:	f04f 7280 	mov.w	r2, #16777216	; 0x1000000
    3e38:	454b      	cmp	r3, r9
    3e3a:	bf08      	it	eq
    3e3c:	4542      	cmpeq	r2, r8
    3e3e:	f0c0 8085 	bcc.w	3f4c <compare_set+0x140>
		if (target_time != cc_data[chan].target_time) {
    3e42:	4b44      	ldr	r3, [pc, #272]	; (3f54 <compare_set+0x148>)
    3e44:	eb03 1305 	add.w	r3, r3, r5, lsl #4
    3e48:	e9d3 2302 	ldrd	r2, r3, [r3, #8]
    3e4c:	429f      	cmp	r7, r3
    3e4e:	bf08      	it	eq
    3e50:	4296      	cmpeq	r6, r2
    3e52:	d054      	beq.n	3efe <compare_set+0xf2>
    3e54:	ea4f 0985 	mov.w	r9, r5, lsl #2
	nrf_rtc_event_enable(RTC, RTC_CHANNEL_INT_MASK(chan));
    3e58:	f44f 3b80 	mov.w	fp, #65536	; 0x10000
    3e5c:	f109 4980 	add.w	r9, r9, #1073741824	; 0x40000000
	nrf_rtc_event_clear(RTC, RTC_CHANNEL_EVENT_ADDR(chan));
    3e60:	f105 0850 	add.w	r8, r5, #80	; 0x50
	nrf_rtc_event_enable(RTC, RTC_CHANNEL_INT_MASK(chan));
    3e64:	fa0b f205 	lsl.w	r2, fp, r5
    3e68:	f509 3988 	add.w	r9, r9, #69632	; 0x11000
	nrf_rtc_event_clear(RTC, RTC_CHANNEL_EVENT_ADDR(chan));
    3e6c:	ea4f 0888 	mov.w	r8, r8, lsl #2
    *((volatile uint32_t *)((uint8_t *)p_reg + (uint32_t)event)) = 0;
    3e70:	fa1f f888 	uxth.w	r8, r8
	nrf_rtc_event_enable(RTC, RTC_CHANNEL_INT_MASK(chan));
    3e74:	9202      	str	r2, [sp, #8]
     return p_reg->COUNTER;
    3e76:	4a38      	ldr	r2, [pc, #224]	; (3f58 <compare_set+0x14c>)
    return p_reg->CC[ch];
    3e78:	f8d9 0540 	ldr.w	r0, [r9, #1344]	; 0x540
	return absolute_time & COUNTER_MAX;
    3e7c:	f026 437f 	bic.w	r3, r6, #4278190080	; 0xff000000
    *((volatile uint32_t *)((uint8_t *)p_reg + (uint32_t)event)) = 0;
    3e80:	f108 4880 	add.w	r8, r8, #1073741824	; 0x40000000
    3e84:	f508 3888 	add.w	r8, r8, #69632	; 0x11000
	uint32_t cc_val = abs_val & COUNTER_MAX;
    3e88:	461c      	mov	r4, r3
    3e8a:	4693      	mov	fp, r2
     return p_reg->COUNTER;
    3e8c:	f8d2 a504 	ldr.w	sl, [r2, #1284]	; 0x504
	return (a - b) & COUNTER_MAX;
    3e90:	eba0 000a 	sub.w	r0, r0, sl
    3e94:	f020 407f 	bic.w	r0, r0, #4278190080	; 0xff000000
	nrf_rtc_cc_set(RTC, chan, cyc & COUNTER_MAX);
    3e98:	f02a 417f 	bic.w	r1, sl, #4278190080	; 0xff000000
		if (counter_sub(prev_cc, now) == 1) {
    3e9c:	2801      	cmp	r0, #1
    p_reg->CC[ch] = cc_val;
    3e9e:	f8c9 1540 	str.w	r1, [r9, #1344]	; 0x540
    3ea2:	d105      	bne.n	3eb0 <compare_set+0xa4>
    3ea4:	9303      	str	r3, [sp, #12]
	z_impl_k_busy_wait(usec_to_wait);
    3ea6:	2013      	movs	r0, #19
    3ea8:	f003 fb2d 	bl	7506 <z_impl_k_busy_wait>
    3eac:	4a2a      	ldr	r2, [pc, #168]	; (3f58 <compare_set+0x14c>)
    3eae:	9b03      	ldr	r3, [sp, #12]
    p_reg->EVTENSET = mask;
    3eb0:	9902      	ldr	r1, [sp, #8]
		if (counter_sub(cc_val, now + 2) > COUNTER_HALF_SPAN) {
    3eb2:	f10a 0c02 	add.w	ip, sl, #2
	return (a - b) & COUNTER_MAX;
    3eb6:	eba4 000c 	sub.w	r0, r4, ip
    3eba:	f020 407f 	bic.w	r0, r0, #4278190080	; 0xff000000
			cc_val = now + 2;
    3ebe:	f5b0 0f00 	cmp.w	r0, #8388608	; 0x800000
    3ec2:	bf88      	it	hi
    3ec4:	4664      	movhi	r4, ip
    *((volatile uint32_t *)((uint8_t *)p_reg + (uint32_t)event)) = 0;
    3ec6:	2000      	movs	r0, #0
    3ec8:	f8c8 0000 	str.w	r0, [r8]
    3ecc:	f8d8 0000 	ldr.w	r0, [r8]
    p_reg->EVTENSET = mask;
    3ed0:	f8cb 1344 	str.w	r1, [fp, #836]	; 0x344
	nrf_rtc_cc_set(RTC, chan, cyc & COUNTER_MAX);
    3ed4:	f024 407f 	bic.w	r0, r4, #4278190080	; 0xff000000
    p_reg->CC[ch] = cc_val;
    3ed8:	f8c9 0540 	str.w	r0, [r9, #1344]	; 0x540
     return p_reg->COUNTER;
    3edc:	f8db 0504 	ldr.w	r0, [fp, #1284]	; 0x504
		 (counter_sub(cc_val, now2 + 2) > COUNTER_HALF_SPAN));
    3ee0:	4582      	cmp	sl, r0
    3ee2:	d006      	beq.n	3ef2 <compare_set+0xe6>
	return (a - b) & COUNTER_MAX;
    3ee4:	1a20      	subs	r0, r4, r0
    3ee6:	3802      	subs	r0, #2
    3ee8:	f020 407f 	bic.w	r0, r0, #4278190080	; 0xff000000
	} while ((now2 != now) &&
    3eec:	f5b0 0f00 	cmp.w	r0, #8388608	; 0x800000
    3ef0:	d819      	bhi.n	3f26 <compare_set+0x11a>
	return (a - b) & COUNTER_MAX;
    3ef2:	1ae4      	subs	r4, r4, r3
    3ef4:	f024 447f 	bic.w	r4, r4, #4278190080	; 0xff000000
			target_time += counter_sub(cc_set, cc_value);
    3ef8:	1932      	adds	r2, r6, r4
    3efa:	f147 0300 	adc.w	r3, r7, #0
	cc_data[chan].target_time = target_time;
    3efe:	4c15      	ldr	r4, [pc, #84]	; (3f54 <compare_set+0x148>)
    3f00:	0129      	lsls	r1, r5, #4
    3f02:	eb04 1005 	add.w	r0, r4, r5, lsl #4
    3f06:	e9c0 2302 	strd	r2, r3, [r0, #8]
	cc_data[chan].callback = handler;
    3f0a:	9a0e      	ldr	r2, [sp, #56]	; 0x38
	cc_data[chan].user_context = user_data;
    3f0c:	9b0f      	ldr	r3, [sp, #60]	; 0x3c
	cc_data[chan].callback = handler;
    3f0e:	5062      	str	r2, [r4, r1]
	cc_data[chan].user_context = user_data;
    3f10:	6043      	str	r3, [r0, #4]
	return ret;
    3f12:	2400      	movs	r4, #0
	if (key) {
    3f14:	9b01      	ldr	r3, [sp, #4]
    3f16:	b113      	cbz	r3, 3f1e <compare_set+0x112>
    3f18:	4628      	mov	r0, r5
    3f1a:	f7ff ff27 	bl	3d6c <compare_int_unlock.part.0>
}
    3f1e:	4620      	mov	r0, r4
    3f20:	b005      	add	sp, #20
    3f22:	e8bd 8ff0 	ldmia.w	sp!, {r4, r5, r6, r7, r8, r9, sl, fp, pc}
    3f26:	4620      	mov	r0, r4
    3f28:	e7b0      	b.n	3e8c <compare_set+0x80>
		atomic_or(&force_isr_mask, BIT(chan));
    3f2a:	2301      	movs	r3, #1
	return __atomic_fetch_or(target, value, __ATOMIC_SEQ_CST);
    3f2c:	4a0b      	ldr	r2, [pc, #44]	; (3f5c <compare_set+0x150>)
    3f2e:	f3bf 8f5b 	dmb	ish
    3f32:	40ab      	lsls	r3, r5
    3f34:	e852 1f00 	ldrex	r1, [r2]
    3f38:	4319      	orrs	r1, r3
    3f3a:	e842 1000 	strex	r0, r1, [r2]
    3f3e:	2800      	cmp	r0, #0
    3f40:	d1f8      	bne.n	3f34 <compare_set+0x128>
    3f42:	f3bf 8f5b 	dmb	ish
    3f46:	4632      	mov	r2, r6
    3f48:	463b      	mov	r3, r7
    3f4a:	e7d8      	b.n	3efe <compare_set+0xf2>
			return -EINVAL;
    3f4c:	f06f 0415 	mvn.w	r4, #21
    3f50:	e7e0      	b.n	3f14 <compare_set+0x108>
    3f52:	bf00      	nop
    3f54:	20000488 	.word	0x20000488
    3f58:	40011000 	.word	0x40011000
    3f5c:	20000c50 	.word	0x20000c50

00003f60 <sys_clock_driver_init>:
{
	return (uint32_t)z_nrf_rtc_timer_read();
}

static int sys_clock_driver_init(const struct device *dev)
{
    3f60:	b573      	push	{r0, r1, r4, r5, r6, lr}
			CLOCK_CONTROL_NRF_LF_START_STABLE);

	/* TODO: replace with counter driver to access RTC */
	nrf_rtc_prescaler_set(RTC, 0);
	for (int32_t chan = 0; chan < CHAN_COUNT; chan++) {
		cc_data[chan].target_time = TARGET_TIME_INVALID;
    3f62:	4b19      	ldr	r3, [pc, #100]	; (3fc8 <sys_clock_driver_init+0x68>)
    p_reg->PRESCALER = val;
    3f64:	4d19      	ldr	r5, [pc, #100]	; (3fcc <sys_clock_driver_init+0x6c>)
    3f66:	2400      	movs	r4, #0
    3f68:	f04f 30ff 	mov.w	r0, #4294967295
    3f6c:	f04f 31ff 	mov.w	r1, #4294967295
    3f70:	f8c5 4508 	str.w	r4, [r5, #1288]	; 0x508
    3f74:	e9c3 0102 	strd	r0, r1, [r3, #8]
    p_reg->INTENSET = mask;
    3f78:	f44f 3380 	mov.w	r3, #65536	; 0x10000
    3f7c:	f8c5 3304 	str.w	r3, [r5, #772]	; 0x304
    NVIC->ICPR[(((uint32_t)IRQn) >> 5UL)] = (uint32_t)(1UL << (((uint32_t)IRQn) & 0x1FUL));
    3f80:	4b13      	ldr	r3, [pc, #76]	; (3fd0 <sys_clock_driver_init+0x70>)
    3f82:	2602      	movs	r6, #2
    3f84:	f44f 3200 	mov.w	r2, #131072	; 0x20000

	nrf_rtc_int_enable(RTC, NRF_RTC_INT_OVERFLOW_MASK);

	NVIC_ClearPendingIRQ(RTC_IRQn);

	IRQ_CONNECT(RTC_IRQn, DT_IRQ(DT_NODELABEL(RTC_LABEL), priority),
    3f88:	2101      	movs	r1, #1
    3f8a:	f8c5 6304 	str.w	r6, [r5, #772]	; 0x304
    3f8e:	2011      	movs	r0, #17
    3f90:	f8c3 2180 	str.w	r2, [r3, #384]	; 0x180
    3f94:	4622      	mov	r2, r4
    3f96:	f7fe fb85 	bl	26a4 <z_arm_irq_priority_set>
		    rtc_nrf_isr, 0, 0);
	irq_enable(RTC_IRQn);
    3f9a:	2011      	movs	r0, #17
    3f9c:	f7fe fb64 	bl	2668 <arch_irq_enable>
    *(__IO uint32_t *)((uint32_t)p_reg + task) = 1;
    3fa0:	4a0c      	ldr	r2, [pc, #48]	; (3fd4 <sys_clock_driver_init+0x74>)
    3fa2:	2301      	movs	r3, #1
    3fa4:	6013      	str	r3, [r2, #0]

	nrf_rtc_task_trigger(RTC, NRF_RTC_TASK_CLEAR);
	nrf_rtc_task_trigger(RTC, NRF_RTC_TASK_START);

	int_mask = BIT_MASK(CHAN_COUNT);
    3fa6:	4a0c      	ldr	r2, [pc, #48]	; (3fd8 <sys_clock_driver_init+0x78>)
    3fa8:	602b      	str	r3, [r5, #0]
    3faa:	6013      	str	r3, [r2, #0]

	uint32_t initial_timeout = IS_ENABLED(CONFIG_TICKLESS_KERNEL) ?
		(COUNTER_HALF_SPAN - 1) :
		(counter() + CYC_PER_TICK);

	compare_set(0, initial_timeout, sys_clock_timeout_handler, NULL);
    3fac:	4b0b      	ldr	r3, [pc, #44]	; (3fdc <sys_clock_driver_init+0x7c>)
    3fae:	4a0c      	ldr	r2, [pc, #48]	; (3fe0 <sys_clock_driver_init+0x80>)
    3fb0:	9300      	str	r3, [sp, #0]
    3fb2:	9401      	str	r4, [sp, #4]
    3fb4:	2300      	movs	r3, #0
    3fb6:	4620      	mov	r0, r4
    3fb8:	f7ff ff28 	bl	3e0c <compare_set>

	z_nrf_clock_control_lf_on(mode);
    3fbc:	4630      	mov	r0, r6
    3fbe:	f7ff f9ad 	bl	331c <z_nrf_clock_control_lf_on>

	return 0;
}
    3fc2:	4620      	mov	r0, r4
    3fc4:	b002      	add	sp, #8
    3fc6:	bd70      	pop	{r4, r5, r6, pc}
    3fc8:	20000488 	.word	0x20000488
    3fcc:	40011000 	.word	0x40011000
    3fd0:	e000e100 	.word	0xe000e100
    3fd4:	40011008 	.word	0x40011008
    3fd8:	20000c54 	.word	0x20000c54
    3fdc:	00003ca5 	.word	0x00003ca5
    3fe0:	007fffff 	.word	0x007fffff

00003fe4 <rtc_nrf_isr>:
{
    3fe4:	e92d 43f7 	stmdb	sp!, {r0, r1, r2, r4, r5, r6, r7, r8, r9, lr}
    return p_reg->INTENSET & mask;
    3fe8:	4c34      	ldr	r4, [pc, #208]	; (40bc <rtc_nrf_isr+0xd8>)
    3fea:	f8d4 3304 	ldr.w	r3, [r4, #772]	; 0x304
	if (nrf_rtc_int_enable_check(RTC, NRF_RTC_INT_OVERFLOW_MASK) &&
    3fee:	079a      	lsls	r2, r3, #30
    3ff0:	d509      	bpl.n	4006 <rtc_nrf_isr+0x22>
    return (bool)*(volatile uint32_t *)((uint8_t *)p_reg + (uint32_t)event);
    3ff2:	4b33      	ldr	r3, [pc, #204]	; (40c0 <rtc_nrf_isr+0xdc>)
    3ff4:	681a      	ldr	r2, [r3, #0]
    3ff6:	b132      	cbz	r2, 4006 <rtc_nrf_isr+0x22>
    *((volatile uint32_t *)((uint8_t *)p_reg + (uint32_t)event)) = 0;
    3ff8:	2200      	movs	r2, #0
    3ffa:	601a      	str	r2, [r3, #0]
		overflow_cnt++;
    3ffc:	4a31      	ldr	r2, [pc, #196]	; (40c4 <rtc_nrf_isr+0xe0>)
    3ffe:	681b      	ldr	r3, [r3, #0]
    4000:	6813      	ldr	r3, [r2, #0]
    4002:	3301      	adds	r3, #1
    4004:	6013      	str	r3, [r2, #0]
	__asm__ volatile(
    4006:	f04f 0320 	mov.w	r3, #32
    400a:	f3ef 8211 	mrs	r2, BASEPRI
    400e:	f383 8812 	msr	BASEPRI_MAX, r3
    4012:	f3bf 8f6f 	isb	sy
    return p_reg->INTENSET & mask;
    4016:	f8d4 3304 	ldr.w	r3, [r4, #772]	; 0x304
	if (nrf_rtc_int_enable_check(RTC, RTC_CHANNEL_INT_MASK(chan))) {
    401a:	03db      	lsls	r3, r3, #15
    401c:	d512      	bpl.n	4044 <rtc_nrf_isr+0x60>
	return __atomic_fetch_and(target, value, __ATOMIC_SEQ_CST);
    401e:	f3bf 8f5b 	dmb	ish
    4022:	4b29      	ldr	r3, [pc, #164]	; (40c8 <rtc_nrf_isr+0xe4>)
    4024:	e853 1f00 	ldrex	r1, [r3]
    4028:	f021 0001 	bic.w	r0, r1, #1
    402c:	e843 0600 	strex	r6, r0, [r3]
    4030:	2e00      	cmp	r6, #0
    4032:	d1f7      	bne.n	4024 <rtc_nrf_isr+0x40>
    4034:	f3bf 8f5b 	dmb	ish
    4038:	4b24      	ldr	r3, [pc, #144]	; (40cc <rtc_nrf_isr+0xe8>)
		result = atomic_and(&force_isr_mask, ~BIT(chan)) ||
    403a:	2900      	cmp	r1, #0
    403c:	d136      	bne.n	40ac <rtc_nrf_isr+0xc8>
    return (bool)*(volatile uint32_t *)((uint8_t *)p_reg + (uint32_t)event);
    403e:	6819      	ldr	r1, [r3, #0]
		if (result) {
    4040:	2900      	cmp	r1, #0
    4042:	d133      	bne.n	40ac <rtc_nrf_isr+0xc8>
{
    4044:	2300      	movs	r3, #0
	__asm__ volatile(
    4046:	f382 8811 	msr	BASEPRI, r2
    404a:	f3bf 8f6f 	isb	sy
	if (channel_processing_check_and_clear(chan)) {
    404e:	b353      	cbz	r3, 40a6 <rtc_nrf_isr+0xc2>
		curr_time = z_nrf_rtc_timer_read();
    4050:	f7ff feba 	bl	3dc8 <z_nrf_rtc_timer_read>
    4054:	4606      	mov	r6, r0
	__asm__ volatile(
    4056:	f04f 0320 	mov.w	r3, #32
    405a:	f3ef 8011 	mrs	r0, BASEPRI
    405e:	f383 8812 	msr	BASEPRI_MAX, r3
    4062:	f3bf 8f6f 	isb	sy
		expire_time = cc_data[chan].target_time;
    4066:	4b1a      	ldr	r3, [pc, #104]	; (40d0 <rtc_nrf_isr+0xec>)
    4068:	e9d3 8902 	ldrd	r8, r9, [r3, #8]
		if (curr_time >= expire_time) {
    406c:	4549      	cmp	r1, r9
    406e:	bf08      	it	eq
    4070:	4546      	cmpeq	r6, r8
    4072:	f04f 0200 	mov.w	r2, #0
    4076:	d31e      	bcc.n	40b6 <rtc_nrf_isr+0xd2>
			cc_data[chan].target_time = TARGET_TIME_INVALID;
    4078:	f04f 36ff 	mov.w	r6, #4294967295
    407c:	f04f 37ff 	mov.w	r7, #4294967295
			user_context = cc_data[chan].user_context;
    4080:	e9d3 1500 	ldrd	r1, r5, [r3]
			cc_data[chan].target_time = TARGET_TIME_INVALID;
    4084:	e9c3 6702 	strd	r6, r7, [r3, #8]
			cc_data[chan].callback = NULL;
    4088:	601a      	str	r2, [r3, #0]
}

NRF_STATIC_INLINE void nrf_rtc_event_disable(NRF_RTC_Type * p_reg, uint32_t mask)
{
    p_reg->EVTENCLR = mask;
    408a:	f44f 3380 	mov.w	r3, #65536	; 0x10000
    408e:	f8c4 3348 	str.w	r3, [r4, #840]	; 0x348
	__asm__ volatile(
    4092:	f380 8811 	msr	BASEPRI, r0
    4096:	f3bf 8f6f 	isb	sy
		if (handler) {
    409a:	b121      	cbz	r1, 40a6 <rtc_nrf_isr+0xc2>
			handler(chan, expire_time, user_context);
    409c:	9500      	str	r5, [sp, #0]
    409e:	4642      	mov	r2, r8
    40a0:	464b      	mov	r3, r9
    40a2:	2000      	movs	r0, #0
    40a4:	4788      	blx	r1
}
    40a6:	b003      	add	sp, #12
    40a8:	e8bd 83f0 	ldmia.w	sp!, {r4, r5, r6, r7, r8, r9, pc}
    *((volatile uint32_t *)((uint8_t *)p_reg + (uint32_t)event)) = 0;
    40ac:	2100      	movs	r1, #0
    40ae:	6019      	str	r1, [r3, #0]
    40b0:	681b      	ldr	r3, [r3, #0]
		result = atomic_and(&force_isr_mask, ~BIT(chan)) ||
    40b2:	2301      	movs	r3, #1
}
    40b4:	e7c7      	b.n	4046 <rtc_nrf_isr+0x62>
		z_nrf_rtc_timer_compare_handler_t handler = NULL;
    40b6:	4611      	mov	r1, r2
    40b8:	e7eb      	b.n	4092 <rtc_nrf_isr+0xae>
    40ba:	bf00      	nop
    40bc:	40011000 	.word	0x40011000
    40c0:	40011104 	.word	0x40011104
    40c4:	20000c58 	.word	0x20000c58
    40c8:	20000c50 	.word	0x20000c50
    40cc:	40011140 	.word	0x40011140
    40d0:	20000488 	.word	0x20000488

000040d4 <sys_clock_set_timeout>:
	ticks = (ticks == K_TICKS_FOREVER) ? MAX_TICKS : ticks;
    40d4:	4b14      	ldr	r3, [pc, #80]	; (4128 <sys_clock_set_timeout+0x54>)
{
    40d6:	b513      	push	{r0, r1, r4, lr}
	ticks = (ticks == K_TICKS_FOREVER) ? MAX_TICKS : ticks;
    40d8:	f1b0 3fff 	cmp.w	r0, #4294967295
    40dc:	bf08      	it	eq
    40de:	4618      	moveq	r0, r3
	ticks = CLAMP(ticks - 1, 0, (int32_t)MAX_TICKS);
    40e0:	1e44      	subs	r4, r0, #1
    40e2:	2c00      	cmp	r4, #0
    40e4:	dd1e      	ble.n	4124 <sys_clock_set_timeout+0x50>
    40e6:	429c      	cmp	r4, r3
    40e8:	bfa8      	it	ge
    40ea:	461c      	movge	r4, r3
	uint32_t unannounced = z_nrf_rtc_timer_read() - last_count;
    40ec:	f7ff fe6c 	bl	3dc8 <z_nrf_rtc_timer_read>
    40f0:	4b0e      	ldr	r3, [pc, #56]	; (412c <sys_clock_set_timeout+0x58>)
	compare_set(0, target_time, sys_clock_timeout_handler, NULL);
    40f2:	490f      	ldr	r1, [pc, #60]	; (4130 <sys_clock_set_timeout+0x5c>)
	uint32_t unannounced = z_nrf_rtc_timer_read() - last_count;
    40f4:	e9d3 2300 	ldrd	r2, r3, [r3]
    40f8:	1a80      	subs	r0, r0, r2
		ticks = 0;
    40fa:	f5b0 0f00 	cmp.w	r0, #8388608	; 0x800000
    40fe:	bf28      	it	cs
    4100:	2400      	movcs	r4, #0
	cyc = ticks * CYC_PER_TICK + 1 + unannounced;
    4102:	3001      	adds	r0, #1
    4104:	4404      	add	r4, r0
	uint64_t target_time = cyc + last_count;
    4106:	4808      	ldr	r0, [pc, #32]	; (4128 <sys_clock_set_timeout+0x54>)
	compare_set(0, target_time, sys_clock_timeout_handler, NULL);
    4108:	9100      	str	r1, [sp, #0]
	uint64_t target_time = cyc + last_count;
    410a:	4284      	cmp	r4, r0
    410c:	bf28      	it	cs
    410e:	4604      	movcs	r4, r0
	compare_set(0, target_time, sys_clock_timeout_handler, NULL);
    4110:	1912      	adds	r2, r2, r4
    4112:	f04f 0000 	mov.w	r0, #0
    4116:	9001      	str	r0, [sp, #4]
    4118:	f143 0300 	adc.w	r3, r3, #0
    411c:	f7ff fe76 	bl	3e0c <compare_set>
}
    4120:	b002      	add	sp, #8
    4122:	bd10      	pop	{r4, pc}
	ticks = CLAMP(ticks - 1, 0, (int32_t)MAX_TICKS);
    4124:	2400      	movs	r4, #0
    4126:	e7e1      	b.n	40ec <sys_clock_set_timeout+0x18>
    4128:	007fffff 	.word	0x007fffff
    412c:	20000498 	.word	0x20000498
    4130:	00003ca5 	.word	0x00003ca5

00004134 <sys_clock_elapsed>:
{
    4134:	b508      	push	{r3, lr}
	return (z_nrf_rtc_timer_read() - last_count) / CYC_PER_TICK;
    4136:	f7ff fe47 	bl	3dc8 <z_nrf_rtc_timer_read>
    413a:	4b02      	ldr	r3, [pc, #8]	; (4144 <sys_clock_elapsed+0x10>)
    413c:	681b      	ldr	r3, [r3, #0]
}
    413e:	1ac0      	subs	r0, r0, r3
    4140:	bd08      	pop	{r3, pc}
    4142:	bf00      	nop
    4144:	20000498 	.word	0x20000498

00004148 <nrfx_clock_init>:
nrfx_err_t nrfx_clock_init(nrfx_clock_event_handler_t event_handler)
{
    NRFX_ASSERT(event_handler);

    nrfx_err_t err_code = NRFX_SUCCESS;
    if (m_clock_cb.module_initialized)
    4148:	4b04      	ldr	r3, [pc, #16]	; (415c <nrfx_clock_init+0x14>)
    414a:	791a      	ldrb	r2, [r3, #4]
    414c:	b922      	cbnz	r2, 4158 <nrfx_clock_init+0x10>
    {
#if NRFX_CHECK(NRFX_CLOCK_CONFIG_LF_CAL_ENABLED)
        m_clock_cb.cal_state = CAL_STATE_IDLE;
#endif
        m_clock_cb.event_handler = event_handler;
        m_clock_cb.module_initialized = true;
    414e:	2201      	movs	r2, #1
        m_clock_cb.event_handler = event_handler;
    4150:	6018      	str	r0, [r3, #0]
        m_clock_cb.module_initialized = true;
    4152:	809a      	strh	r2, [r3, #4]
    nrfx_err_t err_code = NRFX_SUCCESS;
    4154:	4802      	ldr	r0, [pc, #8]	; (4160 <nrfx_clock_init+0x18>)
    4156:	4770      	bx	lr
        err_code = NRFX_ERROR_ALREADY_INITIALIZED;
    4158:	4802      	ldr	r0, [pc, #8]	; (4164 <nrfx_clock_init+0x1c>)
#endif
    }

    NRFX_LOG_INFO("Function: %s, error code: %s.", __func__, NRFX_LOG_ERROR_STRING_GET(err_code));
    return err_code;
}
    415a:	4770      	bx	lr
    415c:	20000c5c 	.word	0x20000c5c
    4160:	0bad0000 	.word	0x0bad0000
    4164:	0bad000c 	.word	0x0bad000c

00004168 <nrfx_clock_start>:
}

void nrfx_clock_start(nrf_clock_domain_t domain)
{
    NRFX_ASSERT(m_clock_cb.module_initialized);
    switch (domain)
    4168:	b110      	cbz	r0, 4170 <nrfx_clock_start+0x8>
    416a:	2801      	cmp	r0, #1
    416c:	d020      	beq.n	41b0 <nrfx_clock_start+0x48>
    416e:	4770      	bx	lr
                    (nrf_clock_lfclk_t)((p_reg->LFCLKSTAT & CLOCK_LFCLKSTAT_SRC_Msk)
    4170:	f04f 4380 	mov.w	r3, #1073741824	; 0x40000000
    4174:	f8d3 2418 	ldr.w	r2, [r3, #1048]	; 0x418
            if ((p_reg->LFCLKSTAT & CLOCK_LFCLKSTAT_STATE_Msk)
    4178:	f8d3 1418 	ldr.w	r1, [r3, #1048]	; 0x418
    417c:	f411 3f80 	tst.w	r1, #65536	; 0x10000
    4180:	4619      	mov	r1, r3
    4182:	d011      	beq.n	41a8 <nrfx_clock_start+0x40>
                                        >> CLOCK_LFCLKSTAT_SRC_Pos);
    4184:	f002 0203 	and.w	r2, r2, #3
    {
        case NRF_CLOCK_DOMAIN_LFCLK:
#if NRFX_CHECK(NRFX_CLOCK_CONFIG_LFXO_TWO_STAGE_ENABLED)
            {
                nrf_clock_lfclk_t lfclksrc;
                if (nrf_clock_is_running(NRF_CLOCK, NRF_CLOCK_DOMAIN_LFCLK, &lfclksrc) &&
    4188:	2a01      	cmp	r2, #1
    418a:	d10d      	bne.n	41a8 <nrfx_clock_start+0x40>
    p_reg->LFCLKSRC = (uint32_t)(source);
    418c:	f8c3 2518 	str.w	r2, [r3, #1304]	; 0x518
    *((volatile uint32_t *)((uint8_t *)p_reg + (uint32_t)event)) = 0x0UL;
    4190:	4b0c      	ldr	r3, [pc, #48]	; (41c4 <nrfx_clock_start+0x5c>)
    4192:	2200      	movs	r2, #0
    4194:	601a      	str	r2, [r3, #0]
    4196:	681b      	ldr	r3, [r3, #0]
    p_reg->INTENSET = mask;
    4198:	f04f 4380 	mov.w	r3, #1073741824	; 0x40000000
    419c:	2202      	movs	r2, #2
    419e:	f8c3 2304 	str.w	r2, [r3, #772]	; 0x304
    *((volatile uint32_t *)((uint8_t *)p_reg + (uint32_t)task)) = 0x1UL;
    41a2:	2201      	movs	r2, #1
    41a4:	609a      	str	r2, [r3, #8]
}
    41a6:	4770      	bx	lr
    p_reg->LFCLKSRC = (uint32_t)(source);
    41a8:	2300      	movs	r3, #0
    41aa:	f8c1 3518 	str.w	r3, [r1, #1304]	; 0x518
}
    41ae:	e7ef      	b.n	4190 <nrfx_clock_start+0x28>
    *((volatile uint32_t *)((uint8_t *)p_reg + (uint32_t)event)) = 0x0UL;
    41b0:	4b05      	ldr	r3, [pc, #20]	; (41c8 <nrfx_clock_start+0x60>)
    41b2:	2200      	movs	r2, #0
    41b4:	601a      	str	r2, [r3, #0]
    41b6:	681b      	ldr	r3, [r3, #0]
    p_reg->INTENSET = mask;
    41b8:	f04f 4380 	mov.w	r3, #1073741824	; 0x40000000
    41bc:	f8c3 0304 	str.w	r0, [r3, #772]	; 0x304
    *((volatile uint32_t *)((uint8_t *)p_reg + (uint32_t)task)) = 0x1UL;
    41c0:	6018      	str	r0, [r3, #0]
#endif
        default:
            NRFX_ASSERT(0);
            break;
    }
}
    41c2:	4770      	bx	lr
    41c4:	40000104 	.word	0x40000104
    41c8:	40000100 	.word	0x40000100

000041cc <nrfx_clock_stop>:

void nrfx_clock_stop(nrf_clock_domain_t domain)
{
    41cc:	b538      	push	{r3, r4, r5, lr}
    NRFX_ASSERT(m_clock_cb.module_initialized);
    switch (domain)
    41ce:	b110      	cbz	r0, 41d6 <nrfx_clock_stop+0xa>
    41d0:	2801      	cmp	r0, #1
    41d2:	d018      	beq.n	4206 <nrfx_clock_stop+0x3a>
    if (domain == NRF_CLOCK_DOMAIN_HFCLK)
    {
            m_clock_cb.hfclk_started = false;
    }
#endif
}
    41d4:	bd38      	pop	{r3, r4, r5, pc}
    p_reg->INTENCLR = mask;
    41d6:	f04f 4380 	mov.w	r3, #1073741824	; 0x40000000
    41da:	2202      	movs	r2, #2
    41dc:	f8c3 2308 	str.w	r2, [r3, #776]	; 0x308
    *((volatile uint32_t *)((uint8_t *)p_reg + (uint32_t)event)) = 0x0UL;
    41e0:	4a18      	ldr	r2, [pc, #96]	; (4244 <nrfx_clock_stop+0x78>)
    41e2:	6010      	str	r0, [r2, #0]
    41e4:	6812      	ldr	r2, [r2, #0]
    *((volatile uint32_t *)((uint8_t *)p_reg + (uint32_t)task)) = 0x1UL;
    41e6:	4a18      	ldr	r2, [pc, #96]	; (4248 <nrfx_clock_stop+0x7c>)
    41e8:	2101      	movs	r1, #1
    41ea:	6011      	str	r1, [r2, #0]
    41ec:	f242 7510 	movw	r5, #10000	; 0x2710
            if ((p_reg->LFCLKSTAT & CLOCK_LFCLKSTAT_STATE_Msk)
    41f0:	461c      	mov	r4, r3
    41f2:	f8d4 3418 	ldr.w	r3, [r4, #1048]	; 0x418
    41f6:	03db      	lsls	r3, r3, #15
    41f8:	d5ec      	bpl.n	41d4 <nrfx_clock_stop+0x8>
        NRFX_WAIT_FOR(!nrfx_clock_is_running(domain, NULL), 10000, 1, stopped);
    41fa:	2001      	movs	r0, #1
    41fc:	f002 ff54 	bl	70a8 <nrfx_busy_wait>
    4200:	3d01      	subs	r5, #1
    4202:	d1f6      	bne.n	41f2 <nrfx_clock_stop+0x26>
    4204:	e7e6      	b.n	41d4 <nrfx_clock_stop+0x8>
    *((volatile uint32_t *)((uint8_t *)p_reg + (uint32_t)event)) = 0x0UL;
    4206:	4b11      	ldr	r3, [pc, #68]	; (424c <nrfx_clock_stop+0x80>)
    p_reg->INTENCLR = mask;
    4208:	f04f 4480 	mov.w	r4, #1073741824	; 0x40000000
    *((volatile uint32_t *)((uint8_t *)p_reg + (uint32_t)event)) = 0x0UL;
    420c:	2200      	movs	r2, #0
    p_reg->INTENCLR = mask;
    420e:	f8c4 0308 	str.w	r0, [r4, #776]	; 0x308
    *((volatile uint32_t *)((uint8_t *)p_reg + (uint32_t)event)) = 0x0UL;
    4212:	601a      	str	r2, [r3, #0]
    4214:	681b      	ldr	r3, [r3, #0]
    *((volatile uint32_t *)((uint8_t *)p_reg + (uint32_t)task)) = 0x1UL;
    4216:	4b0e      	ldr	r3, [pc, #56]	; (4250 <nrfx_clock_stop+0x84>)
    4218:	f242 7510 	movw	r5, #10000	; 0x2710
    421c:	6018      	str	r0, [r3, #0]
                    (nrf_clock_hfclk_t)((p_reg->HFCLKSTAT & CLOCK_HFCLKSTAT_SRC_Msk)
    421e:	f8d4 340c 	ldr.w	r3, [r4, #1036]	; 0x40c
            if ((p_reg->HFCLKSTAT & CLOCK_HFCLKSTAT_STATE_Msk)
    4222:	f8d4 240c 	ldr.w	r2, [r4, #1036]	; 0x40c
    4226:	03d2      	lsls	r2, r2, #15
                    (nrf_clock_hfclk_t)((p_reg->HFCLKSTAT & CLOCK_HFCLKSTAT_SRC_Msk)
    4228:	f003 0301 	and.w	r3, r3, #1
            if ((p_reg->HFCLKSTAT & CLOCK_HFCLKSTAT_STATE_Msk)
    422c:	d505      	bpl.n	423a <nrfx_clock_stop+0x6e>
        NRFX_WAIT_FOR((!nrfx_clock_is_running(domain, &clk_src) ||
    422e:	b123      	cbz	r3, 423a <nrfx_clock_stop+0x6e>
    4230:	2001      	movs	r0, #1
    4232:	f002 ff39 	bl	70a8 <nrfx_busy_wait>
    4236:	3d01      	subs	r5, #1
    4238:	d1f1      	bne.n	421e <nrfx_clock_stop+0x52>
            m_clock_cb.hfclk_started = false;
    423a:	4b06      	ldr	r3, [pc, #24]	; (4254 <nrfx_clock_stop+0x88>)
    423c:	2200      	movs	r2, #0
    423e:	715a      	strb	r2, [r3, #5]
    4240:	e7c8      	b.n	41d4 <nrfx_clock_stop+0x8>
    4242:	bf00      	nop
    4244:	40000104 	.word	0x40000104
    4248:	4000000c 	.word	0x4000000c
    424c:	40000100 	.word	0x40000100
    4250:	40000004 	.word	0x40000004
    4254:	20000c5c 	.word	0x20000c5c

00004258 <nrfx_power_clock_irq_handler>:
    return (bool)*((volatile uint32_t *)((uint8_t *)p_reg + event));
    4258:	4b16      	ldr	r3, [pc, #88]	; (42b4 <nrfx_power_clock_irq_handler+0x5c>)
    425a:	681a      	ldr	r2, [r3, #0]
    }
}
#endif

void nrfx_clock_irq_handler(void)
{
    425c:	b510      	push	{r4, lr}
    if (nrf_clock_event_check(NRF_CLOCK, NRF_CLOCK_EVENT_HFCLKSTARTED))
    425e:	b16a      	cbz	r2, 427c <nrfx_power_clock_irq_handler+0x24>
    *((volatile uint32_t *)((uint8_t *)p_reg + (uint32_t)event)) = 0x0UL;
    4260:	2200      	movs	r2, #0
    4262:	601a      	str	r2, [r3, #0]
    4264:	681b      	ldr	r3, [r3, #0]
    p_reg->INTENCLR = mask;
    4266:	f04f 4380 	mov.w	r3, #1073741824	; 0x40000000
    426a:	2201      	movs	r2, #1
    426c:	f8c3 2308 	str.w	r2, [r3, #776]	; 0x308
        nrf_clock_event_clear(NRF_CLOCK, NRF_CLOCK_EVENT_HFCLKSTARTED);
        NRFX_LOG_DEBUG("Event: NRF_CLOCK_EVENT_HFCLKSTARTED");
        nrf_clock_int_disable(NRF_CLOCK, NRF_CLOCK_INT_HF_STARTED_MASK);

#if NRFX_CHECK(USE_WORKAROUND_FOR_ANOMALY_201)
        if (!m_clock_cb.hfclk_started)
    4270:	4b11      	ldr	r3, [pc, #68]	; (42b8 <nrfx_power_clock_irq_handler+0x60>)
    4272:	7958      	ldrb	r0, [r3, #5]
    4274:	b910      	cbnz	r0, 427c <nrfx_power_clock_irq_handler+0x24>
        {
            m_clock_cb.hfclk_started = true;
    4276:	715a      	strb	r2, [r3, #5]
            m_clock_cb.event_handler(NRFX_CLOCK_EVT_HFCLK_STARTED);
    4278:	681b      	ldr	r3, [r3, #0]
    427a:	4798      	blx	r3
    return (bool)*((volatile uint32_t *)((uint8_t *)p_reg + event));
    427c:	4b0f      	ldr	r3, [pc, #60]	; (42bc <nrfx_power_clock_irq_handler+0x64>)
    427e:	681a      	ldr	r2, [r3, #0]
        }
#else
        m_clock_cb.event_handler(NRFX_CLOCK_EVT_HFCLK_STARTED);
#endif
    }
    if (nrf_clock_event_check(NRF_CLOCK, NRF_CLOCK_EVENT_LFCLKSTARTED))
    4280:	b172      	cbz	r2, 42a0 <nrfx_power_clock_irq_handler+0x48>
    *((volatile uint32_t *)((uint8_t *)p_reg + (uint32_t)event)) = 0x0UL;
    4282:	2200      	movs	r2, #0
    4284:	601a      	str	r2, [r3, #0]
    4286:	681b      	ldr	r3, [r3, #0]
                    (nrf_clock_lfclk_t)((p_reg->LFCLKSTAT & CLOCK_LFCLKSTAT_SRC_Msk)
    4288:	f04f 4380 	mov.w	r3, #1073741824	; 0x40000000
    428c:	f8d3 2418 	ldr.w	r2, [r3, #1048]	; 0x418
            if ((p_reg->LFCLKSTAT & CLOCK_LFCLKSTAT_STATE_Msk)
    4290:	f8d3 1418 	ldr.w	r1, [r3, #1048]	; 0x418
        NRFX_LOG_DEBUG("Event: NRF_CLOCK_EVENT_LFCLKSTARTED");

#if NRFX_CHECK(NRFX_CLOCK_CONFIG_LFXO_TWO_STAGE_ENABLED)
        nrf_clock_lfclk_t lfclksrc;
        (void)nrf_clock_is_running(NRF_CLOCK, NRF_CLOCK_DOMAIN_LFCLK, &lfclksrc);
        if (lfclksrc == NRF_CLOCK_LFCLK_RC)
    4294:	0792      	lsls	r2, r2, #30
    4296:	d104      	bne.n	42a2 <nrfx_power_clock_irq_handler+0x4a>
    p_reg->LFCLKSRC = (uint32_t)(source);
    4298:	2201      	movs	r2, #1
    429a:	f8c3 2518 	str.w	r2, [r3, #1304]	; 0x518
    *((volatile uint32_t *)((uint8_t *)p_reg + (uint32_t)task)) = 0x1UL;
    429e:	609a      	str	r2, [r3, #8]
        nrf_clock_int_disable(NRF_CLOCK, NRF_CLOCK_INT_HF192M_STARTED_MASK);

        m_clock_cb.event_handler(NRFX_CLOCK_EVT_HFCLK192M_STARTED);
    }
#endif
}
    42a0:	bd10      	pop	{r4, pc}
    p_reg->INTENCLR = mask;
    42a2:	2202      	movs	r2, #2
    42a4:	f8c3 2308 	str.w	r2, [r3, #776]	; 0x308
            m_clock_cb.event_handler(NRFX_CLOCK_EVT_LFCLK_STARTED);
    42a8:	4b03      	ldr	r3, [pc, #12]	; (42b8 <nrfx_power_clock_irq_handler+0x60>)
}
    42aa:	e8bd 4010 	ldmia.w	sp!, {r4, lr}
            m_clock_cb.event_handler(NRFX_CLOCK_EVT_LFCLK_STARTED);
    42ae:	681b      	ldr	r3, [r3, #0]
    42b0:	2001      	movs	r0, #1
    42b2:	4718      	bx	r3
    42b4:	40000100 	.word	0x40000100
    42b8:	20000c5c 	.word	0x20000c5c
    42bc:	40000104 	.word	0x40000104

000042c0 <nrfx_flag32_alloc>:
{
    return (mask & NRFX_BIT(bitpos)) ? false : true;
}

nrfx_err_t nrfx_flag32_alloc(nrfx_atomic_t * p_mask, uint8_t *p_flag)
{
    42c0:	b570      	push	{r4, r5, r6, lr}
        idx = 31 - NRF_CLZ(prev_mask);
        if (idx < 0) {
            return NRFX_ERROR_NO_MEM;
        }

        new_mask = prev_mask & ~NRFX_BIT(idx);
    42c2:	2501      	movs	r5, #1
        prev_mask = *p_mask;
    42c4:	6803      	ldr	r3, [r0, #0]
        idx = 31 - NRF_CLZ(prev_mask);
    42c6:	fab3 f283 	clz	r2, r3
        if (idx < 0) {
    42ca:	2a20      	cmp	r2, #32
        idx = 31 - NRF_CLZ(prev_mask);
    42cc:	f1c2 041f 	rsb	r4, r2, #31
        if (idx < 0) {
    42d0:	d014      	beq.n	42fc <nrfx_flag32_alloc+0x3c>
	return __atomic_compare_exchange_n(target, &old_value, new_value,
    42d2:	f3bf 8f5b 	dmb	ish
        new_mask = prev_mask & ~NRFX_BIT(idx);
    42d6:	fa05 f204 	lsl.w	r2, r5, r4
    42da:	ea23 0202 	bic.w	r2, r3, r2
    42de:	e850 6f00 	ldrex	r6, [r0]
    42e2:	429e      	cmp	r6, r3
    42e4:	d104      	bne.n	42f0 <nrfx_flag32_alloc+0x30>
    42e6:	e840 2c00 	strex	ip, r2, [r0]
    42ea:	f1bc 0f00 	cmp.w	ip, #0
    42ee:	d1f6      	bne.n	42de <nrfx_flag32_alloc+0x1e>
    42f0:	f3bf 8f5b 	dmb	ish
    } while (!NRFX_ATOMIC_CAS(p_mask, prev_mask, new_mask));
    42f4:	d1e6      	bne.n	42c4 <nrfx_flag32_alloc+0x4>

    *p_flag = idx;

    return NRFX_SUCCESS;
    42f6:	4802      	ldr	r0, [pc, #8]	; (4300 <nrfx_flag32_alloc+0x40>)
    *p_flag = idx;
    42f8:	700c      	strb	r4, [r1, #0]
}
    42fa:	bd70      	pop	{r4, r5, r6, pc}
            return NRFX_ERROR_NO_MEM;
    42fc:	4801      	ldr	r0, [pc, #4]	; (4304 <nrfx_flag32_alloc+0x44>)
    42fe:	e7fc      	b.n	42fa <nrfx_flag32_alloc+0x3a>
    4300:	0bad0000 	.word	0x0bad0000
    4304:	0bad0002 	.word	0x0bad0002

00004308 <nrfx_flag32_free>:

nrfx_err_t nrfx_flag32_free(nrfx_atomic_t * p_mask, uint8_t flag)
{
    uint32_t new_mask, prev_mask;

    if ((NRFX_BIT(flag) & *p_mask))
    4308:	6803      	ldr	r3, [r0, #0]
    430a:	40cb      	lsrs	r3, r1
    430c:	07db      	lsls	r3, r3, #31
{
    430e:	b510      	push	{r4, lr}
    if ((NRFX_BIT(flag) & *p_mask))
    4310:	d415      	bmi.n	433e <nrfx_flag32_free+0x36>
        return NRFX_ERROR_INVALID_PARAM;
    }

    do {
        prev_mask = *p_mask;
        new_mask = prev_mask | NRFX_BIT(flag);
    4312:	2301      	movs	r3, #1
    4314:	fa03 f101 	lsl.w	r1, r3, r1
        prev_mask = *p_mask;
    4318:	6803      	ldr	r3, [r0, #0]
    431a:	f3bf 8f5b 	dmb	ish
        new_mask = prev_mask | NRFX_BIT(flag);
    431e:	ea41 0203 	orr.w	r2, r1, r3
    4322:	e850 4f00 	ldrex	r4, [r0]
    4326:	429c      	cmp	r4, r3
    4328:	d104      	bne.n	4334 <nrfx_flag32_free+0x2c>
    432a:	e840 2c00 	strex	ip, r2, [r0]
    432e:	f1bc 0f00 	cmp.w	ip, #0
    4332:	d1f6      	bne.n	4322 <nrfx_flag32_free+0x1a>
    4334:	f3bf 8f5b 	dmb	ish
    } while (!NRFX_ATOMIC_CAS(p_mask, prev_mask, new_mask));
    4338:	d1ee      	bne.n	4318 <nrfx_flag32_free+0x10>

    return NRFX_SUCCESS;
    433a:	4802      	ldr	r0, [pc, #8]	; (4344 <nrfx_flag32_free+0x3c>)
}
    433c:	bd10      	pop	{r4, pc}
        return NRFX_ERROR_INVALID_PARAM;
    433e:	4802      	ldr	r0, [pc, #8]	; (4348 <nrfx_flag32_free+0x40>)
    4340:	e7fc      	b.n	433c <nrfx_flag32_free+0x34>
    4342:	bf00      	nop
    4344:	0bad0000 	.word	0x0bad0000
    4348:	0bad0004 	.word	0x0bad0004

0000434c <nrf_gpio_pin_port_decode>:
    uint32_t pin_number = *p_pin;
    434c:	6803      	ldr	r3, [r0, #0]
    *p_pin = pin_number & 0x1F;
    434e:	f003 021f 	and.w	r2, r3, #31
    return pin_number >> 5;
    4352:	095b      	lsrs	r3, r3, #5
    switch (nrf_gpio_pin_port_number_extract(p_pin))
    4354:	2b01      	cmp	r3, #1
    *p_pin = pin_number & 0x1F;
    4356:	6002      	str	r2, [r0, #0]
}
    4358:	4802      	ldr	r0, [pc, #8]	; (4364 <nrf_gpio_pin_port_decode+0x18>)
    435a:	bf18      	it	ne
    435c:	f04f 40a0 	movne.w	r0, #1342177280	; 0x50000000
    4360:	4770      	bx	lr
    4362:	bf00      	nop
    4364:	50000300 	.word	0x50000300

00004368 <call_handler>:
    nrf_gpiote_event_t event = nrfx_gpiote_in_event_get(pin);
    return nrf_gpiote_event_address_get(NRF_GPIOTE, event);
}

static void call_handler(nrfx_gpiote_pin_t pin, nrfx_gpiote_trigger_t trigger)
{
    4368:	b570      	push	{r4, r5, r6, lr}
    int32_t handler_id = PIN_GET_HANDLER_ID(m_cb.pin_flags[pin]);
    436a:	f100 0308 	add.w	r3, r0, #8
    436e:	4c0c      	ldr	r4, [pc, #48]	; (43a0 <call_handler+0x38>)
    4370:	f834 3013 	ldrh.w	r3, [r4, r3, lsl #1]
    4374:	05da      	lsls	r2, r3, #23
{
    4376:	4605      	mov	r5, r0
    4378:	460e      	mov	r6, r1
    int32_t handler_id = PIN_GET_HANDLER_ID(m_cb.pin_flags[pin]);
    437a:	d507      	bpl.n	438c <call_handler+0x24>
    437c:	f3c3 2343 	ubfx	r3, r3, #9, #4
    nrfx_gpiote_handler_config_t const * handler = channel_handler_get(pin);

    if (handler)
    {
        handler->handler(pin, trigger, handler->p_context);
    4380:	eb04 02c3 	add.w	r2, r4, r3, lsl #3
    4384:	f854 3033 	ldr.w	r3, [r4, r3, lsl #3]
    4388:	6852      	ldr	r2, [r2, #4]
    438a:	4798      	blx	r3
    }
    if (m_cb.global_handler.handler)
    438c:	68a3      	ldr	r3, [r4, #8]
    438e:	b12b      	cbz	r3, 439c <call_handler+0x34>
    {
        m_cb.global_handler.handler(pin, trigger, m_cb.global_handler.p_context);
    4390:	68e2      	ldr	r2, [r4, #12]
    4392:	4631      	mov	r1, r6
    4394:	4628      	mov	r0, r5
    }
}
    4396:	e8bd 4070 	ldmia.w	sp!, {r4, r5, r6, lr}
        m_cb.global_handler.handler(pin, trigger, m_cb.global_handler.p_context);
    439a:	4718      	bx	r3
}
    439c:	bd70      	pop	{r4, r5, r6, pc}
    439e:	bf00      	nop
    43a0:	20000128 	.word	0x20000128

000043a4 <release_handler>:
    int32_t handler_id = PIN_GET_HANDLER_ID(m_cb.pin_flags[pin]);
    43a4:	4b12      	ldr	r3, [pc, #72]	; (43f0 <release_handler+0x4c>)
    43a6:	3008      	adds	r0, #8
{
    43a8:	b410      	push	{r4}
    int32_t handler_id = PIN_GET_HANDLER_ID(m_cb.pin_flags[pin]);
    43aa:	f833 2010 	ldrh.w	r2, [r3, r0, lsl #1]
    43ae:	05d1      	lsls	r1, r2, #23
    43b0:	d51b      	bpl.n	43ea <release_handler+0x46>
    43b2:	f3c2 2143 	ubfx	r1, r2, #9, #4
    m_cb.pin_flags[pin] &= ~PIN_HANDLER_MASK;
    43b6:	f422 52f8 	bic.w	r2, r2, #7936	; 0x1f00
    43ba:	f823 2010 	strh.w	r2, [r3, r0, lsl #1]
    for (uint32_t i = 0; i < MAX_PIN_NUMBER; i++)
    43be:	f103 0410 	add.w	r4, r3, #16
    43c2:	2000      	movs	r0, #0
        if (PIN_GET_HANDLER_ID(m_cb.pin_flags[i]) == handler_id)
    43c4:	f834 2b02 	ldrh.w	r2, [r4], #2
    43c8:	f412 7f80 	tst.w	r2, #256	; 0x100
    43cc:	d003      	beq.n	43d6 <release_handler+0x32>
    43ce:	f3c2 2243 	ubfx	r2, r2, #9, #4
    43d2:	4291      	cmp	r1, r2
    43d4:	d009      	beq.n	43ea <release_handler+0x46>
    for (uint32_t i = 0; i < MAX_PIN_NUMBER; i++)
    43d6:	3001      	adds	r0, #1
    43d8:	2830      	cmp	r0, #48	; 0x30
    43da:	d1f3      	bne.n	43c4 <release_handler+0x20>
        m_cb.handlers[handler_id].handler = NULL;
    43dc:	2200      	movs	r2, #0
    43de:	f843 2031 	str.w	r2, [r3, r1, lsl #3]
        nrfx_err_t err = nrfx_flag32_free(&m_cb.available_evt_handlers, handler_id);
    43e2:	4804      	ldr	r0, [pc, #16]	; (43f4 <release_handler+0x50>)
}
    43e4:	bc10      	pop	{r4}
        nrfx_err_t err = nrfx_flag32_free(&m_cb.available_evt_handlers, handler_id);
    43e6:	f7ff bf8f 	b.w	4308 <nrfx_flag32_free>
}
    43ea:	bc10      	pop	{r4}
    43ec:	4770      	bx	lr
    43ee:	bf00      	nop
    43f0:	20000128 	.word	0x20000128
    43f4:	2000019c 	.word	0x2000019c

000043f8 <pin_handler_trigger_uninit>:
{
    43f8:	b538      	push	{r3, r4, r5, lr}
    return m_cb.pin_flags[pin] & PIN_FLAG_TE_USED;
    43fa:	4c0a      	ldr	r4, [pc, #40]	; (4424 <pin_handler_trigger_uninit+0x2c>)
    43fc:	f100 0508 	add.w	r5, r0, #8
    4400:	f834 3015 	ldrh.w	r3, [r4, r5, lsl #1]
    if (pin_in_use_by_te(pin))
    4404:	069a      	lsls	r2, r3, #26
    4406:	d506      	bpl.n	4416 <pin_handler_trigger_uninit+0x1e>
        nrf_gpiote_te_default(NRF_GPIOTE, pin_te_get(pin));
    4408:	0b5b      	lsrs	r3, r3, #13
                         ((init_val << GPIOTE_CONFIG_OUTINIT_Pos) & GPIOTE_CONFIG_OUTINIT_Msk);
}

NRF_STATIC_INLINE void nrf_gpiote_te_default(NRF_GPIOTE_Type * p_reg, uint32_t idx)
{
    p_reg->CONFIG[idx] = 0;
    440a:	4a07      	ldr	r2, [pc, #28]	; (4428 <pin_handler_trigger_uninit+0x30>)
    440c:	f503 73a2 	add.w	r3, r3, #324	; 0x144
    4410:	2100      	movs	r1, #0
    4412:	f842 1023 	str.w	r1, [r2, r3, lsl #2]
    release_handler(pin);
    4416:	f7ff ffc5 	bl	43a4 <release_handler>
    m_cb.pin_flags[pin] = PIN_FLAG_NOT_USED;
    441a:	2300      	movs	r3, #0
    441c:	f824 3015 	strh.w	r3, [r4, r5, lsl #1]
}
    4420:	bd38      	pop	{r3, r4, r5, pc}
    4422:	bf00      	nop
    4424:	20000128 	.word	0x20000128
    4428:	40006000 	.word	0x40006000

0000442c <nrfx_gpiote_input_configure>:
{
    442c:	e92d 41ff 	stmdb	sp!, {r0, r1, r2, r3, r4, r5, r6, r7, r8, lr}
    4430:	461d      	mov	r5, r3
    4432:	4604      	mov	r4, r0
    4434:	4617      	mov	r7, r2
    if (p_input_config)
    4436:	460b      	mov	r3, r1
    4438:	b309      	cbz	r1, 447e <nrfx_gpiote_input_configure+0x52>
    return PIN_FLAG_IS_OUTPUT(m_cb.pin_flags[pin]);
    443a:	4e4d      	ldr	r6, [pc, #308]	; (4570 <nrfx_gpiote_input_configure+0x144>)
    443c:	f100 0808 	add.w	r8, r0, #8
        if (pin_is_task_output(pin))
    4440:	f836 2018 	ldrh.w	r2, [r6, r8, lsl #1]
    4444:	f002 0222 	and.w	r2, r2, #34	; 0x22
    4448:	2a22      	cmp	r2, #34	; 0x22
    444a:	d103      	bne.n	4454 <nrfx_gpiote_input_configure+0x28>
                return NRFX_ERROR_INVALID_PARAM;
    444c:	4849      	ldr	r0, [pc, #292]	; (4574 <nrfx_gpiote_input_configure+0x148>)
}
    444e:	b004      	add	sp, #16
    4450:	e8bd 81f0 	ldmia.w	sp!, {r4, r5, r6, r7, r8, pc}
        nrf_gpio_pin_dir_t dir = NRF_GPIO_PIN_DIR_INPUT;
    4454:	2200      	movs	r2, #0
        nrf_gpio_reconfigure(pin, &dir, &input_connect, &p_input_config->pull, NULL, NULL);
    4456:	e9cd 2200 	strd	r2, r2, [sp]
        nrf_gpio_pin_dir_t dir = NRF_GPIO_PIN_DIR_INPUT;
    445a:	f88d 200e 	strb.w	r2, [sp, #14]
        nrf_gpio_pin_input_t input_connect = NRF_GPIO_PIN_INPUT_CONNECT;
    445e:	f88d 200f 	strb.w	r2, [sp, #15]
        nrf_gpio_reconfigure(pin, &dir, &input_connect, &p_input_config->pull, NULL, NULL);
    4462:	f10d 010e 	add.w	r1, sp, #14
    4466:	f10d 020f 	add.w	r2, sp, #15
    446a:	f002 fe1f 	bl	70ac <nrf_gpio_reconfigure>
        m_cb.pin_flags[pin] &= ~PIN_FLAG_OUTPUT;
    446e:	f836 3018 	ldrh.w	r3, [r6, r8, lsl #1]
    4472:	f023 0302 	bic.w	r3, r3, #2
        m_cb.pin_flags[pin] |= PIN_FLAG_IN_USE;
    4476:	f043 0301 	orr.w	r3, r3, #1
    447a:	f826 3018 	strh.w	r3, [r6, r8, lsl #1]
    if (p_trigger_config)
    447e:	b197      	cbz	r7, 44a6 <nrfx_gpiote_input_configure+0x7a>
    return PIN_FLAG_IS_OUTPUT(m_cb.pin_flags[pin]);
    4480:	483b      	ldr	r0, [pc, #236]	; (4570 <nrfx_gpiote_input_configure+0x144>)
        nrfx_gpiote_trigger_t trigger = p_trigger_config->trigger;
    4482:	783e      	ldrb	r6, [r7, #0]
        bool use_evt = p_trigger_config->p_in_channel ? true : false;
    4484:	687a      	ldr	r2, [r7, #4]
    return PIN_FLAG_IS_OUTPUT(m_cb.pin_flags[pin]);
    4486:	f104 0308 	add.w	r3, r4, #8
    448a:	f830 1013 	ldrh.w	r1, [r0, r3, lsl #1]
        if (pin_is_output(pin))
    448e:	078f      	lsls	r7, r1, #30
    4490:	d50c      	bpl.n	44ac <nrfx_gpiote_input_configure+0x80>
            if (use_evt)
    4492:	2a00      	cmp	r2, #0
    4494:	d1da      	bne.n	444c <nrfx_gpiote_input_configure+0x20>
        m_cb.pin_flags[pin] &= ~PIN_FLAG_TRIG_MODE_MASK;
    4496:	f830 2013 	ldrh.w	r2, [r0, r3, lsl #1]
    449a:	f022 021c 	bic.w	r2, r2, #28
        m_cb.pin_flags[pin] |= PIN_FLAG_TRIG_MODE_SET(trigger);
    449e:	ea42 0286 	orr.w	r2, r2, r6, lsl #2
    44a2:	f820 2013 	strh.w	r2, [r0, r3, lsl #1]
    if (p_handler_config)
    44a6:	bbcd      	cbnz	r5, 451c <nrfx_gpiote_input_configure+0xf0>
    return NRFX_SUCCESS;
    44a8:	4833      	ldr	r0, [pc, #204]	; (4578 <nrfx_gpiote_input_configure+0x14c>)
    44aa:	e7d0      	b.n	444e <nrfx_gpiote_input_configure+0x22>
            m_cb.pin_flags[pin] &= ~(PIN_TE_ID_MASK | PIN_FLAG_TE_USED);
    44ac:	f021 0120 	bic.w	r1, r1, #32
    44b0:	04c9      	lsls	r1, r1, #19
    44b2:	0cc9      	lsrs	r1, r1, #19
    44b4:	f820 1013 	strh.w	r1, [r0, r3, lsl #1]
            if (use_evt)
    44b8:	2a00      	cmp	r2, #0
    44ba:	d0ec      	beq.n	4496 <nrfx_gpiote_input_configure+0x6a>
                if (!edge)
    44bc:	2e03      	cmp	r6, #3
    44be:	d8c5      	bhi.n	444c <nrfx_gpiote_input_configure+0x20>
                uint8_t ch = *p_trigger_config->p_in_channel;
    44c0:	7817      	ldrb	r7, [r2, #0]
                if (trigger == NRFX_GPIOTE_TRIGGER_NONE)
    44c2:	b92e      	cbnz	r6, 44d0 <nrfx_gpiote_input_configure+0xa4>
    44c4:	4a2d      	ldr	r2, [pc, #180]	; (457c <nrfx_gpiote_input_configure+0x150>)
    44c6:	f507 71a2 	add.w	r1, r7, #324	; 0x144
    44ca:	f842 6021 	str.w	r6, [r2, r1, lsl #2]
#if defined(NRF9160_XXAA) || defined(NRF5340_XXAA)
    p_reg->CONFIG[idx] = 0;
#endif
}
    44ce:	e7e2      	b.n	4496 <nrfx_gpiote_input_configure+0x6a>
   p_reg->CONFIG[idx] &= ~GPIOTE_CONFIG_MODE_Msk;
    44d0:	00ba      	lsls	r2, r7, #2
    44d2:	f102 4280 	add.w	r2, r2, #1073741824	; 0x40000000
    44d6:	f502 42c0 	add.w	r2, r2, #24576	; 0x6000
  p_reg->CONFIG[idx] |= ((pin << GPIOTE_CONFIG_PSEL_Pos) & GPIOTE_CONFIG_PORT_PIN_Msk) |
    44da:	ea4f 2e04 	mov.w	lr, r4, lsl #8
   p_reg->CONFIG[idx] &= ~GPIOTE_CONFIG_MODE_Msk;
    44de:	f8d2 c510 	ldr.w	ip, [r2, #1296]	; 0x510
    44e2:	f02c 0c03 	bic.w	ip, ip, #3
    44e6:	f8c2 c510 	str.w	ip, [r2, #1296]	; 0x510
  p_reg->CONFIG[idx] &= ~(GPIOTE_CONFIG_PORT_PIN_Msk | GPIOTE_CONFIG_POLARITY_Msk);
    44ea:	f8d2 c510 	ldr.w	ip, [r2, #1296]	; 0x510
    44ee:	f42c 3c4f 	bic.w	ip, ip, #211968	; 0x33c00
    44f2:	f42c 7c40 	bic.w	ip, ip, #768	; 0x300
    44f6:	f8c2 c510 	str.w	ip, [r2, #1296]	; 0x510
  p_reg->CONFIG[idx] |= ((pin << GPIOTE_CONFIG_PSEL_Pos) & GPIOTE_CONFIG_PORT_PIN_Msk) |
    44fa:	f8d2 c510 	ldr.w	ip, [r2, #1296]	; 0x510
    44fe:	f40e 5e7c 	and.w	lr, lr, #16128	; 0x3f00
    4502:	ea4c 4c06 	orr.w	ip, ip, r6, lsl #16
                    m_cb.pin_flags[pin] |= PIN_FLAG_TE_ID(ch);
    4506:	ea41 3147 	orr.w	r1, r1, r7, lsl #13
    450a:	ea4c 0c0e 	orr.w	ip, ip, lr
    450e:	f041 0120 	orr.w	r1, r1, #32
    4512:	f820 1013 	strh.w	r1, [r0, r3, lsl #1]
    4516:	f8c2 c510 	str.w	ip, [r2, #1296]	; 0x510
    451a:	e7bc      	b.n	4496 <nrfx_gpiote_input_configure+0x6a>
        err = pin_handler_set(pin, p_handler_config->handler, p_handler_config->p_context);
    451c:	e9d5 6700 	ldrd	r6, r7, [r5]
    release_handler(pin);
    4520:	4620      	mov	r0, r4
    4522:	f7ff ff3f 	bl	43a4 <release_handler>
    if (!handler)
    4526:	2e00      	cmp	r6, #0
    4528:	d0be      	beq.n	44a8 <nrfx_gpiote_input_configure+0x7c>
        if ((m_cb.handlers[i].handler == handler) && (m_cb.handlers[i].p_context == p_context))
    452a:	4d11      	ldr	r5, [pc, #68]	; (4570 <nrfx_gpiote_input_configure+0x144>)
    452c:	682b      	ldr	r3, [r5, #0]
    452e:	429e      	cmp	r6, r3
    4530:	d104      	bne.n	453c <nrfx_gpiote_input_configure+0x110>
    4532:	686b      	ldr	r3, [r5, #4]
    4534:	429f      	cmp	r7, r3
    4536:	d101      	bne.n	453c <nrfx_gpiote_input_configure+0x110>
    4538:	2200      	movs	r2, #0
    453a:	e009      	b.n	4550 <nrfx_gpiote_input_configure+0x124>
        err = nrfx_flag32_alloc(&m_cb.available_evt_handlers, &id);
    453c:	4810      	ldr	r0, [pc, #64]	; (4580 <nrfx_gpiote_input_configure+0x154>)
    453e:	f10d 010f 	add.w	r1, sp, #15
    4542:	f7ff febd 	bl	42c0 <nrfx_flag32_alloc>
        if (err != NRFX_SUCCESS)
    4546:	4b0c      	ldr	r3, [pc, #48]	; (4578 <nrfx_gpiote_input_configure+0x14c>)
    4548:	4298      	cmp	r0, r3
    454a:	d180      	bne.n	444e <nrfx_gpiote_input_configure+0x22>
        handler_id = (int32_t)id;
    454c:	f89d 200f 	ldrb.w	r2, [sp, #15]
    m_cb.handlers[handler_id].handler = handler;
    4550:	f845 6032 	str.w	r6, [r5, r2, lsl #3]
    m_cb.handlers[handler_id].p_context = p_context;
    4554:	eb05 03c2 	add.w	r3, r5, r2, lsl #3
    m_cb.pin_flags[pin] |= PIN_FLAG_HANDLER(handler_id);
    4558:	3408      	adds	r4, #8
    m_cb.handlers[handler_id].p_context = p_context;
    455a:	605f      	str	r7, [r3, #4]
    m_cb.pin_flags[pin] |= PIN_FLAG_HANDLER(handler_id);
    455c:	f835 3014 	ldrh.w	r3, [r5, r4, lsl #1]
    4560:	ea43 2342 	orr.w	r3, r3, r2, lsl #9
    4564:	f443 7380 	orr.w	r3, r3, #256	; 0x100
    4568:	f825 3014 	strh.w	r3, [r5, r4, lsl #1]
    456c:	e79c      	b.n	44a8 <nrfx_gpiote_input_configure+0x7c>
    456e:	bf00      	nop
    4570:	20000128 	.word	0x20000128
    4574:	0bad0004 	.word	0x0bad0004
    4578:	0bad0000 	.word	0x0bad0000
    457c:	40006000 	.word	0x40006000
    4580:	2000019c 	.word	0x2000019c

00004584 <nrfx_gpiote_output_configure>:
{
    4584:	b5f0      	push	{r4, r5, r6, r7, lr}
    4586:	4604      	mov	r4, r0
    4588:	b085      	sub	sp, #20
    458a:	4615      	mov	r5, r2
    if (p_config)
    458c:	b309      	cbz	r1, 45d2 <nrfx_gpiote_output_configure+0x4e>
    return PIN_FLAG_IS_OUTPUT(m_cb.pin_flags[pin]);
    458e:	f100 0708 	add.w	r7, r0, #8
    4592:	4e31      	ldr	r6, [pc, #196]	; (4658 <nrfx_gpiote_output_configure+0xd4>)
    4594:	f836 3017 	ldrh.w	r3, [r6, r7, lsl #1]
        if (pin_is_input(pin) && pin_in_use_by_te(pin))
    4598:	0798      	lsls	r0, r3, #30
    459a:	d401      	bmi.n	45a0 <nrfx_gpiote_output_configure+0x1c>
    459c:	069a      	lsls	r2, r3, #26
    459e:	d458      	bmi.n	4652 <nrfx_gpiote_output_configure+0xce>
        if (pin_has_trigger(pin) && (p_config->input_connect == NRF_GPIO_PIN_INPUT_DISCONNECT))
    45a0:	f013 0f1c 	tst.w	r3, #28
    45a4:	d002      	beq.n	45ac <nrfx_gpiote_output_configure+0x28>
    45a6:	784b      	ldrb	r3, [r1, #1]
    45a8:	2b01      	cmp	r3, #1
    45aa:	d052      	beq.n	4652 <nrfx_gpiote_output_configure+0xce>
        nrf_gpio_pin_dir_t dir = NRF_GPIO_PIN_DIR_OUTPUT;
    45ac:	2301      	movs	r3, #1
    45ae:	f88d 300f 	strb.w	r3, [sp, #15]
        nrf_gpio_reconfigure(pin, &dir, &p_config->input_connect, &p_config->pull,
    45b2:	2300      	movs	r3, #0
    45b4:	e9cd 1300 	strd	r1, r3, [sp]
    45b8:	1c4a      	adds	r2, r1, #1
    45ba:	1c8b      	adds	r3, r1, #2
    45bc:	4620      	mov	r0, r4
    45be:	f10d 010f 	add.w	r1, sp, #15
    45c2:	f002 fd73 	bl	70ac <nrf_gpio_reconfigure>
        m_cb.pin_flags[pin] |= PIN_FLAG_IN_USE | PIN_FLAG_OUTPUT;
    45c6:	f836 3017 	ldrh.w	r3, [r6, r7, lsl #1]
    45ca:	f043 0303 	orr.w	r3, r3, #3
    45ce:	f826 3017 	strh.w	r3, [r6, r7, lsl #1]
    if (p_task_config)
    45d2:	b915      	cbnz	r5, 45da <nrfx_gpiote_output_configure+0x56>
    return NRFX_SUCCESS;
    45d4:	4821      	ldr	r0, [pc, #132]	; (465c <nrfx_gpiote_output_configure+0xd8>)
}
    45d6:	b005      	add	sp, #20
    45d8:	bdf0      	pop	{r4, r5, r6, r7, pc}
    return PIN_FLAG_IS_OUTPUT(m_cb.pin_flags[pin]);
    45da:	4e1f      	ldr	r6, [pc, #124]	; (4658 <nrfx_gpiote_output_configure+0xd4>)
    45dc:	f104 0708 	add.w	r7, r4, #8
    45e0:	f836 0017 	ldrh.w	r0, [r6, r7, lsl #1]
        if (pin_is_input(pin))
    45e4:	0783      	lsls	r3, r0, #30
    45e6:	d534      	bpl.n	4652 <nrfx_gpiote_output_configure+0xce>
        uint32_t ch = p_task_config->task_ch;
    45e8:	f895 c000 	ldrb.w	ip, [r5]
    p_reg->CONFIG[idx] = 0;
    45ec:	4661      	mov	r1, ip
    45ee:	0089      	lsls	r1, r1, #2
        m_cb.pin_flags[pin] &= ~(PIN_FLAG_TE_USED | PIN_TE_ID_MASK);
    45f0:	f020 0020 	bic.w	r0, r0, #32
    45f4:	f101 4180 	add.w	r1, r1, #1073741824	; 0x40000000
    45f8:	04c0      	lsls	r0, r0, #19
    45fa:	f501 41c0 	add.w	r1, r1, #24576	; 0x6000
    45fe:	0cc0      	lsrs	r0, r0, #19
    4600:	f826 0017 	strh.w	r0, [r6, r7, lsl #1]
    4604:	2300      	movs	r3, #0
    4606:	f8c1 3510 	str.w	r3, [r1, #1296]	; 0x510
        if (p_task_config->polarity != NRF_GPIOTE_POLARITY_NONE)
    460a:	786a      	ldrb	r2, [r5, #1]
    460c:	2a00      	cmp	r2, #0
    460e:	d0e1      	beq.n	45d4 <nrfx_gpiote_output_configure+0x50>
  p_reg->CONFIG[idx] &= ~(GPIOTE_CONFIG_PORT_PIN_Msk |
    4610:	f8d1 3510 	ldr.w	r3, [r1, #1296]	; 0x510
            nrf_gpiote_task_configure(NRF_GPIOTE, ch, pin,
    4614:	78ad      	ldrb	r5, [r5, #2]
    4616:	f423 1399 	bic.w	r3, r3, #1253376	; 0x132000
    461a:	f423 53f8 	bic.w	r3, r3, #7936	; 0x1f00
    461e:	f8c1 3510 	str.w	r3, [r1, #1296]	; 0x510
  p_reg->CONFIG[idx] |= ((pin << GPIOTE_CONFIG_PSEL_Pos) & GPIOTE_CONFIG_PORT_PIN_Msk) |
    4622:	f8d1 e510 	ldr.w	lr, [r1, #1296]	; 0x510
    4626:	0223      	lsls	r3, r4, #8
    4628:	f403 537c 	and.w	r3, r3, #16128	; 0x3f00
                        ((polarity << GPIOTE_CONFIG_POLARITY_Pos) & GPIOTE_CONFIG_POLARITY_Msk) |
    462c:	0412      	lsls	r2, r2, #16
  p_reg->CONFIG[idx] |= ((pin << GPIOTE_CONFIG_PSEL_Pos) & GPIOTE_CONFIG_PORT_PIN_Msk) |
    462e:	ea43 030e 	orr.w	r3, r3, lr
                        ((polarity << GPIOTE_CONFIG_POLARITY_Pos) & GPIOTE_CONFIG_POLARITY_Msk) |
    4632:	f402 3240 	and.w	r2, r2, #196608	; 0x30000
                        ((init_val << GPIOTE_CONFIG_OUTINIT_Pos) & GPIOTE_CONFIG_OUTINIT_Msk);
    4636:	052d      	lsls	r5, r5, #20
  p_reg->CONFIG[idx] |= ((pin << GPIOTE_CONFIG_PSEL_Pos) & GPIOTE_CONFIG_PORT_PIN_Msk) |
    4638:	4313      	orrs	r3, r2
                        ((init_val << GPIOTE_CONFIG_OUTINIT_Pos) & GPIOTE_CONFIG_OUTINIT_Msk);
    463a:	f405 1580 	and.w	r5, r5, #1048576	; 0x100000
            m_cb.pin_flags[pin] |= PIN_FLAG_TE_ID(ch);
    463e:	ea40 304c 	orr.w	r0, r0, ip, lsl #13
  p_reg->CONFIG[idx] |= ((pin << GPIOTE_CONFIG_PSEL_Pos) & GPIOTE_CONFIG_PORT_PIN_Msk) |
    4642:	432b      	orrs	r3, r5
    4644:	f040 0020 	orr.w	r0, r0, #32
    4648:	f826 0017 	strh.w	r0, [r6, r7, lsl #1]
    464c:	f8c1 3510 	str.w	r3, [r1, #1296]	; 0x510
    4650:	e7c0      	b.n	45d4 <nrfx_gpiote_output_configure+0x50>
            return NRFX_ERROR_INVALID_PARAM;
    4652:	4803      	ldr	r0, [pc, #12]	; (4660 <nrfx_gpiote_output_configure+0xdc>)
    4654:	e7bf      	b.n	45d6 <nrfx_gpiote_output_configure+0x52>
    4656:	bf00      	nop
    4658:	20000128 	.word	0x20000128
    465c:	0bad0000 	.word	0x0bad0000
    4660:	0bad0004 	.word	0x0bad0004

00004664 <nrfx_gpiote_global_callback_set>:
    m_cb.global_handler.handler = handler;
    4664:	4b01      	ldr	r3, [pc, #4]	; (466c <nrfx_gpiote_global_callback_set+0x8>)
    m_cb.global_handler.p_context = p_context;
    4666:	e9c3 0102 	strd	r0, r1, [r3, #8]
}
    466a:	4770      	bx	lr
    466c:	20000128 	.word	0x20000128

00004670 <nrfx_gpiote_channel_get>:
    return m_cb.pin_flags[pin] & PIN_FLAG_TE_USED;
    4670:	3008      	adds	r0, #8
    4672:	4b05      	ldr	r3, [pc, #20]	; (4688 <nrfx_gpiote_channel_get+0x18>)
    4674:	f833 3010 	ldrh.w	r3, [r3, r0, lsl #1]
    if (pin_in_use_by_te(pin))
    4678:	069a      	lsls	r2, r3, #26
        *p_channel = PIN_GET_TE_ID(m_cb.pin_flags[pin]);
    467a:	bf43      	ittte	mi
    467c:	0b5b      	lsrmi	r3, r3, #13
        return NRFX_SUCCESS;
    467e:	4803      	ldrmi	r0, [pc, #12]	; (468c <nrfx_gpiote_channel_get+0x1c>)
        *p_channel = PIN_GET_TE_ID(m_cb.pin_flags[pin]);
    4680:	700b      	strbmi	r3, [r1, #0]
        return NRFX_ERROR_INVALID_PARAM;
    4682:	4803      	ldrpl	r0, [pc, #12]	; (4690 <nrfx_gpiote_channel_get+0x20>)
}
    4684:	4770      	bx	lr
    4686:	bf00      	nop
    4688:	20000128 	.word	0x20000128
    468c:	0bad0000 	.word	0x0bad0000
    4690:	0bad0004 	.word	0x0bad0004

00004694 <nrfx_gpiote_init>:
{
    4694:	b538      	push	{r3, r4, r5, lr}
    if (m_cb.state != NRFX_DRV_STATE_UNINITIALIZED)
    4696:	4c0e      	ldr	r4, [pc, #56]	; (46d0 <nrfx_gpiote_init+0x3c>)
    4698:	f894 5078 	ldrb.w	r5, [r4, #120]	; 0x78
    469c:	b9b5      	cbnz	r5, 46cc <nrfx_gpiote_init+0x38>
    memset(m_cb.pin_flags, 0, sizeof(m_cb.pin_flags));
    469e:	2260      	movs	r2, #96	; 0x60
    46a0:	4629      	mov	r1, r5
    46a2:	f104 0010 	add.w	r0, r4, #16
    46a6:	f002 fa11 	bl	6acc <memset>
    NRFX_IRQ_ENABLE(nrfx_get_irq_number(NRF_GPIOTE));
    46aa:	2006      	movs	r0, #6
    46ac:	f7fd ffdc 	bl	2668 <arch_irq_enable>
    *((volatile uint32_t *)nrf_gpiote_event_address_get(p_reg, event)) = 0;
    46b0:	4b08      	ldr	r3, [pc, #32]	; (46d4 <nrfx_gpiote_init+0x40>)
    return err_code;
    46b2:	4809      	ldr	r0, [pc, #36]	; (46d8 <nrfx_gpiote_init+0x44>)
    46b4:	601d      	str	r5, [r3, #0]
    46b6:	681b      	ldr	r3, [r3, #0]
    p_reg->INTENSET = mask;
    46b8:	4b08      	ldr	r3, [pc, #32]	; (46dc <nrfx_gpiote_init+0x48>)
    46ba:	f04f 4200 	mov.w	r2, #2147483648	; 0x80000000
    46be:	f8c3 2304 	str.w	r2, [r3, #772]	; 0x304
    m_cb.state = NRFX_DRV_STATE_INITIALIZED;
    46c2:	2301      	movs	r3, #1
    46c4:	f884 3078 	strb.w	r3, [r4, #120]	; 0x78
    m_cb.available_evt_handlers = NRFX_BIT_MASK(NRFX_GPIOTE_CONFIG_NUM_OF_EVT_HANDLERS);
    46c8:	6763      	str	r3, [r4, #116]	; 0x74
}
    46ca:	bd38      	pop	{r3, r4, r5, pc}
        return err_code;
    46cc:	4804      	ldr	r0, [pc, #16]	; (46e0 <nrfx_gpiote_init+0x4c>)
    46ce:	e7fc      	b.n	46ca <nrfx_gpiote_init+0x36>
    46d0:	20000128 	.word	0x20000128
    46d4:	4000617c 	.word	0x4000617c
    46d8:	0bad0000 	.word	0x0bad0000
    46dc:	40006000 	.word	0x40006000
    46e0:	0bad0005 	.word	0x0bad0005

000046e4 <nrfx_gpiote_is_init>:
    return (m_cb.state != NRFX_DRV_STATE_UNINITIALIZED) ? true : false;
    46e4:	4b03      	ldr	r3, [pc, #12]	; (46f4 <nrfx_gpiote_is_init+0x10>)
    46e6:	f893 0078 	ldrb.w	r0, [r3, #120]	; 0x78
}
    46ea:	3800      	subs	r0, #0
    46ec:	bf18      	it	ne
    46ee:	2001      	movne	r0, #1
    46f0:	4770      	bx	lr
    46f2:	bf00      	nop
    46f4:	20000128 	.word	0x20000128

000046f8 <nrfx_gpiote_channel_free>:
{
    46f8:	4601      	mov	r1, r0
    return nrfx_flag32_free(&m_cb.available_channels_mask, channel);
    46fa:	4801      	ldr	r0, [pc, #4]	; (4700 <nrfx_gpiote_channel_free+0x8>)
    46fc:	f7ff be04 	b.w	4308 <nrfx_flag32_free>
    4700:	20000198 	.word	0x20000198

00004704 <nrfx_gpiote_channel_alloc>:
{
    4704:	4601      	mov	r1, r0
    return nrfx_flag32_alloc(&m_cb.available_channels_mask, p_channel);
    4706:	4801      	ldr	r0, [pc, #4]	; (470c <nrfx_gpiote_channel_alloc+0x8>)
    4708:	f7ff bdda 	b.w	42c0 <nrfx_flag32_alloc>
    470c:	20000198 	.word	0x20000198

00004710 <nrfx_gpiote_trigger_enable>:
{
    4710:	b537      	push	{r0, r1, r2, r4, r5, lr}
    return m_cb.pin_flags[pin] & PIN_FLAG_TE_USED;
    4712:	4b1f      	ldr	r3, [pc, #124]	; (4790 <nrfx_gpiote_trigger_enable+0x80>)
    4714:	f100 0208 	add.w	r2, r0, #8
{
    4718:	4604      	mov	r4, r0
    return m_cb.pin_flags[pin] & PIN_FLAG_TE_USED;
    471a:	f833 3012 	ldrh.w	r3, [r3, r2, lsl #1]
    if (pin_in_use_by_te(pin) && pin_is_input(pin))
    471e:	069a      	lsls	r2, r3, #26
    4720:	d51d      	bpl.n	475e <nrfx_gpiote_trigger_enable+0x4e>
    4722:	f013 0502 	ands.w	r5, r3, #2
    4726:	d11a      	bne.n	475e <nrfx_gpiote_trigger_enable+0x4e>
    return PIN_GET_TE_ID(m_cb.pin_flags[pin]);
    4728:	0b5b      	lsrs	r3, r3, #13
#endif

NRF_STATIC_INLINE nrf_gpiote_event_t nrf_gpiote_in_event_get(uint8_t index)
{
    NRFX_ASSERT(index < GPIOTE_CH_NUM);
    return (nrf_gpiote_event_t)NRFX_OFFSETOF(NRF_GPIOTE_Type, EVENTS_IN[index]);
    472a:	009a      	lsls	r2, r3, #2
    return ((uint32_t)p_reg + event);
    472c:	f102 4080 	add.w	r0, r2, #1073741824	; 0x40000000
    4730:	f500 40c2 	add.w	r0, r0, #24832	; 0x6100
    4734:	f102 4280 	add.w	r2, r2, #1073741824	; 0x40000000
    4738:	f502 42c0 	add.w	r2, r2, #24576	; 0x6000
    *((volatile uint32_t *)nrf_gpiote_event_address_get(p_reg, event)) = 0;
    473c:	6005      	str	r5, [r0, #0]
    473e:	6800      	ldr	r0, [r0, #0]
   p_reg->CONFIG[idx] |= GPIOTE_CONFIG_MODE_Event;
    4740:	f8d2 0510 	ldr.w	r0, [r2, #1296]	; 0x510
    4744:	f040 0001 	orr.w	r0, r0, #1
    4748:	f8c2 0510 	str.w	r0, [r2, #1296]	; 0x510
        if (int_enable)
    474c:	b129      	cbz	r1, 475a <nrfx_gpiote_trigger_enable+0x4a>
            nrf_gpiote_int_enable(NRF_GPIOTE, NRFX_BIT(ch));
    474e:	2201      	movs	r2, #1
    4750:	fa02 f303 	lsl.w	r3, r2, r3
    p_reg->INTENSET = mask;
    4754:	4a0f      	ldr	r2, [pc, #60]	; (4794 <nrfx_gpiote_trigger_enable+0x84>)
    4756:	f8c2 3304 	str.w	r3, [r2, #772]	; 0x304
}
    475a:	b003      	add	sp, #12
    475c:	bd30      	pop	{r4, r5, pc}
    nrfx_gpiote_trigger_t trigger = PIN_FLAG_TRIG_MODE_GET(m_cb.pin_flags[pin]);
    475e:	f3c3 0382 	ubfx	r3, r3, #2, #3
    if (trigger == NRFX_GPIOTE_TRIGGER_LOW)
    4762:	2b04      	cmp	r3, #4
    4764:	d010      	beq.n	4788 <nrfx_gpiote_trigger_enable+0x78>
    else if (trigger == NRFX_GPIOTE_TRIGGER_HIGH)
    4766:	2b05      	cmp	r3, #5
    4768:	d010      	beq.n	478c <nrfx_gpiote_trigger_enable+0x7c>
    NRF_GPIO_Type * reg = nrf_gpio_pin_port_decode(&pin_number);
    476a:	a801      	add	r0, sp, #4
    476c:	9401      	str	r4, [sp, #4]
    476e:	f7ff fded 	bl	434c <nrf_gpio_pin_port_decode>
    return ((nrf_gpio_port_in_read(reg) >> pin_number) & 1UL);
    4772:	9b01      	ldr	r3, [sp, #4]
    return p_reg->IN;
    4774:	f8d0 1510 	ldr.w	r1, [r0, #1296]	; 0x510
    return ((nrf_gpio_port_in_read(reg) >> pin_number) & 1UL);
    4778:	40d9      	lsrs	r1, r3
    477a:	f001 0101 	and.w	r1, r1, #1
        sense = nrf_gpio_pin_read(pin) ? NRF_GPIO_PIN_SENSE_LOW : NRF_GPIO_PIN_SENSE_HIGH;
    477e:	3102      	adds	r1, #2
        nrf_gpio_cfg_sense_set(pin, get_initial_sense(pin));
    4780:	4620      	mov	r0, r4
    4782:	f002 fcda 	bl	713a <nrf_gpio_cfg_sense_set>
}
    4786:	e7e8      	b.n	475a <nrfx_gpiote_trigger_enable+0x4a>
        sense = NRF_GPIO_PIN_SENSE_LOW;
    4788:	2103      	movs	r1, #3
    478a:	e7f9      	b.n	4780 <nrfx_gpiote_trigger_enable+0x70>
        sense = NRF_GPIO_PIN_SENSE_HIGH;
    478c:	2102      	movs	r1, #2
    478e:	e7f7      	b.n	4780 <nrfx_gpiote_trigger_enable+0x70>
    4790:	20000128 	.word	0x20000128
    4794:	40006000 	.word	0x40006000

00004798 <nrfx_gpiote_trigger_disable>:
    return m_cb.pin_flags[pin] & PIN_FLAG_TE_USED;
    4798:	4b0e      	ldr	r3, [pc, #56]	; (47d4 <nrfx_gpiote_trigger_disable+0x3c>)
    479a:	f100 0208 	add.w	r2, r0, #8
    479e:	f833 3012 	ldrh.w	r3, [r3, r2, lsl #1]
    if (pin_in_use_by_te(pin) && pin_is_input(pin))
    47a2:	0699      	lsls	r1, r3, #26
    47a4:	d513      	bpl.n	47ce <nrfx_gpiote_trigger_disable+0x36>
    47a6:	079a      	lsls	r2, r3, #30
    47a8:	d411      	bmi.n	47ce <nrfx_gpiote_trigger_disable+0x36>
    return PIN_GET_TE_ID(m_cb.pin_flags[pin]);
    47aa:	0b5b      	lsrs	r3, r3, #13
        nrf_gpiote_int_disable(NRF_GPIOTE, NRFX_BIT(ch));
    47ac:	2201      	movs	r2, #1
    47ae:	409a      	lsls	r2, r3
    p_reg->INTENCLR = mask;
    47b0:	009b      	lsls	r3, r3, #2
    47b2:	4909      	ldr	r1, [pc, #36]	; (47d8 <nrfx_gpiote_trigger_disable+0x40>)
    47b4:	f103 4380 	add.w	r3, r3, #1073741824	; 0x40000000
    47b8:	f503 43c0 	add.w	r3, r3, #24576	; 0x6000
    47bc:	f8c1 2308 	str.w	r2, [r1, #776]	; 0x308
   p_reg->CONFIG[idx] &= ~GPIOTE_CONFIG_MODE_Msk;
    47c0:	f8d3 2510 	ldr.w	r2, [r3, #1296]	; 0x510
    47c4:	f022 0203 	bic.w	r2, r2, #3
    47c8:	f8c3 2510 	str.w	r2, [r3, #1296]	; 0x510
}
    47cc:	4770      	bx	lr
        nrf_gpio_cfg_sense_set(pin, NRF_GPIO_PIN_NOSENSE);
    47ce:	2100      	movs	r1, #0
    47d0:	f002 bcb3 	b.w	713a <nrf_gpio_cfg_sense_set>
    47d4:	20000128 	.word	0x20000128
    47d8:	40006000 	.word	0x40006000

000047dc <nrfx_gpiote_pin_uninit>:
    return m_cb.pin_flags[pin] & PIN_FLAG_IN_USE;
    47dc:	4b0e      	ldr	r3, [pc, #56]	; (4818 <nrfx_gpiote_pin_uninit+0x3c>)
    47de:	f100 0208 	add.w	r2, r0, #8
{
    47e2:	b513      	push	{r0, r1, r4, lr}
    return m_cb.pin_flags[pin] & PIN_FLAG_IN_USE;
    47e4:	f813 3012 	ldrb.w	r3, [r3, r2, lsl #1]
    if (!pin_in_use(pin))
    47e8:	07db      	lsls	r3, r3, #31
{
    47ea:	4604      	mov	r4, r0
    if (!pin_in_use(pin))
    47ec:	d511      	bpl.n	4812 <nrfx_gpiote_pin_uninit+0x36>
    nrfx_gpiote_trigger_disable(pin);
    47ee:	f7ff ffd3 	bl	4798 <nrfx_gpiote_trigger_disable>
    pin_handler_trigger_uninit(pin);
    47f2:	4620      	mov	r0, r4
    47f4:	f7ff fe00 	bl	43f8 <pin_handler_trigger_uninit>
    NRF_GPIO_Type * reg = nrf_gpio_pin_port_decode(&pin_number);
    47f8:	a801      	add	r0, sp, #4
    47fa:	9401      	str	r4, [sp, #4]
    47fc:	f7ff fda6 	bl	434c <nrf_gpio_pin_port_decode>
    reg->PIN_CNF[pin_number] = cnf;
    4800:	9b01      	ldr	r3, [sp, #4]
    4802:	f503 73e0 	add.w	r3, r3, #448	; 0x1c0
    4806:	2202      	movs	r2, #2
    4808:	f840 2023 	str.w	r2, [r0, r3, lsl #2]
    nrf_gpio_cfg(
    480c:	4803      	ldr	r0, [pc, #12]	; (481c <nrfx_gpiote_pin_uninit+0x40>)
}
    480e:	b002      	add	sp, #8
    4810:	bd10      	pop	{r4, pc}
        return NRFX_ERROR_INVALID_PARAM;
    4812:	4803      	ldr	r0, [pc, #12]	; (4820 <nrfx_gpiote_pin_uninit+0x44>)
    4814:	e7fb      	b.n	480e <nrfx_gpiote_pin_uninit+0x32>
    4816:	bf00      	nop
    4818:	20000128 	.word	0x20000128
    481c:	0bad0000 	.word	0x0bad0000
    4820:	0bad0004 	.word	0x0bad0004

00004824 <nrfx_gpiote_irq_handler>:
        call_handler(pin, gpiote_polarity_to_trigger(polarity));
    }
}

void nrfx_gpiote_irq_handler(void)
{
    4824:	e92d 4ff0 	stmdb	sp!, {r4, r5, r6, r7, r8, r9, sl, fp, lr}
    4828:	4b64      	ldr	r3, [pc, #400]	; (49bc <nrfx_gpiote_irq_handler+0x198>)
    return p_reg->INTENSET & mask;
    482a:	4865      	ldr	r0, [pc, #404]	; (49c0 <nrfx_gpiote_irq_handler+0x19c>)
    uint32_t i;
    nrf_gpiote_event_t event = NRF_GPIOTE_EVENT_IN_0;
    uint32_t mask = (uint32_t)NRF_GPIOTE_INT_IN0_MASK;

    /* collect status of all GPIOTE pin events. Processing is done once all are collected and cleared.*/
    for (i = 0; i < GPIOTE_CH_NUM; i++)
    482c:	4965      	ldr	r1, [pc, #404]	; (49c4 <nrfx_gpiote_irq_handler+0x1a0>)
    uint32_t status = 0;
    482e:	2500      	movs	r5, #0
{
    4830:	b087      	sub	sp, #28
    uint32_t mask = (uint32_t)NRF_GPIOTE_INT_IN0_MASK;
    4832:	2201      	movs	r2, #1
    *((volatile uint32_t *)nrf_gpiote_event_address_get(p_reg, event)) = 0;
    4834:	462c      	mov	r4, r5
    return (bool)*(volatile uint32_t *)((uint8_t *)p_reg + (uint32_t)event);
    4836:	681e      	ldr	r6, [r3, #0]
    {
        if (nrf_gpiote_event_check(NRF_GPIOTE, event) &&
    4838:	b136      	cbz	r6, 4848 <nrfx_gpiote_irq_handler+0x24>
    return p_reg->INTENSET & mask;
    483a:	f8d0 6304 	ldr.w	r6, [r0, #772]	; 0x304
    483e:	4216      	tst	r6, r2
    *((volatile uint32_t *)nrf_gpiote_event_address_get(p_reg, event)) = 0;
    4840:	bf1e      	ittt	ne
    4842:	601c      	strne	r4, [r3, #0]
    4844:	681e      	ldrne	r6, [r3, #0]
            nrf_gpiote_int_enable_check(NRF_GPIOTE, mask))
        {
            nrf_gpiote_event_clear(NRF_GPIOTE, event);
            status |= mask;
    4846:	4315      	orrne	r5, r2
        }
        mask <<= 1;
    4848:	3304      	adds	r3, #4
    for (i = 0; i < GPIOTE_CH_NUM; i++)
    484a:	428b      	cmp	r3, r1
        mask <<= 1;
    484c:	ea4f 0242 	mov.w	r2, r2, lsl #1
    for (i = 0; i < GPIOTE_CH_NUM; i++)
    4850:	d1f1      	bne.n	4836 <nrfx_gpiote_irq_handler+0x12>
    return (bool)*(volatile uint32_t *)((uint8_t *)p_reg + (uint32_t)event);
    4852:	4f5d      	ldr	r7, [pc, #372]	; (49c8 <nrfx_gpiote_irq_handler+0x1a4>)
    4854:	683b      	ldr	r3, [r7, #0]
         * in ascending order. */
        event = (nrf_gpiote_event_t)((uint32_t)event + sizeof(uint32_t));
    }

    /* handle PORT event */
    if (nrf_gpiote_event_check(NRF_GPIOTE, NRF_GPIOTE_EVENT_PORT))
    4856:	b37b      	cbz	r3, 48b8 <nrfx_gpiote_irq_handler+0x94>
        *p_masks = gpio_regs[i]->LATCH;
    4858:	f04f 43a0 	mov.w	r3, #1342177280	; 0x50000000
    485c:	4e5b      	ldr	r6, [pc, #364]	; (49cc <nrfx_gpiote_irq_handler+0x1a8>)
    485e:	f8d3 2520 	ldr.w	r2, [r3, #1312]	; 0x520
    4862:	9204      	str	r2, [sp, #16]
        gpio_regs[i]->LATCH = *p_masks;
    4864:	f8c3 2520 	str.w	r2, [r3, #1312]	; 0x520
        *p_masks = gpio_regs[i]->LATCH;
    4868:	f8d6 3520 	ldr.w	r3, [r6, #1312]	; 0x520
    486c:	9305      	str	r3, [sp, #20]
        gpio_regs[i]->LATCH = *p_masks;
    486e:	f8c6 3520 	str.w	r3, [r6, #1312]	; 0x520
        *p_masks = gpio_regs[i]->LATCH;
    4872:	9600      	str	r6, [sp, #0]
        for (uint32_t i = 0; i < GPIO_COUNT; i++)
    4874:	f10d 0910 	add.w	r9, sp, #16
                NRF_GPIO_PIN_SENSE_LOW : NRF_GPIO_PIN_SENSE_HIGH;
    4878:	f04f 0800 	mov.w	r8, #0
__STATIC_INLINE void nrf_bitmask_bit_clear(uint32_t bit, void * p_mask)
{
    uint8_t * p_mask8 = (uint8_t *)p_mask;
    uint32_t byte_idx = BITMASK_BYTE_GET(bit);
    bit = BITMASK_RELBIT_GET(bit);
    p_mask8[byte_idx] &= ~(1 << bit);
    487c:	f04f 0b01 	mov.w	fp, #1
            while (latch[i])
    4880:	f8d9 3000 	ldr.w	r3, [r9]
    4884:	b9f3      	cbnz	r3, 48c4 <nrfx_gpiote_irq_handler+0xa0>
        for (uint32_t i = 0; i < GPIO_COUNT; i++)
    4886:	f108 0820 	add.w	r8, r8, #32
    488a:	f1b8 0f40 	cmp.w	r8, #64	; 0x40
    488e:	f109 0904 	add.w	r9, r9, #4
    4892:	d1f5      	bne.n	4880 <nrfx_gpiote_irq_handler+0x5c>
    *((volatile uint32_t *)nrf_gpiote_event_address_get(p_reg, event)) = 0;
    4894:	603b      	str	r3, [r7, #0]
    4896:	683b      	ldr	r3, [r7, #0]
        gpio_regs[i]->LATCH = *p_masks;
    4898:	9900      	ldr	r1, [sp, #0]
        *p_masks = gpio_regs[i]->LATCH;
    489a:	f04f 43a0 	mov.w	r3, #1342177280	; 0x50000000
    489e:	f8d3 2520 	ldr.w	r2, [r3, #1312]	; 0x520
    48a2:	9204      	str	r2, [sp, #16]
        gpio_regs[i]->LATCH = *p_masks;
    48a4:	f8c3 2520 	str.w	r2, [r3, #1312]	; 0x520
        *p_masks = gpio_regs[i]->LATCH;
    48a8:	9b00      	ldr	r3, [sp, #0]
    48aa:	f8d3 3520 	ldr.w	r3, [r3, #1312]	; 0x520
    48ae:	9305      	str	r3, [sp, #20]
        gpio_regs[i]->LATCH = *p_masks;
    48b0:	f8c1 3520 	str.w	r3, [r1, #1312]	; 0x520
        if (latch[port_idx])
    48b4:	4313      	orrs	r3, r2
    48b6:	d1dd      	bne.n	4874 <nrfx_gpiote_irq_handler+0x50>
        mask &= ~NRFX_BIT(ch);
    48b8:	2401      	movs	r4, #1
    while (mask)
    48ba:	2d00      	cmp	r5, #0
    48bc:	d166      	bne.n	498c <nrfx_gpiote_irq_handler+0x168>
        port_event_handle();
    }

    /* Process pin events. */
    gpiote_evt_handle(status);
}
    48be:	b007      	add	sp, #28
    48c0:	e8bd 8ff0 	ldmia.w	sp!, {r4, r5, r6, r7, r8, r9, sl, fp, pc}
                uint32_t pin = NRF_CTZ(latch[i]);
    48c4:	fa93 f3a3 	rbit	r3, r3
    48c8:	fab3 f383 	clz	r3, r3
                pin += 32 * i;
    48cc:	eb08 0603 	add.w	r6, r8, r3
                nrfx_gpiote_trigger_t trigger = PIN_FLAG_TRIG_MODE_GET(m_cb.pin_flags[pin]);
    48d0:	f106 0208 	add.w	r2, r6, #8
    48d4:	4b3e      	ldr	r3, [pc, #248]	; (49d0 <nrfx_gpiote_irq_handler+0x1ac>)
    48d6:	9603      	str	r6, [sp, #12]
    48d8:	f833 2012 	ldrh.w	r2, [r3, r2, lsl #1]
    48dc:	f3c2 0382 	ubfx	r3, r2, #2, #3
    uint32_t byte_idx = BITMASK_BYTE_GET(bit);
    48e0:	08f4      	lsrs	r4, r6, #3
    48e2:	9301      	str	r3, [sp, #4]
    48e4:	469a      	mov	sl, r3
    p_mask8[byte_idx] &= ~(1 << bit);
    48e6:	ab04      	add	r3, sp, #16
    bit = BITMASK_RELBIT_GET(bit);
    48e8:	f006 0007 	and.w	r0, r6, #7
    p_mask8[byte_idx] &= ~(1 << bit);
    48ec:	fa0b fc00 	lsl.w	ip, fp, r0
    48f0:	5d18      	ldrb	r0, [r3, r4]
    48f2:	ea20 000c 	bic.w	r0, r0, ip
    48f6:	5518      	strb	r0, [r3, r4]
    NRF_GPIO_Type * reg = nrf_gpio_pin_port_decode(&pin_number);
    48f8:	a803      	add	r0, sp, #12
    48fa:	0891      	lsrs	r1, r2, #2
    48fc:	f7ff fd26 	bl	434c <nrf_gpio_pin_port_decode>
    return (nrf_gpio_pin_sense_t)((reg->PIN_CNF[pin_number] &
    4900:	9c03      	ldr	r4, [sp, #12]
    4902:	f504 74e0 	add.w	r4, r4, #448	; 0x1c0
    if (is_level(trigger))
    4906:	074b      	lsls	r3, r1, #29
    4908:	f850 4024 	ldr.w	r4, [r0, r4, lsl #2]
                                   GPIO_PIN_CNF_SENSE_Msk) >> GPIO_PIN_CNF_SENSE_Pos);
    490c:	f3c4 4401 	ubfx	r4, r4, #16, #2
    4910:	d523      	bpl.n	495a <nrfx_gpiote_irq_handler+0x136>
        call_handler(pin, trigger);
    4912:	4651      	mov	r1, sl
    4914:	4630      	mov	r0, r6
    4916:	f7ff fd27 	bl	4368 <call_handler>
    NRF_GPIO_Type * reg = nrf_gpio_pin_port_decode(&pin_number);
    491a:	a803      	add	r0, sp, #12
    491c:	9603      	str	r6, [sp, #12]
    491e:	f7ff fd15 	bl	434c <nrf_gpio_pin_port_decode>
    return (nrf_gpio_pin_sense_t)((reg->PIN_CNF[pin_number] &
    4922:	9a03      	ldr	r2, [sp, #12]
    4924:	f502 72e0 	add.w	r2, r2, #448	; 0x1c0
    4928:	b2e4      	uxtb	r4, r4
    492a:	f850 2022 	ldr.w	r2, [r0, r2, lsl #2]
        if (nrf_gpio_pin_sense_get(pin) == sense)
    492e:	f3c2 4201 	ubfx	r2, r2, #16, #2
    4932:	4294      	cmp	r4, r2
    4934:	d107      	bne.n	4946 <nrfx_gpiote_irq_handler+0x122>
            nrf_gpio_cfg_sense_set(pin, NRF_GPIO_PIN_NOSENSE);
    4936:	2100      	movs	r1, #0
    4938:	4630      	mov	r0, r6
    493a:	f002 fbfe 	bl	713a <nrf_gpio_cfg_sense_set>
            nrf_gpio_cfg_sense_set(pin, sense);
    493e:	4621      	mov	r1, r4
    4940:	4630      	mov	r0, r6
    4942:	f002 fbfa 	bl	713a <nrf_gpio_cfg_sense_set>
    NRF_GPIO_Type * reg = nrf_gpio_pin_port_decode(&pin_number);
    4946:	a803      	add	r0, sp, #12
    4948:	9603      	str	r6, [sp, #12]
    494a:	f7ff fcff 	bl	434c <nrf_gpio_pin_port_decode>
    reg->LATCH = (1 << pin_number);
    494e:	9b03      	ldr	r3, [sp, #12]
    4950:	fa0b f303 	lsl.w	r3, fp, r3
    4954:	f8c0 3520 	str.w	r3, [r0, #1312]	; 0x520
    4958:	e792      	b.n	4880 <nrfx_gpiote_irq_handler+0x5c>
                NRF_GPIO_PIN_SENSE_LOW : NRF_GPIO_PIN_SENSE_HIGH;
    495a:	2c02      	cmp	r4, #2
        nrf_gpio_cfg_sense_set(pin, next_sense);
    495c:	bf0c      	ite	eq
    495e:	2103      	moveq	r1, #3
    4960:	2102      	movne	r1, #2
    4962:	4630      	mov	r0, r6
    4964:	f002 fbe9 	bl	713a <nrf_gpio_cfg_sense_set>
        if ((trigger == NRFX_GPIOTE_TRIGGER_TOGGLE) ||
    4968:	9b01      	ldr	r3, [sp, #4]
    496a:	2b03      	cmp	r3, #3
    496c:	d004      	beq.n	4978 <nrfx_gpiote_irq_handler+0x154>
    496e:	2c02      	cmp	r4, #2
    4970:	d107      	bne.n	4982 <nrfx_gpiote_irq_handler+0x15e>
            (sense == NRF_GPIO_PIN_SENSE_HIGH && trigger == NRFX_GPIOTE_TRIGGER_LOTOHI) ||
    4972:	f1ba 0f01 	cmp.w	sl, #1
            (sense == NRF_GPIO_PIN_SENSE_LOW && trigger == NRFX_GPIOTE_TRIGGER_HITOLO))
    4976:	d1e6      	bne.n	4946 <nrfx_gpiote_irq_handler+0x122>
            call_handler(pin, trigger);
    4978:	4651      	mov	r1, sl
    497a:	4630      	mov	r0, r6
    497c:	f7ff fcf4 	bl	4368 <call_handler>
    4980:	e7e1      	b.n	4946 <nrfx_gpiote_irq_handler+0x122>
            (sense == NRF_GPIO_PIN_SENSE_HIGH && trigger == NRFX_GPIOTE_TRIGGER_LOTOHI) ||
    4982:	2c03      	cmp	r4, #3
    4984:	d1df      	bne.n	4946 <nrfx_gpiote_irq_handler+0x122>
            (sense == NRF_GPIO_PIN_SENSE_LOW && trigger == NRFX_GPIOTE_TRIGGER_HITOLO))
    4986:	f1ba 0f02 	cmp.w	sl, #2
    498a:	e7f4      	b.n	4976 <nrfx_gpiote_irq_handler+0x152>
        uint32_t ch = NRF_CTZ(mask);
    498c:	fa95 f3a5 	rbit	r3, r5
    4990:	fab3 f383 	clz	r3, r3
        mask &= ~NRFX_BIT(ch);
    4994:	fa04 f203 	lsl.w	r2, r4, r3
    4998:	009b      	lsls	r3, r3, #2
    499a:	f103 4380 	add.w	r3, r3, #1073741824	; 0x40000000
    499e:	f503 43c0 	add.w	r3, r3, #24576	; 0x6000
    49a2:	ea25 0502 	bic.w	r5, r5, r2
    return ((p_reg->CONFIG[idx] & GPIOTE_CONFIG_PORT_PIN_Msk) >> GPIOTE_CONFIG_PSEL_Pos);
    49a6:	f8d3 0510 	ldr.w	r0, [r3, #1296]	; 0x510
    return (nrf_gpiote_polarity_t)((p_reg->CONFIG[idx] & GPIOTE_CONFIG_POLARITY_Msk) >>
    49aa:	f8d3 1510 	ldr.w	r1, [r3, #1296]	; 0x510
        call_handler(pin, gpiote_polarity_to_trigger(polarity));
    49ae:	f3c0 2005 	ubfx	r0, r0, #8, #6
    49b2:	f3c1 4101 	ubfx	r1, r1, #16, #2
    49b6:	f7ff fcd7 	bl	4368 <call_handler>
    49ba:	e77e      	b.n	48ba <nrfx_gpiote_irq_handler+0x96>
    49bc:	40006100 	.word	0x40006100
    49c0:	40006000 	.word	0x40006000
    49c4:	40006120 	.word	0x40006120
    49c8:	4000617c 	.word	0x4000617c
    49cc:	50000300 	.word	0x50000300
    49d0:	20000128 	.word	0x20000128

000049d4 <nrfx_ppi_channel_alloc>:
    nrfx_flag32_init(&m_groups_allocated, NRFX_PPI_ALL_APP_GROUPS_MASK);
}


nrfx_err_t nrfx_ppi_channel_alloc(nrf_ppi_channel_t * p_channel)
{
    49d4:	4601      	mov	r1, r0
    return nrfx_flag32_alloc(&m_channels_allocated, (uint8_t *)p_channel);
    49d6:	4801      	ldr	r0, [pc, #4]	; (49dc <nrfx_ppi_channel_alloc+0x8>)
    49d8:	f7ff bc72 	b.w	42c0 <nrfx_flag32_alloc>
    49dc:	200001a4 	.word	0x200001a4

000049e0 <nrfx_pwm_init>:

nrfx_err_t nrfx_pwm_init(nrfx_pwm_t const *        p_instance,
                         nrfx_pwm_config_t const * p_config,
                         nrfx_pwm_handler_t        handler,
                         void *                    p_context)
{
    49e0:	e92d 4ff0 	stmdb	sp!, {r4, r5, r6, r7, r8, r9, sl, fp, lr}
    NRFX_ASSERT(p_config);

    nrfx_err_t err_code;

    pwm_control_block_t * p_cb  = &m_cb[p_instance->drv_inst_idx];
    49e4:	7905      	ldrb	r5, [r0, #4]

    if (p_cb->state != NRFX_DRV_STATE_UNINITIALIZED)
    49e6:	4f51      	ldr	r7, [pc, #324]	; (4b2c <nrfx_pwm_init+0x14c>)
    49e8:	240c      	movs	r4, #12
    49ea:	436c      	muls	r4, r5
    49ec:	193e      	adds	r6, r7, r4
{
    49ee:	b089      	sub	sp, #36	; 0x24
    if (p_cb->state != NRFX_DRV_STATE_UNINITIALIZED)
    49f0:	f896 c008 	ldrb.w	ip, [r6, #8]
{
    49f4:	9202      	str	r2, [sp, #8]
    49f6:	46b8      	mov	r8, r7
    if (p_cb->state != NRFX_DRV_STATE_UNINITIALIZED)
    49f8:	f1bc 0f00 	cmp.w	ip, #0
    49fc:	f040 8093 	bne.w	4b26 <nrfx_pwm_init+0x146>
        return err_code;
    }

    p_cb->handler = handler;
    p_cb->p_context = p_context;
    p_cb->skip_gpio_cfg = p_config->skip_gpio_cfg;
    4a00:	f891 c00c 	ldrb.w	ip, [r1, #12]
    p_cb->p_context = p_context;
    4a04:	6073      	str	r3, [r6, #4]
    4a06:	7b4b      	ldrb	r3, [r1, #13]
    p_cb->handler = handler;
    4a08:	513a      	str	r2, [r7, r4]
    p_cb->skip_gpio_cfg = p_config->skip_gpio_cfg;
    4a0a:	f886 c00a 	strb.w	ip, [r6, #10]
    if (p_config->skip_gpio_cfg && p_config->skip_psel_cfg)
    4a0e:	9301      	str	r3, [sp, #4]
    4a10:	f1bc 0f00 	cmp.w	ip, #0
    4a14:	d031      	beq.n	4a7a <nrfx_pwm_init+0x9a>
    4a16:	b383      	cbz	r3, 4a7a <nrfx_pwm_init+0x9a>

    configure_pins(p_instance, p_config);

    nrf_pwm_enable(p_instance->p_registers);
    4a18:	6800      	ldr	r0, [r0, #0]
    p_reg->ENABLE = (PWM_ENABLE_ENABLE_Enabled << PWM_ENABLE_ENABLE_Pos);
    4a1a:	2301      	movs	r3, #1
    4a1c:	f8c0 3500 	str.w	r3, [r0, #1280]	; 0x500
    nrf_pwm_configure(p_instance->p_registers,
    4a20:	798c      	ldrb	r4, [r1, #6]
    4a22:	890b      	ldrh	r3, [r1, #8]
    p_reg->PRESCALER  = base_clock;
    4a24:	794e      	ldrb	r6, [r1, #5]
    4a26:	f8c0 650c 	str.w	r6, [r0, #1292]	; 0x50c
    p_reg->MODE       = mode;
    4a2a:	f8c0 4504 	str.w	r4, [r0, #1284]	; 0x504
    p_reg->COUNTERTOP = top_value;
    4a2e:	f8c0 3508 	str.w	r3, [r0, #1288]	; 0x508

NRF_STATIC_INLINE void nrf_pwm_decoder_set(NRF_PWM_Type *     p_reg,
                                           nrf_pwm_dec_load_t dec_load,
                                           nrf_pwm_dec_step_t dec_step)
{
    p_reg->DECODER = ((uint32_t)dec_load << PWM_DECODER_LOAD_Pos) |
    4a32:	894b      	ldrh	r3, [r1, #10]
    4a34:	f8c0 3510 	str.w	r3, [r0, #1296]	; 0x510
    p_reg->SHORTS = mask;
    4a38:	2300      	movs	r3, #0
    4a3a:	f8c0 3200 	str.w	r3, [r0, #512]	; 0x200
    p_reg->INTEN = mask;
    4a3e:	f8c0 3300 	str.w	r3, [r0, #768]	; 0x300
    *((volatile uint32_t *)((uint8_t *)p_reg + (uint32_t)event)) = 0x0UL;
    4a42:	f8c0 311c 	str.w	r3, [r0, #284]	; 0x11c
    4a46:	f8d0 111c 	ldr.w	r1, [r0, #284]	; 0x11c
    4a4a:	f8c0 3110 	str.w	r3, [r0, #272]	; 0x110
    4a4e:	f8d0 1110 	ldr.w	r1, [r0, #272]	; 0x110
    4a52:	f8c0 3114 	str.w	r3, [r0, #276]	; 0x114
    4a56:	f8d0 1114 	ldr.w	r1, [r0, #276]	; 0x114
    4a5a:	f8c0 3104 	str.w	r3, [r0, #260]	; 0x104
    4a5e:	f8d0 3104 	ldr.w	r3, [r0, #260]	; 0x104
    // handler is not used.
#if defined(USE_DMA_ISSUE_WORKAROUND)
    NRFX_IRQ_PRIORITY_SET(DMA_ISSUE_EGU_IRQn, p_config->irq_priority);
    NRFX_IRQ_ENABLE(DMA_ISSUE_EGU_IRQn);
#else
    if (p_cb->handler)
    4a62:	9b02      	ldr	r3, [sp, #8]
    4a64:	2b00      	cmp	r3, #0
    4a66:	d159      	bne.n	4b1c <nrfx_pwm_init+0x13c>
        NRFX_IRQ_PRIORITY_SET(nrfx_get_irq_number(p_instance->p_registers),
            p_config->irq_priority);
        NRFX_IRQ_ENABLE(nrfx_get_irq_number(p_instance->p_registers));
    }

    p_cb->state = NRFX_DRV_STATE_INITIALIZED;
    4a68:	230c      	movs	r3, #12
    4a6a:	fb03 8505 	mla	r5, r3, r5, r8

    err_code = NRFX_SUCCESS;
    NRFX_LOG_INFO("Function: %s, error code: %s.", __func__, NRFX_LOG_ERROR_STRING_GET(err_code));
    return err_code;
    4a6e:	4830      	ldr	r0, [pc, #192]	; (4b30 <nrfx_pwm_init+0x150>)
    p_cb->state = NRFX_DRV_STATE_INITIALIZED;
    4a70:	2301      	movs	r3, #1
    4a72:	722b      	strb	r3, [r5, #8]
}
    4a74:	b009      	add	sp, #36	; 0x24
    4a76:	e8bd 8ff0 	ldmia.w	sp!, {r4, r5, r6, r7, r8, r9, sl, fp, pc}
    4a7a:	1ccb      	adds	r3, r1, #3
        case 1: return NRF_P1;
    4a7c:	f8df e0b8 	ldr.w	lr, [pc, #184]	; 4b38 <nrfx_pwm_init+0x158>
    4a80:	9303      	str	r3, [sp, #12]
    4a82:	1e4f      	subs	r7, r1, #1
    4a84:	ae04      	add	r6, sp, #16
    4a86:	f04f 0901 	mov.w	r9, #1
        uint8_t output_pin = p_config->output_pins[i];
    4a8a:	f817 af01 	ldrb.w	sl, [r7, #1]!
        if (output_pin != NRFX_PWM_PIN_NOT_USED)
    4a8e:	f1ba 0fff 	cmp.w	sl, #255	; 0xff
    4a92:	d03f      	beq.n	4b14 <nrfx_pwm_init+0x134>
            out_pins[i]   = output_pin & ~NRFX_PWM_PIN_INVERTED;
    4a94:	f02a 0380 	bic.w	r3, sl, #128	; 0x80
    4a98:	6033      	str	r3, [r6, #0]
            if (!p_config->skip_gpio_cfg)
    4a9a:	f1bc 0f00 	cmp.w	ip, #0
    4a9e:	d119      	bne.n	4ad4 <nrfx_pwm_init+0xf4>
    if (value == 0)
    4aa0:	f01a 0f80 	tst.w	sl, #128	; 0x80
    4aa4:	f00a 041f 	and.w	r4, sl, #31
    4aa8:	ea4f 1353 	mov.w	r3, r3, lsr #5
    4aac:	d128      	bne.n	4b00 <nrfx_pwm_init+0x120>
        case 1: return NRF_P1;
    4aae:	2b01      	cmp	r3, #1
    4ab0:	bf14      	ite	ne
    4ab2:	f04f 4aa0 	movne.w	sl, #1342177280	; 0x50000000
    4ab6:	46f2      	moveq	sl, lr
    nrf_gpio_port_out_clear(reg, 1UL << pin_number);
    4ab8:	fa09 fb04 	lsl.w	fp, r9, r4
    p_reg->OUTCLR = clr_mask;
    4abc:	f8ca b50c 	str.w	fp, [sl, #1292]	; 0x50c
        case 1: return NRF_P1;
    4ac0:	2b01      	cmp	r3, #1
    4ac2:	bf14      	ite	ne
    4ac4:	f04f 43a0 	movne.w	r3, #1342177280	; 0x50000000
    4ac8:	4673      	moveq	r3, lr
    reg->PIN_CNF[pin_number] = cnf;
    4aca:	f504 74e0 	add.w	r4, r4, #448	; 0x1c0
    4ace:	2203      	movs	r2, #3
    4ad0:	f843 2024 	str.w	r2, [r3, r4, lsl #2]
    for (i = 0; i < NRF_PWM_CHANNEL_COUNT; ++i)
    4ad4:	9b03      	ldr	r3, [sp, #12]
    4ad6:	429f      	cmp	r7, r3
    4ad8:	f106 0604 	add.w	r6, r6, #4
    4adc:	d1d5      	bne.n	4a8a <nrfx_pwm_init+0xaa>
    if (!p_config->skip_psel_cfg)
    4ade:	9b01      	ldr	r3, [sp, #4]
    4ae0:	2b00      	cmp	r3, #0
    4ae2:	d199      	bne.n	4a18 <nrfx_pwm_init+0x38>
    4ae4:	6803      	ldr	r3, [r0, #0]
        p_reg->PSEL.OUT[i] = out_pins[i];
    4ae6:	9c04      	ldr	r4, [sp, #16]
    4ae8:	f8c3 4560 	str.w	r4, [r3, #1376]	; 0x560
    4aec:	9c05      	ldr	r4, [sp, #20]
    4aee:	f8c3 4564 	str.w	r4, [r3, #1380]	; 0x564
    4af2:	9c06      	ldr	r4, [sp, #24]
    4af4:	f8c3 4568 	str.w	r4, [r3, #1384]	; 0x568
    4af8:	9c07      	ldr	r4, [sp, #28]
    4afa:	f8c3 456c 	str.w	r4, [r3, #1388]	; 0x56c
    for (i = 0; i < NRF_PWM_CHANNEL_COUNT; ++i)
    4afe:	e78b      	b.n	4a18 <nrfx_pwm_init+0x38>
        case 1: return NRF_P1;
    4b00:	2b01      	cmp	r3, #1
    4b02:	bf14      	ite	ne
    4b04:	f04f 4aa0 	movne.w	sl, #1342177280	; 0x50000000
    4b08:	46f2      	moveq	sl, lr
    nrf_gpio_port_out_set(reg, 1UL << pin_number);
    4b0a:	fa09 fb04 	lsl.w	fp, r9, r4
    p_reg->OUTSET = set_mask;
    4b0e:	f8ca b508 	str.w	fp, [sl, #1288]	; 0x508
    4b12:	e7d5      	b.n	4ac0 <nrfx_pwm_init+0xe0>
            out_pins[i] = NRF_PWM_PIN_NOT_CONNECTED;
    4b14:	f04f 33ff 	mov.w	r3, #4294967295
    4b18:	6033      	str	r3, [r6, #0]
    4b1a:	e7db      	b.n	4ad4 <nrfx_pwm_init+0xf4>
        NRFX_IRQ_ENABLE(nrfx_get_irq_number(p_instance->p_registers));
    4b1c:	f340 3007 	sbfx	r0, r0, #12, #8
    4b20:	f7fd fda2 	bl	2668 <arch_irq_enable>
    4b24:	e7a0      	b.n	4a68 <nrfx_pwm_init+0x88>
        return err_code;
    4b26:	4803      	ldr	r0, [pc, #12]	; (4b34 <nrfx_pwm_init+0x154>)
    4b28:	e7a4      	b.n	4a74 <nrfx_pwm_init+0x94>
    4b2a:	bf00      	nop
    4b2c:	20000c64 	.word	0x20000c64
    4b30:	0bad0000 	.word	0x0bad0000
    4b34:	0bad0005 	.word	0x0bad0005
    4b38:	50000300 	.word	0x50000300

00004b3c <nrfx_pwm_simple_playback>:

uint32_t nrfx_pwm_simple_playback(nrfx_pwm_t const *         p_instance,
                                  nrf_pwm_sequence_t const * p_sequence,
                                  uint16_t                   playback_count,
                                  uint32_t                   flags)
{
    4b3c:	b4f0      	push	{r4, r5, r6, r7}
    4b3e:	460d      	mov	r5, r1
    pwm_control_block_t * p_cb  = &m_cb[p_instance->drv_inst_idx];
    4b40:	7901      	ldrb	r1, [r0, #4]
    NRFX_ASSERT(playback_count > 0);
    NRFX_ASSERT(nrfx_is_in_ram(p_sequence->values.p_raw));

    // To take advantage of the looping mechanism, we need to use both sequences
    // (single sequence can be played back only once).
    nrf_pwm_sequence_set(p_instance->p_registers, 0, p_sequence);
    4b42:	6800      	ldr	r0, [r0, #0]
    p_reg->SEQ[seq_id].PTR = (uint32_t)p_values;
    4b44:	f8d5 c000 	ldr.w	ip, [r5]
    p_reg->SEQ[seq_id].CNT = length;
    4b48:	88af      	ldrh	r7, [r5, #4]
    nrf_pwm_seq_refresh_set(  p_reg, seq_id, p_seq->repeats);
    4b4a:	68ae      	ldr	r6, [r5, #8]
    p_reg->SEQ[seq_id].PTR = (uint32_t)p_values;
    4b4c:	f8c0 c520 	str.w	ip, [r0, #1312]	; 0x520
{
    4b50:	461c      	mov	r4, r3
    pwm_control_block_t * p_cb  = &m_cb[p_instance->drv_inst_idx];
    4b52:	4b18      	ldr	r3, [pc, #96]	; (4bb4 <nrfx_pwm_simple_playback+0x78>)
    p_reg->SEQ[seq_id].CNT = length;
    4b54:	f8c0 7524 	str.w	r7, [r0, #1316]	; 0x524
    4b58:	eb01 0141 	add.w	r1, r1, r1, lsl #1
    4b5c:	eb03 0181 	add.w	r1, r3, r1, lsl #2
    nrf_pwm_seq_end_delay_set(p_reg, seq_id, p_seq->end_delay);
    4b60:	68eb      	ldr	r3, [r5, #12]
    p_reg->SEQ[seq_id].REFRESH  = refresh;
    4b62:	f8c0 6528 	str.w	r6, [r0, #1320]	; 0x528
    p_reg->SEQ[seq_id].ENDDELAY = end_delay;
    4b66:	f8c0 352c 	str.w	r3, [r0, #1324]	; 0x52c
    p_reg->SEQ[seq_id].PTR = (uint32_t)p_values;
    4b6a:	f8c0 c540 	str.w	ip, [r0, #1344]	; 0x540
    p_reg->SEQ[seq_id].CNT = length;
    4b6e:	f8c0 7544 	str.w	r7, [r0, #1348]	; 0x544
    p_reg->SEQ[seq_id].REFRESH  = refresh;
    4b72:	f8c0 6548 	str.w	r6, [r0, #1352]	; 0x548
    p_reg->SEQ[seq_id].ENDDELAY = end_delay;
    4b76:	f8c0 354c 	str.w	r3, [r0, #1356]	; 0x54c
    nrf_pwm_sequence_set(p_instance->p_registers, 1, p_sequence);
    bool odd = (playback_count & 1);
    4b7a:	f002 0301 	and.w	r3, r2, #1
}

NRF_STATIC_INLINE void nrf_pwm_loop_set(NRF_PWM_Type * p_reg,
                                        uint16_t       loop_count)
{
    p_reg->LOOP = loop_count;
    4b7e:	eb03 0252 	add.w	r2, r3, r2, lsr #1
    4b82:	f8c0 2514 	str.w	r2, [r0, #1300]	; 0x514
    nrf_pwm_loop_set(p_instance->p_registers,
        (playback_count / 2) + (odd ? 1 : 0));

    uint32_t shorts_mask;
    if (flags & NRFX_PWM_FLAG_STOP)
    4b86:	07e2      	lsls	r2, r4, #31
    4b88:	d411      	bmi.n	4bae <nrfx_pwm_simple_playback+0x72>
    {
        shorts_mask = NRF_PWM_SHORT_LOOPSDONE_STOP_MASK;
    }
    else if (flags & NRFX_PWM_FLAG_LOOP)
    4b8a:	f014 0202 	ands.w	r2, r4, #2
    4b8e:	d003      	beq.n	4b98 <nrfx_pwm_simple_playback+0x5c>
    {
        shorts_mask = odd ? NRF_PWM_SHORT_LOOPSDONE_SEQSTART1_MASK
                          : NRF_PWM_SHORT_LOOPSDONE_SEQSTART0_MASK;
    4b90:	2b00      	cmp	r3, #0
    4b92:	bf14      	ite	ne
    4b94:	2208      	movne	r2, #8
    4b96:	2204      	moveq	r2, #4
                  __func__,
                  p_sequence->length);
    NRFX_LOG_DEBUG("Sequence data:");
    NRFX_LOG_HEXDUMP_DEBUG((uint8_t *)p_sequence->values.p_raw,
                           p_sequence->length * sizeof(uint16_t));
    return start_playback(p_instance, p_cb, flags,
    4b98:	2b00      	cmp	r3, #0
    p_reg->SHORTS = mask;
    4b9a:	f8c0 2200 	str.w	r2, [r0, #512]	; 0x200
    4b9e:	bf18      	it	ne
    4ba0:	230c      	movne	r3, #12
    4ba2:	b2e2      	uxtb	r2, r4
    4ba4:	bf08      	it	eq
    4ba6:	2308      	moveq	r3, #8
        odd ? NRF_PWM_TASK_SEQSTART1 : NRF_PWM_TASK_SEQSTART0);
}
    4ba8:	bcf0      	pop	{r4, r5, r6, r7}
    return start_playback(p_instance, p_cb, flags,
    4baa:	f002 bad5 	b.w	7158 <start_playback.isra.0>
        shorts_mask = NRF_PWM_SHORT_LOOPSDONE_STOP_MASK;
    4bae:	2210      	movs	r2, #16
    4bb0:	e7f2      	b.n	4b98 <nrfx_pwm_simple_playback+0x5c>
    4bb2:	bf00      	nop
    4bb4:	20000c64 	.word	0x20000c64

00004bb8 <nrfx_pwm_is_stopped>:

    bool ret_val = false;

    // If the event handler is used (interrupts are enabled), the state will
    // be changed in interrupt handler when the STOPPED event occurs.
    if (p_cb->state != NRFX_DRV_STATE_POWERED_ON)
    4bb8:	4b08      	ldr	r3, [pc, #32]	; (4bdc <nrfx_pwm_is_stopped+0x24>)
    pwm_control_block_t * p_cb  = &m_cb[p_instance->drv_inst_idx];
    4bba:	7902      	ldrb	r2, [r0, #4]
    if (p_cb->state != NRFX_DRV_STATE_POWERED_ON)
    4bbc:	210c      	movs	r1, #12
    4bbe:	fb01 3202 	mla	r2, r1, r2, r3
    {
        ret_val = true;
    }
    // If interrupts are disabled, we must check the STOPPED event here.
    if (nrf_pwm_event_check(p_instance->p_registers, NRF_PWM_EVENT_STOPPED))
    4bc2:	6801      	ldr	r1, [r0, #0]
    if (p_cb->state != NRFX_DRV_STATE_POWERED_ON)
    4bc4:	7a13      	ldrb	r3, [r2, #8]
    return (bool)*(volatile uint32_t *)((uint8_t *)p_reg + (uint32_t)event);
    4bc6:	f8d1 1104 	ldr.w	r1, [r1, #260]	; 0x104
    4bca:	b2db      	uxtb	r3, r3
    if (nrf_pwm_event_check(p_instance->p_registers, NRF_PWM_EVENT_STOPPED))
    4bcc:	b919      	cbnz	r1, 4bd6 <nrfx_pwm_is_stopped+0x1e>
    if (p_cb->state != NRFX_DRV_STATE_POWERED_ON)
    4bce:	1e98      	subs	r0, r3, #2
    4bd0:	bf18      	it	ne
    4bd2:	2001      	movne	r0, #1
    4bd4:	4770      	bx	lr
    {
        p_cb->state = NRFX_DRV_STATE_INITIALIZED;
    4bd6:	2001      	movs	r0, #1
    4bd8:	7210      	strb	r0, [r2, #8]
        ret_val = true;
    }

    NRFX_LOG_INFO("%s returned %d.", __func__, ret_val);
    return ret_val;
}
    4bda:	4770      	bx	lr
    4bdc:	20000c64 	.word	0x20000c64

00004be0 <nrf52_errata_136>:
            uint32_t var1 = *(uint32_t *)0x10000130ul;
    4be0:	4b03      	ldr	r3, [pc, #12]	; (4bf0 <nrf52_errata_136+0x10>)
            if (var1 == 0x08)
    4be2:	6818      	ldr	r0, [r3, #0]
}
    4be4:	f1a0 0308 	sub.w	r3, r0, #8
    4be8:	4258      	negs	r0, r3
    4bea:	4158      	adcs	r0, r3
    4bec:	4770      	bx	lr
    4bee:	bf00      	nop
    4bf0:	10000130 	.word	0x10000130

00004bf4 <nrf52_errata_103>:
            uint32_t var1 = *(uint32_t *)0x10000130ul;
    4bf4:	4b06      	ldr	r3, [pc, #24]	; (4c10 <nrf52_errata_103+0x1c>)
            if (var1 == 0x08)
    4bf6:	681b      	ldr	r3, [r3, #0]
    4bf8:	2b08      	cmp	r3, #8
    4bfa:	d106      	bne.n	4c0a <nrf52_errata_103+0x16>
            uint32_t var2 = *(uint32_t *)0x10000134ul;
    4bfc:	4b05      	ldr	r3, [pc, #20]	; (4c14 <nrf52_errata_103+0x20>)
    4bfe:	681b      	ldr	r3, [r3, #0]
                switch(var2)
    4c00:	2b05      	cmp	r3, #5
    4c02:	d802      	bhi.n	4c0a <nrf52_errata_103+0x16>
    4c04:	4a04      	ldr	r2, [pc, #16]	; (4c18 <nrf52_errata_103+0x24>)
    4c06:	5cd0      	ldrb	r0, [r2, r3]
    4c08:	4770      	bx	lr
        return false;
    4c0a:	2000      	movs	r0, #0
}
    4c0c:	4770      	bx	lr
    4c0e:	bf00      	nop
    4c10:	10000130 	.word	0x10000130
    4c14:	10000134 	.word	0x10000134
    4c18:	00007d98 	.word	0x00007d98

00004c1c <nvmc_wait>:

/* -- NVMC utility functions -- */
/* Waits until NVMC is done with the current pending action */
void nvmc_wait(void)
{
    while (NRF_NVMC->READY == NVMC_READY_READY_Busy){}
    4c1c:	4a02      	ldr	r2, [pc, #8]	; (4c28 <nvmc_wait+0xc>)
    4c1e:	f8d2 3400 	ldr.w	r3, [r2, #1024]	; 0x400
    4c22:	2b00      	cmp	r3, #0
    4c24:	d0fb      	beq.n	4c1e <nvmc_wait+0x2>
}
    4c26:	4770      	bx	lr
    4c28:	4001e000 	.word	0x4001e000

00004c2c <SystemInit>:
{
    SystemCoreClock = __SYSTEM_CLOCK_64M;
}

void SystemInit(void)
{
    4c2c:	b510      	push	{r4, lr}
    #endif

    #if NRF52_ERRATA_36_ENABLE_WORKAROUND
        /* Workaround for Errata 36 "CLOCK: Some registers are not reset when expected" found at the Errata document
           for your device located at https://infocenter.nordicsemi.com/index.jsp  */
        if (nrf52_errata_36()){
    4c2e:	f7ff ffd7 	bl	4be0 <nrf52_errata_136>
    4c32:	b140      	cbz	r0, 4c46 <SystemInit+0x1a>
            NRF_CLOCK->EVENTS_DONE = 0;
    4c34:	f04f 4380 	mov.w	r3, #1073741824	; 0x40000000
    4c38:	2200      	movs	r2, #0
    4c3a:	f8c3 210c 	str.w	r2, [r3, #268]	; 0x10c
            NRF_CLOCK->EVENTS_CTTO = 0;
    4c3e:	f8c3 2110 	str.w	r2, [r3, #272]	; 0x110
            NRF_CLOCK->CTIV = 0;
    4c42:	f8c3 2538 	str.w	r2, [r3, #1336]	; 0x538
    #endif

    #if NRF52_ERRATA_66_ENABLE_WORKAROUND
        /* Workaround for Errata 66 "TEMP: Linearity specification not met with default settings" found at the Errata document
           for your device located at https://infocenter.nordicsemi.com/index.jsp  */
        if (nrf52_errata_66()){
    4c46:	f7ff ffcb 	bl	4be0 <nrf52_errata_136>
    4c4a:	2800      	cmp	r0, #0
    4c4c:	d046      	beq.n	4cdc <SystemInit+0xb0>
            NRF_TEMP->A0 = NRF_FICR->TEMP.A0;
    4c4e:	f04f 5280 	mov.w	r2, #268435456	; 0x10000000
    4c52:	4b5b      	ldr	r3, [pc, #364]	; (4dc0 <SystemInit+0x194>)
    4c54:	f8d2 1404 	ldr.w	r1, [r2, #1028]	; 0x404
    4c58:	f8c3 1520 	str.w	r1, [r3, #1312]	; 0x520
            NRF_TEMP->A1 = NRF_FICR->TEMP.A1;
    4c5c:	f8d2 1408 	ldr.w	r1, [r2, #1032]	; 0x408
    4c60:	f8c3 1524 	str.w	r1, [r3, #1316]	; 0x524
            NRF_TEMP->A2 = NRF_FICR->TEMP.A2;
    4c64:	f8d2 140c 	ldr.w	r1, [r2, #1036]	; 0x40c
    4c68:	f8c3 1528 	str.w	r1, [r3, #1320]	; 0x528
            NRF_TEMP->A3 = NRF_FICR->TEMP.A3;
    4c6c:	f8d2 1410 	ldr.w	r1, [r2, #1040]	; 0x410
    4c70:	f8c3 152c 	str.w	r1, [r3, #1324]	; 0x52c
            NRF_TEMP->A4 = NRF_FICR->TEMP.A4;
    4c74:	f8d2 1414 	ldr.w	r1, [r2, #1044]	; 0x414
    4c78:	f8c3 1530 	str.w	r1, [r3, #1328]	; 0x530
            NRF_TEMP->A5 = NRF_FICR->TEMP.A5;
    4c7c:	f8d2 1418 	ldr.w	r1, [r2, #1048]	; 0x418
    4c80:	f8c3 1534 	str.w	r1, [r3, #1332]	; 0x534
            NRF_TEMP->B0 = NRF_FICR->TEMP.B0;
    4c84:	f8d2 141c 	ldr.w	r1, [r2, #1052]	; 0x41c
    4c88:	f8c3 1540 	str.w	r1, [r3, #1344]	; 0x540
            NRF_TEMP->B1 = NRF_FICR->TEMP.B1;
    4c8c:	f8d2 1420 	ldr.w	r1, [r2, #1056]	; 0x420
    4c90:	f8c3 1544 	str.w	r1, [r3, #1348]	; 0x544
            NRF_TEMP->B2 = NRF_FICR->TEMP.B2;
    4c94:	f8d2 1424 	ldr.w	r1, [r2, #1060]	; 0x424
    4c98:	f8c3 1548 	str.w	r1, [r3, #1352]	; 0x548
            NRF_TEMP->B3 = NRF_FICR->TEMP.B3;
    4c9c:	f8d2 1428 	ldr.w	r1, [r2, #1064]	; 0x428
    4ca0:	f8c3 154c 	str.w	r1, [r3, #1356]	; 0x54c
            NRF_TEMP->B4 = NRF_FICR->TEMP.B4;
    4ca4:	f8d2 142c 	ldr.w	r1, [r2, #1068]	; 0x42c
    4ca8:	f8c3 1550 	str.w	r1, [r3, #1360]	; 0x550
            NRF_TEMP->B5 = NRF_FICR->TEMP.B5;
    4cac:	f8d2 1430 	ldr.w	r1, [r2, #1072]	; 0x430
    4cb0:	f8c3 1554 	str.w	r1, [r3, #1364]	; 0x554
            NRF_TEMP->T0 = NRF_FICR->TEMP.T0;
    4cb4:	f8d2 1434 	ldr.w	r1, [r2, #1076]	; 0x434
    4cb8:	f8c3 1560 	str.w	r1, [r3, #1376]	; 0x560
            NRF_TEMP->T1 = NRF_FICR->TEMP.T1;
    4cbc:	f8d2 1438 	ldr.w	r1, [r2, #1080]	; 0x438
    4cc0:	f8c3 1564 	str.w	r1, [r3, #1380]	; 0x564
            NRF_TEMP->T2 = NRF_FICR->TEMP.T2;
    4cc4:	f8d2 143c 	ldr.w	r1, [r2, #1084]	; 0x43c
    4cc8:	f8c3 1568 	str.w	r1, [r3, #1384]	; 0x568
            NRF_TEMP->T3 = NRF_FICR->TEMP.T3;
    4ccc:	f8d2 1440 	ldr.w	r1, [r2, #1088]	; 0x440
    4cd0:	f8c3 156c 	str.w	r1, [r3, #1388]	; 0x56c
            NRF_TEMP->T4 = NRF_FICR->TEMP.T4;
    4cd4:	f8d2 2444 	ldr.w	r2, [r2, #1092]	; 0x444
    4cd8:	f8c3 2570 	str.w	r2, [r3, #1392]	; 0x570
    #endif

    #if NRF52_ERRATA_98_ENABLE_WORKAROUND
        /* Workaround for Errata 98 "NFCT: Not able to communicate with the peer" found at the Errata document
           for your device located at https://infocenter.nordicsemi.com/index.jsp  */
        if (nrf52_errata_98()){
    4cdc:	f7ff ff8a 	bl	4bf4 <nrf52_errata_103>
    4ce0:	b110      	cbz	r0, 4ce8 <SystemInit+0xbc>
            *(volatile uint32_t *)0x4000568Cul = 0x00038148ul;
    4ce2:	4b38      	ldr	r3, [pc, #224]	; (4dc4 <SystemInit+0x198>)
    4ce4:	4a38      	ldr	r2, [pc, #224]	; (4dc8 <SystemInit+0x19c>)
    4ce6:	601a      	str	r2, [r3, #0]
    #endif

    #if NRF52_ERRATA_103_ENABLE_WORKAROUND && defined(CCM_MAXPACKETSIZE_MAXPACKETSIZE_Pos)
        /* Workaround for Errata 103 "CCM: Wrong reset value of CCM MAXPACKETSIZE" found at the Errata document
           for your device located at https://infocenter.nordicsemi.com/index.jsp  */
        if (nrf52_errata_103()){
    4ce8:	f7ff ff84 	bl	4bf4 <nrf52_errata_103>
    4cec:	b118      	cbz	r0, 4cf6 <SystemInit+0xca>
            NRF_CCM->MAXPACKETSIZE = 0xFBul;
    4cee:	4b37      	ldr	r3, [pc, #220]	; (4dcc <SystemInit+0x1a0>)
    4cf0:	22fb      	movs	r2, #251	; 0xfb
    4cf2:	f8c3 2518 	str.w	r2, [r3, #1304]	; 0x518
    #endif

    #if NRF52_ERRATA_115_ENABLE_WORKAROUND
        /* Workaround for Errata 115 "RAM: RAM content cannot be trusted upon waking up from System ON Idle or System OFF mode" found at the Errata document
           for your device located at https://infocenter.nordicsemi.com/index.jsp  */
        if (nrf52_errata_115()){
    4cf6:	f7ff ff7d 	bl	4bf4 <nrf52_errata_103>
    4cfa:	b148      	cbz	r0, 4d10 <SystemInit+0xe4>
            *(volatile uint32_t *)0x40000EE4 = (*(volatile uint32_t *)0x40000EE4 & 0xFFFFFFF0) | (*(uint32_t *)0x10000258 & 0x0000000F);
    4cfc:	4934      	ldr	r1, [pc, #208]	; (4dd0 <SystemInit+0x1a4>)
    4cfe:	4b35      	ldr	r3, [pc, #212]	; (4dd4 <SystemInit+0x1a8>)
    4d00:	680a      	ldr	r2, [r1, #0]
    4d02:	681b      	ldr	r3, [r3, #0]
    4d04:	f022 020f 	bic.w	r2, r2, #15
    4d08:	f003 030f 	and.w	r3, r3, #15
    4d0c:	4313      	orrs	r3, r2
    4d0e:	600b      	str	r3, [r1, #0]
    #endif

    #if NRF52_ERRATA_120_ENABLE_WORKAROUND
        /* Workaround for Errata 120 "QSPI: Data read or written is corrupted" found at the Errata document
           for your device located at https://infocenter.nordicsemi.com/index.jsp  */
        if (nrf52_errata_120()){
    4d10:	f7ff ff70 	bl	4bf4 <nrf52_errata_103>
    4d14:	b118      	cbz	r0, 4d1e <SystemInit+0xf2>
            *(volatile uint32_t *)0x40029640ul = 0x200ul;
    4d16:	4b30      	ldr	r3, [pc, #192]	; (4dd8 <SystemInit+0x1ac>)
    4d18:	f44f 7200 	mov.w	r2, #512	; 0x200
    4d1c:	601a      	str	r2, [r3, #0]
    #endif

    #if NRF52_ERRATA_136_ENABLE_WORKAROUND
        /* Workaround for Errata 136 "System: Bits in RESETREAS are set when they should not be" found at the Errata document
           for your device located at https://infocenter.nordicsemi.com/index.jsp  */
        if (nrf52_errata_136()){
    4d1e:	f7ff ff5f 	bl	4be0 <nrf52_errata_136>
    4d22:	b148      	cbz	r0, 4d38 <SystemInit+0x10c>
            if (NRF_POWER->RESETREAS & POWER_RESETREAS_RESETPIN_Msk){
    4d24:	f04f 4380 	mov.w	r3, #1073741824	; 0x40000000
    4d28:	f8d3 2400 	ldr.w	r2, [r3, #1024]	; 0x400
    4d2c:	07d2      	lsls	r2, r2, #31
                NRF_POWER->RESETREAS =  ~POWER_RESETREAS_RESETPIN_Msk;
    4d2e:	bf44      	itt	mi
    4d30:	f06f 0201 	mvnmi.w	r2, #1
    4d34:	f8c3 2400 	strmi.w	r2, [r3, #1024]	; 0x400
         || defined (NRF52820_XXAA) || defined (DEVELOP_IN_NRF52820)\
         || defined (NRF52832_XXAA) || defined (DEVELOP_IN_NRF52832)\
         || defined (NRF52832_XXAB) || defined (DEVELOP_IN_NRF52832)\
         || defined (NRF52833_XXAA) || defined (DEVELOP_IN_NRF52833)\
         || defined (NRF52840_XXAA) || defined (DEVELOP_IN_NRF52840)
            uint32_t var1 = *(uint32_t *)0x10000130ul;
    4d38:	4b28      	ldr	r3, [pc, #160]	; (4ddc <SystemInit+0x1b0>)
                        return true;
                }
            }
        #endif
        #if defined (NRF52840_XXAA) || defined (DEVELOP_IN_NRF52840)
            if (var1 == 0x08)
    4d3a:	681b      	ldr	r3, [r3, #0]
    4d3c:	2b08      	cmp	r3, #8
    4d3e:	d10e      	bne.n	4d5e <SystemInit+0x132>
            uint32_t var2 = *(uint32_t *)0x10000134ul;
    4d40:	4b27      	ldr	r3, [pc, #156]	; (4de0 <SystemInit+0x1b4>)
    4d42:	681b      	ldr	r3, [r3, #0]
            {
                switch(var2)
    4d44:	2b05      	cmp	r3, #5
    4d46:	d802      	bhi.n	4d4e <SystemInit+0x122>
            {
                /* Prevent processor from unlocking APPROTECT soft branch after this point. */
                NRF_APPROTECT->FORCEPROTECT = APPROTECT_FORCEPROTECT_FORCEPROTECT_Force;
            }
        #else
            if (nrf52_configuration_249())
    4d48:	4a26      	ldr	r2, [pc, #152]	; (4de4 <SystemInit+0x1b8>)
    4d4a:	5cd3      	ldrb	r3, [r2, r3]
    4d4c:	b13b      	cbz	r3, 4d5e <SystemInit+0x132>
            {
                /* Load APPROTECT soft branch from UICR.
                   If UICR->APPROTECT is disabled, POWER->APPROTECT will be disabled. */
                NRF_APPROTECT->DISABLE = NRF_UICR->APPROTECT;
    4d4e:	f04f 2310 	mov.w	r3, #268439552	; 0x10001000
    4d52:	f8d3 2208 	ldr.w	r2, [r3, #520]	; 0x208
    4d56:	f04f 4380 	mov.w	r3, #1073741824	; 0x40000000
    4d5a:	f8c3 2558 	str.w	r2, [r3, #1368]	; 0x558

    /* Configure GPIO pads as pPin Reset pin if Pin Reset capabilities desired. If CONFIG_GPIO_AS_PINRESET is not
      defined, pin reset will not be available. One GPIO (see Product Specification to see which one) will then be
      reserved for PinReset and not available as normal GPIO. */
    #if defined (CONFIG_GPIO_AS_PINRESET)
        if (((NRF_UICR->PSELRESET[0] & UICR_PSELRESET_CONNECT_Msk) != (UICR_PSELRESET_CONNECT_Connected << UICR_PSELRESET_CONNECT_Pos)) ||
    4d5e:	f04f 2310 	mov.w	r3, #268439552	; 0x10001000
    4d62:	f8d3 2200 	ldr.w	r2, [r3, #512]	; 0x200
    4d66:	2a00      	cmp	r2, #0
    4d68:	db03      	blt.n	4d72 <SystemInit+0x146>
            ((NRF_UICR->PSELRESET[1] & UICR_PSELRESET_CONNECT_Msk) != (UICR_PSELRESET_CONNECT_Connected << UICR_PSELRESET_CONNECT_Pos))){
    4d6a:	f8d3 3204 	ldr.w	r3, [r3, #516]	; 0x204
        if (((NRF_UICR->PSELRESET[0] & UICR_PSELRESET_CONNECT_Msk) != (UICR_PSELRESET_CONNECT_Connected << UICR_PSELRESET_CONNECT_Pos)) ||
    4d6e:	2b00      	cmp	r3, #0
    4d70:	da22      	bge.n	4db8 <SystemInit+0x18c>
    NRF_NVMC->CONFIG = mode << NVMC_CONFIG_WEN_Pos;
    4d72:	491d      	ldr	r1, [pc, #116]	; (4de8 <SystemInit+0x1bc>)
    4d74:	2301      	movs	r3, #1
    4d76:	f8c1 3504 	str.w	r3, [r1, #1284]	; 0x504
    nvmc_wait();
    4d7a:	f7ff ff4f 	bl	4c1c <nvmc_wait>
            nvmc_config(NVMC_CONFIG_WEN_Wen);
            NRF_UICR->PSELRESET[0] = RESET_PIN;
    4d7e:	f04f 2010 	mov.w	r0, #268439552	; 0x10001000
    4d82:	2412      	movs	r4, #18
    4d84:	f8c0 4200 	str.w	r4, [r0, #512]	; 0x200
            nvmc_wait();
    4d88:	f7ff ff48 	bl	4c1c <nvmc_wait>
            NRF_UICR->PSELRESET[1] = RESET_PIN;
    4d8c:	f8c0 4204 	str.w	r4, [r0, #516]	; 0x204
            nvmc_wait();
    4d90:	f7ff ff44 	bl	4c1c <nvmc_wait>
    NRF_NVMC->CONFIG = mode << NVMC_CONFIG_WEN_Pos;
    4d94:	2300      	movs	r3, #0
    4d96:	f8c1 3504 	str.w	r3, [r1, #1284]	; 0x504
    nvmc_wait();
    4d9a:	f7ff ff3f 	bl	4c1c <nvmc_wait>
  __ASM volatile ("dsb 0xF":::"memory");
    4d9e:	f3bf 8f4f 	dsb	sy
                           (SCB->AIRCR & SCB_AIRCR_PRIGROUP_Msk) |
    4da2:	4912      	ldr	r1, [pc, #72]	; (4dec <SystemInit+0x1c0>)
    4da4:	4b12      	ldr	r3, [pc, #72]	; (4df0 <SystemInit+0x1c4>)
    4da6:	68ca      	ldr	r2, [r1, #12]
    4da8:	f402 62e0 	and.w	r2, r2, #1792	; 0x700
    4dac:	4313      	orrs	r3, r2
  SCB->AIRCR  = (uint32_t)((0x5FAUL << SCB_AIRCR_VECTKEY_Pos)    |
    4dae:	60cb      	str	r3, [r1, #12]
    4db0:	f3bf 8f4f 	dsb	sy
    __NOP();
    4db4:	bf00      	nop
  for(;;)                                                           /* wait until reset */
    4db6:	e7fd      	b.n	4db4 <SystemInit+0x188>
    SystemCoreClock = __SYSTEM_CLOCK_64M;
    4db8:	4b0e      	ldr	r3, [pc, #56]	; (4df4 <SystemInit+0x1c8>)
    4dba:	4a0f      	ldr	r2, [pc, #60]	; (4df8 <SystemInit+0x1cc>)
    4dbc:	601a      	str	r2, [r3, #0]
            NVIC_SystemReset();
        }
    #endif

    SystemCoreClockUpdate();
}
    4dbe:	bd10      	pop	{r4, pc}
    4dc0:	4000c000 	.word	0x4000c000
    4dc4:	4000568c 	.word	0x4000568c
    4dc8:	00038148 	.word	0x00038148
    4dcc:	4000f000 	.word	0x4000f000
    4dd0:	40000ee4 	.word	0x40000ee4
    4dd4:	10000258 	.word	0x10000258
    4dd8:	40029640 	.word	0x40029640
    4ddc:	10000130 	.word	0x10000130
    4de0:	10000134 	.word	0x10000134
    4de4:	00007d92 	.word	0x00007d92
    4de8:	4001e000 	.word	0x4001e000
    4dec:	e000ed00 	.word	0xe000ed00
    4df0:	05fa0004 	.word	0x05fa0004
    4df4:	200001a8 	.word	0x200001a8
    4df8:	03d09000 	.word	0x03d09000

00004dfc <z_sys_init_run_level>:
		/* End marker */
		__init_end,
	};
	const struct init_entry *entry;

	for (entry = levels[level]; entry < levels[level+1]; entry++) {
    4dfc:	4b0e      	ldr	r3, [pc, #56]	; (4e38 <z_sys_init_run_level+0x3c>)
{
    4dfe:	b570      	push	{r4, r5, r6, lr}
	for (entry = levels[level]; entry < levels[level+1]; entry++) {
    4e00:	f853 4020 	ldr.w	r4, [r3, r0, lsl #2]
    4e04:	3001      	adds	r0, #1
    4e06:	f853 6020 	ldr.w	r6, [r3, r0, lsl #2]
    4e0a:	42a6      	cmp	r6, r4
    4e0c:	d800      	bhi.n	4e10 <z_sys_init_run_level+0x14>
				dev->state->init_res = rc;
			}
			dev->state->initialized = true;
		}
	}
}
    4e0e:	bd70      	pop	{r4, r5, r6, pc}
		int rc = entry->init(dev);
    4e10:	e9d4 3500 	ldrd	r3, r5, [r4]
    4e14:	4628      	mov	r0, r5
    4e16:	4798      	blx	r3
		if (dev != NULL) {
    4e18:	b165      	cbz	r5, 4e34 <z_sys_init_run_level+0x38>
			if (rc != 0) {
    4e1a:	68eb      	ldr	r3, [r5, #12]
    4e1c:	b130      	cbz	r0, 4e2c <z_sys_init_run_level+0x30>
				if (rc < 0) {
    4e1e:	2800      	cmp	r0, #0
    4e20:	bfb8      	it	lt
    4e22:	4240      	neglt	r0, r0
				dev->state->init_res = rc;
    4e24:	28ff      	cmp	r0, #255	; 0xff
    4e26:	bfa8      	it	ge
    4e28:	20ff      	movge	r0, #255	; 0xff
    4e2a:	7018      	strb	r0, [r3, #0]
			dev->state->initialized = true;
    4e2c:	785a      	ldrb	r2, [r3, #1]
    4e2e:	f042 0201 	orr.w	r2, r2, #1
    4e32:	705a      	strb	r2, [r3, #1]
	for (entry = levels[level]; entry < levels[level+1]; entry++) {
    4e34:	3408      	adds	r4, #8
    4e36:	e7e8      	b.n	4e0a <z_sys_init_run_level+0xe>
    4e38:	000079d0 	.word	0x000079d0

00004e3c <z_impl_device_get_binding>:

const struct device *z_impl_device_get_binding(const char *name)
{
    4e3c:	b570      	push	{r4, r5, r6, lr}
	const struct device *dev;

	/* A null string identifies no device.  So does an empty
	 * string.
	 */
	if ((name == NULL) || (name[0] == '\0')) {
    4e3e:	4605      	mov	r5, r0
    4e40:	b910      	cbnz	r0, 4e48 <z_impl_device_get_binding+0xc>
		return NULL;
    4e42:	2400      	movs	r4, #0
			return dev;
		}
	}

	return NULL;
}
    4e44:	4620      	mov	r0, r4
    4e46:	bd70      	pop	{r4, r5, r6, pc}
	if ((name == NULL) || (name[0] == '\0')) {
    4e48:	7803      	ldrb	r3, [r0, #0]
    4e4a:	2b00      	cmp	r3, #0
    4e4c:	d0f9      	beq.n	4e42 <z_impl_device_get_binding+0x6>
	for (dev = __device_start; dev != __device_end; dev++) {
    4e4e:	4a0f      	ldr	r2, [pc, #60]	; (4e8c <z_impl_device_get_binding+0x50>)
    4e50:	4c0f      	ldr	r4, [pc, #60]	; (4e90 <z_impl_device_get_binding+0x54>)
    4e52:	4616      	mov	r6, r2
    4e54:	4294      	cmp	r4, r2
    4e56:	d108      	bne.n	4e6a <z_impl_device_get_binding+0x2e>
	for (dev = __device_start; dev != __device_end; dev++) {
    4e58:	4c0d      	ldr	r4, [pc, #52]	; (4e90 <z_impl_device_get_binding+0x54>)
    4e5a:	42b4      	cmp	r4, r6
    4e5c:	d0f1      	beq.n	4e42 <z_impl_device_get_binding+0x6>
		if (z_device_ready(dev) && (strcmp(name, dev->name) == 0)) {
    4e5e:	4620      	mov	r0, r4
    4e60:	f002 f9b4 	bl	71cc <z_device_ready>
    4e64:	b950      	cbnz	r0, 4e7c <z_impl_device_get_binding+0x40>
	for (dev = __device_start; dev != __device_end; dev++) {
    4e66:	3418      	adds	r4, #24
    4e68:	e7f7      	b.n	4e5a <z_impl_device_get_binding+0x1e>
		if (z_device_ready(dev) && (dev->name == name)) {
    4e6a:	4620      	mov	r0, r4
    4e6c:	f002 f9ae 	bl	71cc <z_device_ready>
    4e70:	b110      	cbz	r0, 4e78 <z_impl_device_get_binding+0x3c>
    4e72:	6823      	ldr	r3, [r4, #0]
    4e74:	42ab      	cmp	r3, r5
    4e76:	d0e5      	beq.n	4e44 <z_impl_device_get_binding+0x8>
	for (dev = __device_start; dev != __device_end; dev++) {
    4e78:	3418      	adds	r4, #24
    4e7a:	e7eb      	b.n	4e54 <z_impl_device_get_binding+0x18>
		if (z_device_ready(dev) && (strcmp(name, dev->name) == 0)) {
    4e7c:	6821      	ldr	r1, [r4, #0]
    4e7e:	4628      	mov	r0, r5
    4e80:	f001 fe0d 	bl	6a9e <strcmp>
    4e84:	2800      	cmp	r0, #0
    4e86:	d1ee      	bne.n	4e66 <z_impl_device_get_binding+0x2a>
    4e88:	e7dc      	b.n	4e44 <z_impl_device_get_binding+0x8>
    4e8a:	bf00      	nop
    4e8c:	00007680 	.word	0x00007680
    4e90:	000075d8 	.word	0x000075d8

00004e94 <z_impl_z_errno>:
#include <syscalls/z_errno_mrsh.c>

#else
int *z_impl_z_errno(void)
{
	return &_current->errno_var;
    4e94:	4b01      	ldr	r3, [pc, #4]	; (4e9c <z_impl_z_errno+0x8>)
    4e96:	6898      	ldr	r0, [r3, #8]
}
    4e98:	3060      	adds	r0, #96	; 0x60
    4e9a:	4770      	bx	lr
    4e9c:	20000c70 	.word	0x20000c70

00004ea0 <idle>:
#endif	/* CONFIG_PM */
	sys_clock_idle_exit();
}

void idle(void *unused1, void *unused2, void *unused3)
{
    4ea0:	b508      	push	{r3, lr}
		 * higher level construct.
		 */
		(void) arch_irq_lock();

#ifdef CONFIG_PM
		_kernel.idle = z_get_next_timeout_expiry();
    4ea2:	4c09      	ldr	r4, [pc, #36]	; (4ec8 <idle+0x28>)
	__asm__ volatile(
    4ea4:	f04f 0220 	mov.w	r2, #32
    4ea8:	f3ef 8311 	mrs	r3, BASEPRI
    4eac:	f382 8812 	msr	BASEPRI_MAX, r2
    4eb0:	f3bf 8f6f 	isb	sy
    4eb4:	f002 faf7 	bl	74a6 <z_get_next_timeout_expiry>
    4eb8:	61a0      	str	r0, [r4, #24]
		 * processing in those cases i.e. skips k_cpu_idle().
		 * The kernel's idle processing re-enables interrupts
		 * which is essential for the kernel's scheduling
		 * logic.
		 */
		if (pm_system_suspend(_kernel.idle) == false) {
    4eba:	f7fd fa89 	bl	23d0 <pm_system_suspend>
    4ebe:	2800      	cmp	r0, #0
    4ec0:	d1f0      	bne.n	4ea4 <idle+0x4>
	arch_cpu_idle();
    4ec2:	f7fd fb5b 	bl	257c <arch_cpu_idle>
}
    4ec6:	e7ed      	b.n	4ea4 <idle+0x4>
    4ec8:	20000c70 	.word	0x20000c70

00004ecc <init_idle_thread>:
} /* LCOV_EXCL_LINE ... because we just dumped final coverage data */

#if defined(CONFIG_MULTITHREADING)
__boot_func
static void init_idle_thread(int i)
{
    4ecc:	b530      	push	{r4, r5, lr}
	snprintk(tname, 8, "idle %02d", i);
#else
	char *tname = NULL;
#endif /* CONFIG_THREAD_NAME */

	z_setup_new_thread(thread, stack,
    4ece:	2300      	movs	r3, #0
{
    4ed0:	b087      	sub	sp, #28
	z_setup_new_thread(thread, stack,
    4ed2:	2201      	movs	r2, #1
    4ed4:	e9cd 2304 	strd	r2, r3, [sp, #16]
    4ed8:	220f      	movs	r2, #15
    4eda:	e9cd 3202 	strd	r3, r2, [sp, #8]
	struct k_thread *thread = &z_idle_threads[i];
    4ede:	4c0d      	ldr	r4, [pc, #52]	; (4f14 <init_idle_thread+0x48>)
			  CONFIG_IDLE_STACK_SIZE, idle, &_kernel.cpus[i],
    4ee0:	4a0d      	ldr	r2, [pc, #52]	; (4f18 <init_idle_thread+0x4c>)
	z_setup_new_thread(thread, stack,
    4ee2:	9301      	str	r3, [sp, #4]
    4ee4:	490d      	ldr	r1, [pc, #52]	; (4f1c <init_idle_thread+0x50>)
			  CONFIG_IDLE_STACK_SIZE, idle, &_kernel.cpus[i],
    4ee6:	2318      	movs	r3, #24
	struct k_thread *thread = &z_idle_threads[i];
    4ee8:	eb04 14c0 	add.w	r4, r4, r0, lsl #7
			  CONFIG_IDLE_STACK_SIZE, idle, &_kernel.cpus[i],
    4eec:	fb03 2300 	mla	r3, r3, r0, r2
	z_setup_new_thread(thread, stack,
    4ef0:	f44f 75b0 	mov.w	r5, #352	; 0x160
    4ef4:	9300      	str	r3, [sp, #0]
    4ef6:	fb05 1100 	mla	r1, r5, r0, r1
    4efa:	4b09      	ldr	r3, [pc, #36]	; (4f20 <init_idle_thread+0x54>)
    4efc:	f44f 72a0 	mov.w	r2, #320	; 0x140
    4f00:	4620      	mov	r0, r4
    4f02:	f000 fd61 	bl	59c8 <z_setup_new_thread>
	SYS_PORT_TRACING_FUNC(k_thread, sched_resume, thread);
}

static inline void z_mark_thread_as_started(struct k_thread *thread)
{
	thread->base.thread_state &= ~_THREAD_PRESTART;
    4f06:	7b63      	ldrb	r3, [r4, #13]
    4f08:	f023 0304 	bic.w	r3, r3, #4
    4f0c:	7363      	strb	r3, [r4, #13]
	z_mark_thread_as_started(thread);

#ifdef CONFIG_SMP
	thread->base.is_idle = 1U;
#endif
}
    4f0e:	b007      	add	sp, #28
    4f10:	bd30      	pop	{r4, r5, pc}
    4f12:	bf00      	nop
    4f14:	200004a0 	.word	0x200004a0
    4f18:	20000c70 	.word	0x20000c70
    4f1c:	200025c0 	.word	0x200025c0
    4f20:	00004ea1 	.word	0x00004ea1

00004f24 <bg_thread_main>:
{
    4f24:	b508      	push	{r3, lr}
	z_sys_post_kernel = true;
    4f26:	4b0a      	ldr	r3, [pc, #40]	; (4f50 <bg_thread_main+0x2c>)
    4f28:	2201      	movs	r2, #1
	z_sys_init_run_level(_SYS_INIT_LEVEL_POST_KERNEL);
    4f2a:	2002      	movs	r0, #2
	z_sys_post_kernel = true;
    4f2c:	701a      	strb	r2, [r3, #0]
	z_sys_init_run_level(_SYS_INIT_LEVEL_POST_KERNEL);
    4f2e:	f7ff ff65 	bl	4dfc <z_sys_init_run_level>
	boot_banner();
    4f32:	f001 f821 	bl	5f78 <boot_banner>
	z_sys_init_run_level(_SYS_INIT_LEVEL_APPLICATION);
    4f36:	2003      	movs	r0, #3
    4f38:	f7ff ff60 	bl	4dfc <z_sys_init_run_level>
	z_init_static_threads();
    4f3c:	f000 fda2 	bl	5a84 <z_init_static_threads>
	main();
    4f40:	f7fc fb70 	bl	1624 <main>
	z_main_thread.base.user_options &= ~K_ESSENTIAL;
    4f44:	4a03      	ldr	r2, [pc, #12]	; (4f54 <bg_thread_main+0x30>)
    4f46:	7b13      	ldrb	r3, [r2, #12]
    4f48:	f023 0301 	bic.w	r3, r3, #1
    4f4c:	7313      	strb	r3, [r2, #12]
} /* LCOV_EXCL_LINE ... because we just dumped final coverage data */
    4f4e:	bd08      	pop	{r3, pc}
    4f50:	20000f47 	.word	0x20000f47
    4f54:	20000520 	.word	0x20000520

00004f58 <z_bss_zero>:
	(void)memset(__bss_start, 0, __bss_end - __bss_start);
    4f58:	4802      	ldr	r0, [pc, #8]	; (4f64 <z_bss_zero+0xc>)
    4f5a:	4a03      	ldr	r2, [pc, #12]	; (4f68 <z_bss_zero+0x10>)
    4f5c:	2100      	movs	r1, #0
    4f5e:	1a12      	subs	r2, r2, r0
    4f60:	f001 bdb4 	b.w	6acc <memset>
    4f64:	20000280 	.word	0x20000280
    4f68:	20001104 	.word	0x20001104

00004f6c <z_cstart>:
 *
 * @return Does not return
 */
__boot_func
FUNC_NORETURN void z_cstart(void)
{
    4f6c:	b580      	push	{r7, lr}
 *
 * @return N/A
 */
static ALWAYS_INLINE void z_arm_interrupt_stack_setup(void)
{
	uint32_t msp =
    4f6e:	f8df 80d8 	ldr.w	r8, [pc, #216]	; 5048 <z_cstart+0xdc>
    4f72:	b0a6      	sub	sp, #152	; 0x98
  __ASM volatile ("MSR msp, %0" : : "r" (topOfMainStack) : );
    4f74:	f388 8808 	msr	MSP, r8
	 * for Cortex-M3 and Cortex-M4 (ARMv7-M) MCUs. For the rest
	 * of ARM Cortex-M processors this setting is enforced by
	 * default and it is not configurable.
	 */
#if defined(CONFIG_CPU_CORTEX_M3) || defined(CONFIG_CPU_CORTEX_M4)
	SCB->CCR |= SCB_CCR_STKALIGN_Msk;
    4f78:	4d2d      	ldr	r5, [pc, #180]	; (5030 <z_cstart+0xc4>)
#endif
#ifdef CONFIG_USERSPACE
	dummy_thread->mem_domain_info.mem_domain = &k_mem_domain_default;
#endif

	_current_cpu->current = dummy_thread;
    4f7a:	4e2e      	ldr	r6, [pc, #184]	; (5034 <z_cstart+0xc8>)
    4f7c:	696b      	ldr	r3, [r5, #20]
	stack_ptr = z_setup_new_thread(&z_main_thread, z_main_stack,
    4f7e:	f8df 90cc 	ldr.w	r9, [pc, #204]	; 504c <z_cstart+0xe0>
    4f82:	f443 7300 	orr.w	r3, r3, #512	; 0x200
    SCB->SHP[(((uint32_t)IRQn) & 0xFUL)-4UL] = (uint8_t)((priority << (8U - __NVIC_PRIO_BITS)) & (uint32_t)0xFFUL);
    4f86:	2400      	movs	r4, #0
    4f88:	616b      	str	r3, [r5, #20]
    4f8a:	23e0      	movs	r3, #224	; 0xe0
    4f8c:	f885 3022 	strb.w	r3, [r5, #34]	; 0x22
    4f90:	77ec      	strb	r4, [r5, #31]
    4f92:	762c      	strb	r4, [r5, #24]
    4f94:	766c      	strb	r4, [r5, #25]
    4f96:	76ac      	strb	r4, [r5, #26]
    4f98:	f885 4020 	strb.w	r4, [r5, #32]
#if defined(CONFIG_ARM_SECURE_FIRMWARE)
	NVIC_SetPriority(SecureFault_IRQn, _EXC_FAULT_PRIO);
#endif /* CONFIG_ARM_SECURE_FIRMWARE */

	/* Enable Usage, Mem, & Bus Faults */
	SCB->SHCSR |= SCB_SHCSR_USGFAULTENA_Msk | SCB_SHCSR_MEMFAULTENA_Msk |
    4f9c:	6a6b      	ldr	r3, [r5, #36]	; 0x24
    4f9e:	f443 23e0 	orr.w	r3, r3, #458752	; 0x70000
    4fa2:	626b      	str	r3, [r5, #36]	; 0x24
    4fa4:	f885 4023 	strb.w	r4, [r5, #35]	; 0x23

static ALWAYS_INLINE void arch_kernel_init(void)
{
	z_arm_interrupt_stack_setup();
	z_arm_exc_setup();
	z_arm_fault_init();
    4fa8:	f7fd fd42 	bl	2a30 <z_arm_fault_init>
	z_arm_cpu_idle_init();
    4fac:	f7fd fae0 	bl	2570 <z_arm_cpu_idle_init>
static ALWAYS_INLINE void z_arm_clear_faults(void)
{
#if defined(CONFIG_ARMV6_M_ARMV8_M_BASELINE)
#elif defined(CONFIG_ARMV7_M_ARMV8_M_MAINLINE)
	/* Reset all faults */
	SCB->CFSR = SCB_CFSR_USGFAULTSR_Msk |
    4fb0:	f04f 33ff 	mov.w	r3, #4294967295
    4fb4:	62ab      	str	r3, [r5, #40]	; 0x28
		    SCB_CFSR_MEMFAULTSR_Msk |
		    SCB_CFSR_BUSFAULTSR_Msk;

	/* Clear all Hard Faults - HFSR is write-one-to-clear */
	SCB->HFSR = 0xffffffff;
    4fb6:	62eb      	str	r3, [r5, #44]	; 0x2c
	z_arm_clear_faults();
#if defined(CONFIG_ARM_MPU)
	z_arm_mpu_init();
    4fb8:	f7fd fe30 	bl	2c1c <z_arm_mpu_init>
	 * to set up access permissions for fixed memory sections, such
	 * as Application Memory or No-Cacheable SRAM area.
	 *
	 * This function is invoked once, upon system initialization.
	 */
	z_arm_configure_static_mpu_regions();
    4fbc:	f7fd fda0 	bl	2b00 <z_arm_configure_static_mpu_regions>
	dummy_thread->base.user_options = K_ESSENTIAL;
    4fc0:	f240 1301 	movw	r3, #257	; 0x101
    4fc4:	f8ad 3024 	strh.w	r3, [sp, #36]	; 0x24
	_current_cpu->current = dummy_thread;
    4fc8:	ab06      	add	r3, sp, #24
    4fca:	60b3      	str	r3, [r6, #8]
	dummy_thread->stack_info.size = 0U;
    4fcc:	e9cd 441f 	strd	r4, r4, [sp, #124]	; 0x7c
	struct k_thread dummy_thread;

	z_dummy_thread_init(&dummy_thread);
#endif
	/* do any necessary initialization of static devices */
	z_device_state_init();
    4fd0:	f002 f8fb 	bl	71ca <z_device_state_init>

	/* perform basic hardware initialization */
	z_sys_init_run_level(_SYS_INIT_LEVEL_PRE_KERNEL_1);
    4fd4:	4620      	mov	r0, r4
    4fd6:	f7ff ff11 	bl	4dfc <z_sys_init_run_level>
	z_sys_init_run_level(_SYS_INIT_LEVEL_PRE_KERNEL_2);
    4fda:	2001      	movs	r0, #1
	_kernel.ready_q.cache = &z_main_thread;
    4fdc:	4d16      	ldr	r5, [pc, #88]	; (5038 <z_cstart+0xcc>)
	z_sys_init_run_level(_SYS_INIT_LEVEL_PRE_KERNEL_2);
    4fde:	f7ff ff0d 	bl	4dfc <z_sys_init_run_level>
	z_sched_init();
    4fe2:	f000 fb9b 	bl	571c <z_sched_init>
	stack_ptr = z_setup_new_thread(&z_main_thread, z_main_stack,
    4fe6:	4b15      	ldr	r3, [pc, #84]	; (503c <z_cstart+0xd0>)
    4fe8:	9305      	str	r3, [sp, #20]
    4fea:	2301      	movs	r3, #1
    4fec:	4914      	ldr	r1, [pc, #80]	; (5040 <z_cstart+0xd4>)
    4fee:	9400      	str	r4, [sp, #0]
    4ff0:	e9cd 4303 	strd	r4, r3, [sp, #12]
    4ff4:	f44f 6280 	mov.w	r2, #1024	; 0x400
    4ff8:	464b      	mov	r3, r9
    4ffa:	e9cd 4401 	strd	r4, r4, [sp, #4]
    4ffe:	4628      	mov	r0, r5
	_kernel.ready_q.cache = &z_main_thread;
    5000:	61f5      	str	r5, [r6, #28]
	stack_ptr = z_setup_new_thread(&z_main_thread, z_main_stack,
    5002:	f000 fce1 	bl	59c8 <z_setup_new_thread>
    5006:	7b6a      	ldrb	r2, [r5, #13]
    5008:	f022 0204 	bic.w	r2, r2, #4
    500c:	736a      	strb	r2, [r5, #13]
    500e:	4607      	mov	r7, r0
	z_ready_thread(&z_main_thread);
    5010:	4628      	mov	r0, r5
    5012:	f002 f994 	bl	733e <z_ready_thread>
		init_idle_thread(i);
    5016:	4620      	mov	r0, r4
    5018:	f7ff ff58 	bl	4ecc <init_idle_thread>
		_kernel.cpus[i].idle_thread = &z_idle_threads[i];
    501c:	4b09      	ldr	r3, [pc, #36]	; (5044 <z_cstart+0xd8>)
    501e:	60f3      	str	r3, [r6, #12]
	arch_switch_to_main_thread(&z_main_thread, stack_ptr, bg_thread_main);
    5020:	464a      	mov	r2, r9
    5022:	4639      	mov	r1, r7
    5024:	4628      	mov	r0, r5
		_kernel.cpus[i].id = i;
    5026:	7534      	strb	r4, [r6, #20]
		_kernel.cpus[i].irq_stack =
    5028:	f8c6 8004 	str.w	r8, [r6, #4]
	arch_switch_to_main_thread(&z_main_thread, stack_ptr, bg_thread_main);
    502c:	f7fd fbbe 	bl	27ac <arch_switch_to_main_thread>
	CODE_UNREACHABLE; /* LCOV_EXCL_LINE */
    5030:	e000ed00 	.word	0xe000ed00
    5034:	20000c70 	.word	0x20000c70
    5038:	20000520 	.word	0x20000520
    503c:	00007d9e 	.word	0x00007d9e
    5040:	200021a0 	.word	0x200021a0
    5044:	200004a0 	.word	0x200004a0
    5048:	20002f40 	.word	0x20002f40
    504c:	00004f25 	.word	0x00004f25

00005050 <init_mem_slab_module>:
 * Perform any initialization that wasn't done at build time.
 *
 * @return N/A
 */
static int init_mem_slab_module(const struct device *dev)
{
    5050:	b570      	push	{r4, r5, r6, lr}
	int rc = 0;
	ARG_UNUSED(dev);

	STRUCT_SECTION_FOREACH(k_mem_slab, slab) {
    5052:	4b0e      	ldr	r3, [pc, #56]	; (508c <init_mem_slab_module+0x3c>)
    5054:	4c0e      	ldr	r4, [pc, #56]	; (5090 <init_mem_slab_module+0x40>)
    5056:	42a3      	cmp	r3, r4
    5058:	d301      	bcc.n	505e <init_mem_slab_module+0xe>
			goto out;
		}
		z_object_init(slab);
	}

out:
    505a:	2000      	movs	r0, #0
	return rc;
}
    505c:	bd70      	pop	{r4, r5, r6, pc}
	CHECKIF(((slab->block_size | (uintptr_t)slab->buffer) &
    505e:	e9d3 0103 	ldrd	r0, r1, [r3, #12]
    5062:	ea41 0200 	orr.w	r2, r1, r0
    5066:	f012 0203 	ands.w	r2, r2, #3
    506a:	d10b      	bne.n	5084 <init_mem_slab_module+0x34>
	for (j = 0U; j < slab->num_blocks; j++) {
    506c:	689d      	ldr	r5, [r3, #8]
	slab->free_list = NULL;
    506e:	615a      	str	r2, [r3, #20]
	for (j = 0U; j < slab->num_blocks; j++) {
    5070:	42aa      	cmp	r2, r5
    5072:	d101      	bne.n	5078 <init_mem_slab_module+0x28>
	STRUCT_SECTION_FOREACH(k_mem_slab, slab) {
    5074:	331c      	adds	r3, #28
    5076:	e7ee      	b.n	5056 <init_mem_slab_module+0x6>
		*(char **)p = slab->free_list;
    5078:	695e      	ldr	r6, [r3, #20]
    507a:	600e      	str	r6, [r1, #0]
	for (j = 0U; j < slab->num_blocks; j++) {
    507c:	3201      	adds	r2, #1
		slab->free_list = p;
    507e:	6159      	str	r1, [r3, #20]
		p += slab->block_size;
    5080:	4401      	add	r1, r0
	for (j = 0U; j < slab->num_blocks; j++) {
    5082:	e7f5      	b.n	5070 <init_mem_slab_module+0x20>
		return -EINVAL;
    5084:	f06f 0015 	mvn.w	r0, #21
	return rc;
    5088:	e7e8      	b.n	505c <init_mem_slab_module+0xc>
    508a:	bf00      	nop
    508c:	20000230 	.word	0x20000230
    5090:	20000230 	.word	0x20000230

00005094 <k_mem_slab_alloc>:

	return rc;
}

int k_mem_slab_alloc(struct k_mem_slab *slab, void **mem, k_timeout_t timeout)
{
    5094:	b5d3      	push	{r0, r1, r4, r6, r7, lr}
    5096:	460c      	mov	r4, r1
    5098:	4616      	mov	r6, r2
    509a:	461f      	mov	r7, r3
    509c:	f04f 0320 	mov.w	r3, #32
    50a0:	f3ef 8111 	mrs	r1, BASEPRI
    50a4:	f383 8812 	msr	BASEPRI_MAX, r3
    50a8:	f3bf 8f6f 	isb	sy
	k_spinlock_key_t key = k_spin_lock(&slab->lock);
	int result;

	SYS_PORT_TRACING_OBJ_FUNC_ENTER(k_mem_slab, alloc, slab, timeout);

	if (slab->free_list != NULL) {
    50ac:	6943      	ldr	r3, [r0, #20]
    50ae:	b15b      	cbz	r3, 50c8 <k_mem_slab_alloc+0x34>
		/* take a free block */
		*mem = slab->free_list;
    50b0:	6023      	str	r3, [r4, #0]
		slab->free_list = *(char **)(slab->free_list);
    50b2:	681b      	ldr	r3, [r3, #0]
    50b4:	6143      	str	r3, [r0, #20]
		slab->num_used++;
    50b6:	6983      	ldr	r3, [r0, #24]
    50b8:	3301      	adds	r3, #1
    50ba:	6183      	str	r3, [r0, #24]

#ifdef CONFIG_MEM_SLAB_TRACE_MAX_UTILIZATION
		slab->max_used = MAX(slab->num_used, slab->max_used);
#endif

		result = 0;
    50bc:	2000      	movs	r0, #0
	__asm__ volatile(
    50be:	f381 8811 	msr	BASEPRI, r1
    50c2:	f3bf 8f6f 	isb	sy

	SYS_PORT_TRACING_OBJ_FUNC_EXIT(k_mem_slab, alloc, slab, timeout, result);

	k_spin_unlock(&slab->lock, key);

	return result;
    50c6:	e011      	b.n	50ec <k_mem_slab_alloc+0x58>
	} else if (K_TIMEOUT_EQ(timeout, K_NO_WAIT) ||
    50c8:	ea56 0207 	orrs.w	r2, r6, r7
    50cc:	d103      	bne.n	50d6 <k_mem_slab_alloc+0x42>
		*mem = NULL;
    50ce:	6023      	str	r3, [r4, #0]
		result = -ENOMEM;
    50d0:	f06f 000b 	mvn.w	r0, #11
    50d4:	e7f3      	b.n	50be <k_mem_slab_alloc+0x2a>
		result = z_pend_curr(&slab->lock, key, &slab->wait_q, timeout);
    50d6:	4602      	mov	r2, r0
    50d8:	e9cd 6700 	strd	r6, r7, [sp]
    50dc:	3008      	adds	r0, #8
    50de:	f000 fa6f 	bl	55c0 <z_pend_curr>
		if (result == 0) {
    50e2:	b918      	cbnz	r0, 50ec <k_mem_slab_alloc+0x58>
			*mem = _current->base.swap_data;
    50e4:	4b02      	ldr	r3, [pc, #8]	; (50f0 <k_mem_slab_alloc+0x5c>)
    50e6:	689b      	ldr	r3, [r3, #8]
    50e8:	695b      	ldr	r3, [r3, #20]
    50ea:	6023      	str	r3, [r4, #0]
}
    50ec:	b002      	add	sp, #8
    50ee:	bdd0      	pop	{r4, r6, r7, pc}
    50f0:	20000c70 	.word	0x20000c70

000050f4 <z_impl_k_mutex_lock>:
	}
	return false;
}

int z_impl_k_mutex_lock(struct k_mutex *mutex, k_timeout_t timeout)
{
    50f4:	e92d 41f3 	stmdb	sp!, {r0, r1, r4, r5, r6, r7, r8, lr}
    50f8:	4604      	mov	r4, r0
    50fa:	4616      	mov	r6, r2
    50fc:	461f      	mov	r7, r3
	__asm__ volatile(
    50fe:	f04f 0320 	mov.w	r3, #32
    5102:	f3ef 8811 	mrs	r8, BASEPRI
    5106:	f383 8812 	msr	BASEPRI_MAX, r3
    510a:	f3bf 8f6f 	isb	sy

	SYS_PORT_TRACING_OBJ_FUNC_ENTER(k_mutex, lock, mutex, timeout);

	key = k_spin_lock(&lock);

	if (likely((mutex->lock_count == 0U) || (mutex->owner == _current))) {
    510e:	68c3      	ldr	r3, [r0, #12]
    5110:	4a35      	ldr	r2, [pc, #212]	; (51e8 <z_impl_k_mutex_lock+0xf4>)
    5112:	b16b      	cbz	r3, 5130 <z_impl_k_mutex_lock+0x3c>
    5114:	6880      	ldr	r0, [r0, #8]
    5116:	6891      	ldr	r1, [r2, #8]
    5118:	4288      	cmp	r0, r1
    511a:	d019      	beq.n	5150 <z_impl_k_mutex_lock+0x5c>
		SYS_PORT_TRACING_OBJ_FUNC_EXIT(k_mutex, lock, mutex, timeout, 0);

		return 0;
	}

	if (unlikely(K_TIMEOUT_EQ(timeout, K_NO_WAIT))) {
    511c:	ea56 0307 	orrs.w	r3, r6, r7
    5120:	d118      	bne.n	5154 <z_impl_k_mutex_lock+0x60>
	__asm__ volatile(
    5122:	f388 8811 	msr	BASEPRI, r8
    5126:	f3bf 8f6f 	isb	sy
		k_spin_unlock(&lock, key);

		SYS_PORT_TRACING_OBJ_FUNC_EXIT(k_mutex, lock, mutex, timeout, -EBUSY);

		return -EBUSY;
    512a:	f06f 000f 	mvn.w	r0, #15
    512e:	e00c      	b.n	514a <z_impl_k_mutex_lock+0x56>
					_current->base.prio :
    5130:	6891      	ldr	r1, [r2, #8]
    5132:	f991 100e 	ldrsb.w	r1, [r1, #14]
		mutex->owner_orig_prio = (mutex->lock_count == 0U) ?
    5136:	6121      	str	r1, [r4, #16]
		mutex->lock_count++;
    5138:	3301      	adds	r3, #1
    513a:	60e3      	str	r3, [r4, #12]
		mutex->owner = _current;
    513c:	6893      	ldr	r3, [r2, #8]
    513e:	60a3      	str	r3, [r4, #8]
    5140:	f388 8811 	msr	BASEPRI, r8
    5144:	f3bf 8f6f 	isb	sy
		return 0;
    5148:	2000      	movs	r0, #0
	}

	SYS_PORT_TRACING_OBJ_FUNC_EXIT(k_mutex, lock, mutex, timeout, -EAGAIN);

	return -EAGAIN;
}
    514a:	b002      	add	sp, #8
    514c:	e8bd 81f0 	ldmia.w	sp!, {r4, r5, r6, r7, r8, pc}
					_current->base.prio :
    5150:	6921      	ldr	r1, [r4, #16]
    5152:	e7f0      	b.n	5136 <z_impl_k_mutex_lock+0x42>
	new_prio = new_prio_for_inheritance(_current->base.prio,
    5154:	f991 100e 	ldrsb.w	r1, [r1, #14]
    5158:	f990 300e 	ldrsb.w	r3, [r0, #14]
	thread->base.thread_state &= ~states;
}

static inline bool z_is_under_prio_ceiling(int prio)
{
	return prio >= CONFIG_PRIORITY_CEILING;
    515c:	4299      	cmp	r1, r3
    515e:	bfa8      	it	ge
    5160:	4619      	movge	r1, r3
    5162:	f06f 027e 	mvn.w	r2, #126	; 0x7e
    5166:	4291      	cmp	r1, r2
    5168:	bfb8      	it	lt
    516a:	4611      	movlt	r1, r2
	if (z_is_prio_higher(new_prio, mutex->owner->base.prio)) {
    516c:	428b      	cmp	r3, r1
    516e:	dd2f      	ble.n	51d0 <z_impl_k_mutex_lock+0xdc>
		return z_set_prio(mutex->owner, new_prio);
    5170:	f000 fa3a 	bl	55e8 <z_set_prio>
    5174:	4605      	mov	r5, r0
	int got_mutex = z_pend_curr(&lock, key, &mutex->wait_q, timeout);
    5176:	e9cd 6700 	strd	r6, r7, [sp]
    517a:	481c      	ldr	r0, [pc, #112]	; (51ec <z_impl_k_mutex_lock+0xf8>)
    517c:	4622      	mov	r2, r4
    517e:	4641      	mov	r1, r8
    5180:	f000 fa1e 	bl	55c0 <z_pend_curr>
	if (got_mutex == 0) {
    5184:	2800      	cmp	r0, #0
    5186:	d0e0      	beq.n	514a <z_impl_k_mutex_lock+0x56>
	__asm__ volatile(
    5188:	f04f 0320 	mov.w	r3, #32
    518c:	f3ef 8611 	mrs	r6, BASEPRI
    5190:	f383 8812 	msr	BASEPRI_MAX, r3
    5194:	f3bf 8f6f 	isb	sy
 * @return true if empty, false otherwise
 */

static inline bool sys_dlist_is_empty(sys_dlist_t *list)
{
	return list->head == list;
    5198:	6823      	ldr	r3, [r4, #0]
    519a:	6921      	ldr	r1, [r4, #16]
 * @return a pointer to the head element, NULL if list is empty
 */

static inline sys_dnode_t *sys_dlist_peek_head(sys_dlist_t *list)
{
	return sys_dlist_is_empty(list) ? NULL : list->head;
    519c:	429c      	cmp	r4, r3
    519e:	d00a      	beq.n	51b6 <z_impl_k_mutex_lock+0xc2>
		new_prio_for_inheritance(waiter->base.prio, mutex->owner_orig_prio) :
    51a0:	b14b      	cbz	r3, 51b6 <z_impl_k_mutex_lock+0xc2>
    51a2:	f993 300e 	ldrsb.w	r3, [r3, #14]
    51a6:	4299      	cmp	r1, r3
    51a8:	bfa8      	it	ge
    51aa:	4619      	movge	r1, r3
    51ac:	f06f 037e 	mvn.w	r3, #126	; 0x7e
    51b0:	4299      	cmp	r1, r3
    51b2:	bfb8      	it	lt
    51b4:	4619      	movlt	r1, r3
	resched = adjust_owner_prio(mutex, new_prio) || resched;
    51b6:	68a0      	ldr	r0, [r4, #8]
	if (mutex->owner->base.prio != new_prio) {
    51b8:	f990 300e 	ldrsb.w	r3, [r0, #14]
    51bc:	4299      	cmp	r1, r3
    51be:	d109      	bne.n	51d4 <z_impl_k_mutex_lock+0xe0>
	if (resched) {
    51c0:	b16d      	cbz	r5, 51de <z_impl_k_mutex_lock+0xea>
		z_reschedule(&lock, key);
    51c2:	480a      	ldr	r0, [pc, #40]	; (51ec <z_impl_k_mutex_lock+0xf8>)
    51c4:	4631      	mov	r1, r6
    51c6:	f000 f8a1 	bl	530c <z_reschedule>
	return -EAGAIN;
    51ca:	f06f 000a 	mvn.w	r0, #10
    51ce:	e7bc      	b.n	514a <z_impl_k_mutex_lock+0x56>
	bool resched = false;
    51d0:	2500      	movs	r5, #0
    51d2:	e7d0      	b.n	5176 <z_impl_k_mutex_lock+0x82>
		return z_set_prio(mutex->owner, new_prio);
    51d4:	f000 fa08 	bl	55e8 <z_set_prio>
	resched = adjust_owner_prio(mutex, new_prio) || resched;
    51d8:	2800      	cmp	r0, #0
    51da:	d1f2      	bne.n	51c2 <z_impl_k_mutex_lock+0xce>
    51dc:	e7f0      	b.n	51c0 <z_impl_k_mutex_lock+0xcc>
	__asm__ volatile(
    51de:	f386 8811 	msr	BASEPRI, r6
    51e2:	f3bf 8f6f 	isb	sy
    51e6:	e7f0      	b.n	51ca <z_impl_k_mutex_lock+0xd6>
    51e8:	20000c70 	.word	0x20000c70
    51ec:	20000f48 	.word	0x20000f48

000051f0 <z_impl_k_mutex_unlock>:
}
#include <syscalls/k_mutex_lock_mrsh.c>
#endif

int z_impl_k_mutex_unlock(struct k_mutex *mutex)
{
    51f0:	b538      	push	{r3, r4, r5, lr}

	__ASSERT(!arch_is_in_isr(), "mutexes cannot be used inside ISRs");

	SYS_PORT_TRACING_OBJ_FUNC_ENTER(k_mutex, unlock, mutex);

	CHECKIF(mutex->owner == NULL) {
    51f2:	6883      	ldr	r3, [r0, #8]
{
    51f4:	4604      	mov	r4, r0
	CHECKIF(mutex->owner == NULL) {
    51f6:	2b00      	cmp	r3, #0
    51f8:	d036      	beq.n	5268 <z_impl_k_mutex_unlock+0x78>
		return -EINVAL;
	}
	/*
	 * The current thread does not own the mutex.
	 */
	CHECKIF(mutex->owner != _current) {
    51fa:	4a1e      	ldr	r2, [pc, #120]	; (5274 <z_impl_k_mutex_unlock+0x84>)
    51fc:	6892      	ldr	r2, [r2, #8]
    51fe:	4293      	cmp	r3, r2
    5200:	d135      	bne.n	526e <z_impl_k_mutex_unlock+0x7e>
static inline void z_sched_lock(void)
{
	__ASSERT(!arch_is_in_isr(), "");
	__ASSERT(_current->base.sched_locked != 1U, "");

	--_current->base.sched_locked;
    5202:	7bda      	ldrb	r2, [r3, #15]
    5204:	3a01      	subs	r2, #1
    5206:	73da      	strb	r2, [r3, #15]

	/*
	 * If we are the owner and count is greater than 1, then decrement
	 * the count and return and keep current thread as the owner.
	 */
	if (mutex->lock_count > 1U) {
    5208:	68c3      	ldr	r3, [r0, #12]
    520a:	2b01      	cmp	r3, #1
    520c:	d905      	bls.n	521a <z_impl_k_mutex_unlock+0x2a>
		mutex->lock_count--;
    520e:	3b01      	subs	r3, #1
    5210:	60c3      	str	r3, [r0, #12]


k_mutex_unlock_return:
	SYS_PORT_TRACING_OBJ_FUNC_EXIT(k_mutex, unlock, mutex, 0);

	k_sched_unlock();
    5212:	f000 fa67 	bl	56e4 <k_sched_unlock>

	return 0;
    5216:	2000      	movs	r0, #0
}
    5218:	bd38      	pop	{r3, r4, r5, pc}
	__asm__ volatile(
    521a:	f04f 0320 	mov.w	r3, #32
    521e:	f3ef 8511 	mrs	r5, BASEPRI
    5222:	f383 8812 	msr	BASEPRI_MAX, r3
    5226:	f3bf 8f6f 	isb	sy
	adjust_owner_prio(mutex, mutex->owner_orig_prio);
    522a:	6901      	ldr	r1, [r0, #16]
    522c:	6880      	ldr	r0, [r0, #8]
	if (mutex->owner->base.prio != new_prio) {
    522e:	f990 300e 	ldrsb.w	r3, [r0, #14]
    5232:	4299      	cmp	r1, r3
    5234:	d001      	beq.n	523a <z_impl_k_mutex_unlock+0x4a>
		return z_set_prio(mutex->owner, new_prio);
    5236:	f000 f9d7 	bl	55e8 <z_set_prio>
	new_owner = z_unpend_first_thread(&mutex->wait_q);
    523a:	4620      	mov	r0, r4
    523c:	f002 f8f3 	bl	7426 <z_unpend_first_thread>
	mutex->owner = new_owner;
    5240:	60a0      	str	r0, [r4, #8]
	if (new_owner != NULL) {
    5242:	b158      	cbz	r0, 525c <z_impl_k_mutex_unlock+0x6c>
		mutex->owner_orig_prio = new_owner->base.prio;
    5244:	f990 200e 	ldrsb.w	r2, [r0, #14]
    5248:	6122      	str	r2, [r4, #16]
}

static ALWAYS_INLINE void
arch_thread_return_value_set(struct k_thread *thread, unsigned int value)
{
	thread->arch.swap_return_value = value;
    524a:	2200      	movs	r2, #0
    524c:	6782      	str	r2, [r0, #120]	; 0x78
		z_ready_thread(new_owner);
    524e:	f002 f876 	bl	733e <z_ready_thread>
		z_reschedule(&lock, key);
    5252:	4809      	ldr	r0, [pc, #36]	; (5278 <z_impl_k_mutex_unlock+0x88>)
    5254:	4629      	mov	r1, r5
    5256:	f000 f859 	bl	530c <z_reschedule>
    525a:	e7da      	b.n	5212 <z_impl_k_mutex_unlock+0x22>
		mutex->lock_count = 0U;
    525c:	60e0      	str	r0, [r4, #12]
	__asm__ volatile(
    525e:	f385 8811 	msr	BASEPRI, r5
    5262:	f3bf 8f6f 	isb	sy
    5266:	e7d4      	b.n	5212 <z_impl_k_mutex_unlock+0x22>
		return -EINVAL;
    5268:	f06f 0015 	mvn.w	r0, #21
    526c:	e7d4      	b.n	5218 <z_impl_k_mutex_unlock+0x28>
		return -EPERM;
    526e:	f04f 30ff 	mov.w	r0, #4294967295
    5272:	e7d1      	b.n	5218 <z_impl_k_mutex_unlock+0x28>
    5274:	20000c70 	.word	0x20000c70
    5278:	20000f48 	.word	0x20000f48

0000527c <z_reset_time_slice>:
 */
static struct k_thread *pending_current;
#endif

void z_reset_time_slice(void)
{
    527c:	b510      	push	{r4, lr}
	/* Add the elapsed time since the last announced tick to the
	 * slice count, as we'll see those "expired" ticks arrive in a
	 * FUTURE z_time_slice() call.
	 */
	if (slice_time != 0) {
    527e:	4c08      	ldr	r4, [pc, #32]	; (52a0 <z_reset_time_slice+0x24>)
    5280:	6823      	ldr	r3, [r4, #0]
    5282:	b15b      	cbz	r3, 529c <z_reset_time_slice+0x20>
		_current_cpu->slice_ticks = slice_time + sys_clock_elapsed();
    5284:	f7fe ff56 	bl	4134 <sys_clock_elapsed>
    5288:	4603      	mov	r3, r0
    528a:	6820      	ldr	r0, [r4, #0]
    528c:	4a05      	ldr	r2, [pc, #20]	; (52a4 <z_reset_time_slice+0x28>)
    528e:	4403      	add	r3, r0
		z_set_timeout_expiry(slice_time, false);
	}
}
    5290:	e8bd 4010 	ldmia.w	sp!, {r4, lr}
		_current_cpu->slice_ticks = slice_time + sys_clock_elapsed();
    5294:	6113      	str	r3, [r2, #16]
		z_set_timeout_expiry(slice_time, false);
    5296:	2100      	movs	r1, #0
    5298:	f002 b915 	b.w	74c6 <z_set_timeout_expiry>
}
    529c:	bd10      	pop	{r4, pc}
    529e:	bf00      	nop
    52a0:	20000ca0 	.word	0x20000ca0
    52a4:	20000c70 	.word	0x20000c70

000052a8 <k_sched_time_slice_set>:

void k_sched_time_slice_set(int32_t slice, int prio)
{
    52a8:	b5f8      	push	{r3, r4, r5, r6, r7, lr}
    52aa:	4604      	mov	r4, r0
    52ac:	460d      	mov	r5, r1
	__asm__ volatile(
    52ae:	f04f 0320 	mov.w	r3, #32
    52b2:	f3ef 8611 	mrs	r6, BASEPRI
    52b6:	f383 8812 	msr	BASEPRI_MAX, r3
    52ba:	f3bf 8f6f 	isb	sy
	LOCKED(&sched_spinlock) {
		_current_cpu->slice_ticks = 0;
    52be:	4b10      	ldr	r3, [pc, #64]	; (5300 <k_sched_time_slice_set+0x58>)
    52c0:	2200      	movs	r2, #0
			return (uint32_t)((t * to_hz + off) / from_hz);
    52c2:	f44f 4700 	mov.w	r7, #32768	; 0x8000
    52c6:	f240 30e7 	movw	r0, #999	; 0x3e7
    52ca:	2100      	movs	r1, #0
    52cc:	611a      	str	r2, [r3, #16]
    52ce:	fbe7 0104 	umlal	r0, r1, r7, r4
    52d2:	2300      	movs	r3, #0
    52d4:	f44f 727a 	mov.w	r2, #1000	; 0x3e8
    52d8:	f7fb fcea 	bl	cb0 <__aeabi_uldivmod>
		slice_time = k_ms_to_ticks_ceil32(slice);
		if (IS_ENABLED(CONFIG_TICKLESS_KERNEL) && slice > 0) {
    52dc:	2c00      	cmp	r4, #0
    52de:	4b09      	ldr	r3, [pc, #36]	; (5304 <k_sched_time_slice_set+0x5c>)
    52e0:	dc09      	bgt.n	52f6 <k_sched_time_slice_set+0x4e>
			/* It's not possible to reliably set a 1-tick
			 * timeout if ticks aren't regular.
			 */
			slice_time = MAX(2, slice_time);
    52e2:	6018      	str	r0, [r3, #0]
		}
		slice_max_prio = prio;
    52e4:	4b08      	ldr	r3, [pc, #32]	; (5308 <k_sched_time_slice_set+0x60>)
    52e6:	601d      	str	r5, [r3, #0]
		z_reset_time_slice();
    52e8:	f7ff ffc8 	bl	527c <z_reset_time_slice>
	__asm__ volatile(
    52ec:	f386 8811 	msr	BASEPRI, r6
    52f0:	f3bf 8f6f 	isb	sy
	}
}
    52f4:	bdf8      	pop	{r3, r4, r5, r6, r7, pc}
			slice_time = MAX(2, slice_time);
    52f6:	2802      	cmp	r0, #2
    52f8:	bfb8      	it	lt
    52fa:	2002      	movlt	r0, #2
    52fc:	e7f1      	b.n	52e2 <k_sched_time_slice_set+0x3a>
    52fe:	bf00      	nop
    5300:	20000c70 	.word	0x20000c70
    5304:	20000ca0 	.word	0x20000ca0
    5308:	20000c9c 	.word	0x20000c9c

0000530c <z_reschedule>:
{
#ifdef CONFIG_SMP
	_current_cpu->swap_ok = 0;
#endif

	return arch_irq_unlocked(key) && !arch_is_in_isr();
    530c:	b949      	cbnz	r1, 5322 <z_reschedule+0x16>
  __ASM volatile ("MRS %0, ipsr" : "=r" (result) );
    530e:	f3ef 8005 	mrs	r0, IPSR
#endif
}

void z_reschedule(struct k_spinlock *lock, k_spinlock_key_t key)
{
	if (resched(key.key) && need_swap()) {
    5312:	b930      	cbnz	r0, 5322 <z_reschedule+0x16>
	new_thread = _kernel.ready_q.cache;
    5314:	4b05      	ldr	r3, [pc, #20]	; (532c <z_reschedule+0x20>)
	if (resched(key.key) && need_swap()) {
    5316:	69da      	ldr	r2, [r3, #28]
    5318:	689b      	ldr	r3, [r3, #8]
    531a:	429a      	cmp	r2, r3
    531c:	d001      	beq.n	5322 <z_reschedule+0x16>
	ret = arch_swap(key);
    531e:	f7fd b9f5 	b.w	270c <arch_swap>
    5322:	f381 8811 	msr	BASEPRI, r1
    5326:	f3bf 8f6f 	isb	sy
		z_swap(lock, key);
	} else {
		k_spin_unlock(lock, key);
	}
}
    532a:	4770      	bx	lr
    532c:	20000c70 	.word	0x20000c70

00005330 <k_sched_lock>:
	__asm__ volatile(
    5330:	f04f 0320 	mov.w	r3, #32
    5334:	f3ef 8111 	mrs	r1, BASEPRI
    5338:	f383 8812 	msr	BASEPRI_MAX, r3
    533c:	f3bf 8f6f 	isb	sy
    5340:	4b04      	ldr	r3, [pc, #16]	; (5354 <k_sched_lock+0x24>)
    5342:	689a      	ldr	r2, [r3, #8]
    5344:	7bd3      	ldrb	r3, [r2, #15]
    5346:	3b01      	subs	r3, #1
    5348:	73d3      	strb	r3, [r2, #15]
	__asm__ volatile(
    534a:	f381 8811 	msr	BASEPRI, r1
    534e:	f3bf 8f6f 	isb	sy
	LOCKED(&sched_spinlock) {
		SYS_PORT_TRACING_FUNC(k_thread, sched_lock);

		z_sched_lock();
	}
}
    5352:	4770      	bx	lr
    5354:	20000c70 	.word	0x20000c70

00005358 <update_cache>:
{
    5358:	b538      	push	{r3, r4, r5, lr}
    535a:	4602      	mov	r2, r0
	return _priq_run_best(curr_cpu_runq());
    535c:	480c      	ldr	r0, [pc, #48]	; (5390 <update_cache+0x38>)
    535e:	4d0d      	ldr	r5, [pc, #52]	; (5394 <update_cache+0x3c>)
    5360:	f001 ffe3 	bl	732a <z_priq_dumb_best>
	return (thread != NULL) ? thread : _current_cpu->idle_thread;
    5364:	4604      	mov	r4, r0
    5366:	b900      	cbnz	r0, 536a <update_cache+0x12>
    5368:	68ec      	ldr	r4, [r5, #12]
	if (preempt_ok != 0) {
    536a:	68ab      	ldr	r3, [r5, #8]
    536c:	b94a      	cbnz	r2, 5382 <update_cache+0x2a>
	if (z_is_thread_prevented_from_running(_current)) {
    536e:	7b5a      	ldrb	r2, [r3, #13]
    5370:	06d2      	lsls	r2, r2, #27
    5372:	d106      	bne.n	5382 <update_cache+0x2a>
	if (IS_ENABLED(CONFIG_SWAP_NONATOMIC)
    5374:	69a2      	ldr	r2, [r4, #24]
    5376:	b922      	cbnz	r2, 5382 <update_cache+0x2a>
	if (is_preempt(_current) || is_metairq(thread)) {
    5378:	89da      	ldrh	r2, [r3, #14]
    537a:	2a7f      	cmp	r2, #127	; 0x7f
    537c:	d901      	bls.n	5382 <update_cache+0x2a>
		_kernel.ready_q.cache = _current;
    537e:	61eb      	str	r3, [r5, #28]
}
    5380:	bd38      	pop	{r3, r4, r5, pc}
		if (thread != _current) {
    5382:	429c      	cmp	r4, r3
    5384:	d001      	beq.n	538a <update_cache+0x32>
			z_reset_time_slice();
    5386:	f7ff ff79 	bl	527c <z_reset_time_slice>
		_kernel.ready_q.cache = thread;
    538a:	61ec      	str	r4, [r5, #28]
}
    538c:	e7f8      	b.n	5380 <update_cache+0x28>
    538e:	bf00      	nop
    5390:	20000c90 	.word	0x20000c90
    5394:	20000c70 	.word	0x20000c70

00005398 <move_thread_to_end_of_prio_q>:
{
    5398:	b570      	push	{r4, r5, r6, lr}
	if (z_is_thread_queued(thread)) {
    539a:	f990 200d 	ldrsb.w	r2, [r0, #13]
	return z_is_thread_state_set(thread, _THREAD_QUEUED);
    539e:	7b43      	ldrb	r3, [r0, #13]
    53a0:	2a00      	cmp	r2, #0
{
    53a2:	4601      	mov	r1, r0
	if (z_is_thread_queued(thread)) {
    53a4:	da04      	bge.n	53b0 <move_thread_to_end_of_prio_q+0x18>
	thread->base.thread_state &= ~_THREAD_QUEUED;
    53a6:	f003 037f 	and.w	r3, r3, #127	; 0x7f
    53aa:	7343      	strb	r3, [r0, #13]

void z_priq_dumb_remove(sys_dlist_t *pq, struct k_thread *thread)
{
	__ASSERT_NO_MSG(!z_is_idle_thread_object(thread));

	sys_dlist_remove(&thread->base.qnode_dlist);
    53ac:	f001 ff85 	bl	72ba <sys_dlist_remove>
	thread->base.thread_state |= _THREAD_QUEUED;
    53b0:	7b4b      	ldrb	r3, [r1, #13]
	return list->head == list;
    53b2:	4a17      	ldr	r2, [pc, #92]	; (5410 <move_thread_to_end_of_prio_q+0x78>)
    53b4:	f063 037f 	orn	r3, r3, #127	; 0x7f
    53b8:	4610      	mov	r0, r2
    53ba:	734b      	strb	r3, [r1, #13]
    53bc:	f850 3f20 	ldr.w	r3, [r0, #32]!
 */

static inline sys_dnode_t *sys_dlist_peek_next(sys_dlist_t *list,
					       sys_dnode_t *node)
{
	return (node != NULL) ? sys_dlist_peek_next_no_check(list, node) : NULL;
    53c0:	6a55      	ldr	r5, [r2, #36]	; 0x24
	return sys_dlist_is_empty(list) ? NULL : list->head;
    53c2:	4283      	cmp	r3, r0
    53c4:	bf08      	it	eq
    53c6:	2300      	moveq	r3, #0
    53c8:	2b00      	cmp	r3, #0
    53ca:	bf38      	it	cc
    53cc:	2300      	movcc	r3, #0
	SYS_DLIST_FOR_EACH_CONTAINER(pq, t, base.qnode_dlist) {
    53ce:	b1cb      	cbz	r3, 5404 <move_thread_to_end_of_prio_q+0x6c>
	int32_t b1 = thread_1->base.prio;
    53d0:	f991 600e 	ldrsb.w	r6, [r1, #14]
	int32_t b2 = thread_2->base.prio;
    53d4:	f993 400e 	ldrsb.w	r4, [r3, #14]
	if (b1 != b2) {
    53d8:	42a6      	cmp	r6, r4
    53da:	d00f      	beq.n	53fc <move_thread_to_end_of_prio_q+0x64>
		return b2 - b1;
    53dc:	1ba4      	subs	r4, r4, r6
		if (z_sched_prio_cmp(thread, t) > 0) {
    53de:	2c00      	cmp	r4, #0
    53e0:	dd0c      	ble.n	53fc <move_thread_to_end_of_prio_q+0x64>
 * @param successor the position before which "node" will be inserted
 * @param node the element to insert
 */
static inline void sys_dlist_insert(sys_dnode_t *successor, sys_dnode_t *node)
{
	sys_dnode_t *const prev = successor->prev;
    53e2:	6858      	ldr	r0, [r3, #4]

	node->prev = prev;
	node->next = successor;
    53e4:	e9c1 3000 	strd	r3, r0, [r1]
	prev->next = node;
    53e8:	6001      	str	r1, [r0, #0]
	successor->prev = node;
    53ea:	6059      	str	r1, [r3, #4]
	update_cache(thread == _current);
    53ec:	6890      	ldr	r0, [r2, #8]
    53ee:	1a43      	subs	r3, r0, r1
    53f0:	4258      	negs	r0, r3
}
    53f2:	e8bd 4070 	ldmia.w	sp!, {r4, r5, r6, lr}
	update_cache(thread == _current);
    53f6:	4158      	adcs	r0, r3
    53f8:	f7ff bfae 	b.w	5358 <update_cache>
	return (node == list->tail) ? NULL : node->next;
    53fc:	42ab      	cmp	r3, r5
    53fe:	d001      	beq.n	5404 <move_thread_to_end_of_prio_q+0x6c>
    5400:	681b      	ldr	r3, [r3, #0]
    5402:	e7e4      	b.n	53ce <move_thread_to_end_of_prio_q+0x36>
	node->prev = tail;
    5404:	e9c1 0500 	strd	r0, r5, [r1]
	tail->next = node;
    5408:	6029      	str	r1, [r5, #0]
	list->tail = node;
    540a:	6251      	str	r1, [r2, #36]	; 0x24
}
    540c:	e7ee      	b.n	53ec <move_thread_to_end_of_prio_q+0x54>
    540e:	bf00      	nop
    5410:	20000c70 	.word	0x20000c70

00005414 <z_time_slice>:
{
    5414:	b570      	push	{r4, r5, r6, lr}
    5416:	4601      	mov	r1, r0
	__asm__ volatile(
    5418:	f04f 0320 	mov.w	r3, #32
    541c:	f3ef 8411 	mrs	r4, BASEPRI
    5420:	f383 8812 	msr	BASEPRI_MAX, r3
    5424:	f3bf 8f6f 	isb	sy
	if (pending_current == _current) {
    5428:	4b16      	ldr	r3, [pc, #88]	; (5484 <z_time_slice+0x70>)
    542a:	4a17      	ldr	r2, [pc, #92]	; (5488 <z_time_slice+0x74>)
    542c:	6898      	ldr	r0, [r3, #8]
    542e:	6815      	ldr	r5, [r2, #0]
    5430:	42a8      	cmp	r0, r5
    5432:	461d      	mov	r5, r3
    5434:	d106      	bne.n	5444 <z_time_slice+0x30>
			z_reset_time_slice();
    5436:	f7ff ff21 	bl	527c <z_reset_time_slice>
	__asm__ volatile(
    543a:	f384 8811 	msr	BASEPRI, r4
    543e:	f3bf 8f6f 	isb	sy
}
    5442:	bd70      	pop	{r4, r5, r6, pc}
	pending_current = NULL;
    5444:	2600      	movs	r6, #0
    5446:	6016      	str	r6, [r2, #0]
	if (slice_time && sliceable(_current)) {
    5448:	4a10      	ldr	r2, [pc, #64]	; (548c <z_time_slice+0x78>)
    544a:	6812      	ldr	r2, [r2, #0]
    544c:	b1ba      	cbz	r2, 547e <z_time_slice+0x6a>
		&& !z_is_idle_thread_object(thread);
    544e:	89c2      	ldrh	r2, [r0, #14]
    5450:	2a7f      	cmp	r2, #127	; 0x7f
    5452:	d814      	bhi.n	547e <z_time_slice+0x6a>
		&& !z_is_thread_prevented_from_running(thread)
    5454:	7b42      	ldrb	r2, [r0, #13]
    5456:	06d2      	lsls	r2, r2, #27
    5458:	d111      	bne.n	547e <z_time_slice+0x6a>
		&& !z_is_prio_higher(thread->base.prio, slice_max_prio)
    545a:	4a0d      	ldr	r2, [pc, #52]	; (5490 <z_time_slice+0x7c>)
    545c:	f990 600e 	ldrsb.w	r6, [r0, #14]
    5460:	6812      	ldr	r2, [r2, #0]
    5462:	4296      	cmp	r6, r2
    5464:	db0b      	blt.n	547e <z_time_slice+0x6a>
		&& !z_is_idle_thread_object(thread);
    5466:	4a0b      	ldr	r2, [pc, #44]	; (5494 <z_time_slice+0x80>)
    5468:	4290      	cmp	r0, r2
    546a:	d008      	beq.n	547e <z_time_slice+0x6a>
		if (ticks >= _current_cpu->slice_ticks) {
    546c:	691a      	ldr	r2, [r3, #16]
    546e:	428a      	cmp	r2, r1
    5470:	dc02      	bgt.n	5478 <z_time_slice+0x64>
			move_thread_to_end_of_prio_q(_current);
    5472:	f7ff ff91 	bl	5398 <move_thread_to_end_of_prio_q>
    5476:	e7de      	b.n	5436 <z_time_slice+0x22>
			_current_cpu->slice_ticks -= ticks;
    5478:	1a52      	subs	r2, r2, r1
    547a:	611a      	str	r2, [r3, #16]
    547c:	e7dd      	b.n	543a <z_time_slice+0x26>
		_current_cpu->slice_ticks = 0;
    547e:	2300      	movs	r3, #0
    5480:	612b      	str	r3, [r5, #16]
    5482:	e7da      	b.n	543a <z_time_slice+0x26>
    5484:	20000c70 	.word	0x20000c70
    5488:	20000c98 	.word	0x20000c98
    548c:	20000ca0 	.word	0x20000ca0
    5490:	20000c9c 	.word	0x20000c9c
    5494:	200004a0 	.word	0x200004a0

00005498 <ready_thread>:
{
    5498:	b470      	push	{r4, r5, r6}
	if (!z_is_thread_queued(thread) && z_is_thread_ready(thread)) {
    549a:	f990 300d 	ldrsb.w	r3, [r0, #13]
    549e:	7b42      	ldrb	r2, [r0, #13]
    54a0:	2b00      	cmp	r3, #0
    54a2:	db2d      	blt.n	5500 <ready_thread+0x68>
	return !((z_is_thread_prevented_from_running(thread)) != 0U ||
    54a4:	06d3      	lsls	r3, r2, #27
    54a6:	d12b      	bne.n	5500 <ready_thread+0x68>

int z_abort_timeout(struct _timeout *to);

static inline bool z_is_inactive_timeout(const struct _timeout *to)
{
	return !sys_dnode_is_linked(&to->node);
    54a8:	6983      	ldr	r3, [r0, #24]
    54aa:	bb4b      	cbnz	r3, 5500 <ready_thread+0x68>
	return list->head == list;
    54ac:	4915      	ldr	r1, [pc, #84]	; (5504 <ready_thread+0x6c>)
	thread->base.thread_state |= _THREAD_QUEUED;
    54ae:	f062 027f 	orn	r2, r2, #127	; 0x7f
    54b2:	7342      	strb	r2, [r0, #13]
    54b4:	460a      	mov	r2, r1
	return (node != NULL) ? sys_dlist_peek_next_no_check(list, node) : NULL;
    54b6:	6a4d      	ldr	r5, [r1, #36]	; 0x24
	return list->head == list;
    54b8:	f852 4f20 	ldr.w	r4, [r2, #32]!
	return sys_dlist_is_empty(list) ? NULL : list->head;
    54bc:	4294      	cmp	r4, r2
    54be:	bf18      	it	ne
    54c0:	4623      	movne	r3, r4
    54c2:	2b00      	cmp	r3, #0
    54c4:	bf38      	it	cc
    54c6:	2300      	movcc	r3, #0
	SYS_DLIST_FOR_EACH_CONTAINER(pq, t, base.qnode_dlist) {
    54c8:	b1ab      	cbz	r3, 54f6 <ready_thread+0x5e>
	int32_t b1 = thread_1->base.prio;
    54ca:	f990 600e 	ldrsb.w	r6, [r0, #14]
	int32_t b2 = thread_2->base.prio;
    54ce:	f993 400e 	ldrsb.w	r4, [r3, #14]
	if (b1 != b2) {
    54d2:	42a6      	cmp	r6, r4
    54d4:	d00b      	beq.n	54ee <ready_thread+0x56>
		return b2 - b1;
    54d6:	1ba4      	subs	r4, r4, r6
		if (z_sched_prio_cmp(thread, t) > 0) {
    54d8:	2c00      	cmp	r4, #0
    54da:	dd08      	ble.n	54ee <ready_thread+0x56>
	sys_dnode_t *const prev = successor->prev;
    54dc:	685a      	ldr	r2, [r3, #4]
	node->next = successor;
    54de:	e9c0 3200 	strd	r3, r2, [r0]
	prev->next = node;
    54e2:	6010      	str	r0, [r2, #0]
	successor->prev = node;
    54e4:	6058      	str	r0, [r3, #4]
}
    54e6:	bc70      	pop	{r4, r5, r6}
		update_cache(0);
    54e8:	2000      	movs	r0, #0
    54ea:	f7ff bf35 	b.w	5358 <update_cache>
	return (node == list->tail) ? NULL : node->next;
    54ee:	42ab      	cmp	r3, r5
    54f0:	d001      	beq.n	54f6 <ready_thread+0x5e>
    54f2:	681b      	ldr	r3, [r3, #0]
    54f4:	e7e8      	b.n	54c8 <ready_thread+0x30>
	node->prev = tail;
    54f6:	e9c0 2500 	strd	r2, r5, [r0]
	tail->next = node;
    54fa:	6028      	str	r0, [r5, #0]
	list->tail = node;
    54fc:	6248      	str	r0, [r1, #36]	; 0x24
}
    54fe:	e7f2      	b.n	54e6 <ready_thread+0x4e>
}
    5500:	bc70      	pop	{r4, r5, r6}
    5502:	4770      	bx	lr
    5504:	20000c70 	.word	0x20000c70

00005508 <z_sched_start>:
{
    5508:	b510      	push	{r4, lr}
	__asm__ volatile(
    550a:	f04f 0220 	mov.w	r2, #32
    550e:	f3ef 8411 	mrs	r4, BASEPRI
    5512:	f382 8812 	msr	BASEPRI_MAX, r2
    5516:	f3bf 8f6f 	isb	sy
	if (z_has_thread_started(thread)) {
    551a:	7b42      	ldrb	r2, [r0, #13]
    551c:	0751      	lsls	r1, r2, #29
    551e:	d404      	bmi.n	552a <z_sched_start+0x22>
	__asm__ volatile(
    5520:	f384 8811 	msr	BASEPRI, r4
    5524:	f3bf 8f6f 	isb	sy
}
    5528:	bd10      	pop	{r4, pc}
	thread->base.thread_state &= ~_THREAD_PRESTART;
    552a:	f022 0204 	bic.w	r2, r2, #4
    552e:	7342      	strb	r2, [r0, #13]
	ready_thread(thread);
    5530:	f7ff ffb2 	bl	5498 <ready_thread>
	z_reschedule(&sched_spinlock, key);
    5534:	4621      	mov	r1, r4
    5536:	4802      	ldr	r0, [pc, #8]	; (5540 <z_sched_start+0x38>)
}
    5538:	e8bd 4010 	ldmia.w	sp!, {r4, lr}
	z_reschedule(&sched_spinlock, key);
    553c:	f7ff bee6 	b.w	530c <z_reschedule>
    5540:	20000f48 	.word	0x20000f48

00005544 <unready_thread>:
{
    5544:	b508      	push	{r3, lr}
	if (z_is_thread_queued(thread)) {
    5546:	f990 200d 	ldrsb.w	r2, [r0, #13]
	return z_is_thread_state_set(thread, _THREAD_QUEUED);
    554a:	7b43      	ldrb	r3, [r0, #13]
    554c:	2a00      	cmp	r2, #0
{
    554e:	4601      	mov	r1, r0
	if (z_is_thread_queued(thread)) {
    5550:	da04      	bge.n	555c <unready_thread+0x18>
	thread->base.thread_state &= ~_THREAD_QUEUED;
    5552:	f003 037f 	and.w	r3, r3, #127	; 0x7f
    5556:	7343      	strb	r3, [r0, #13]
	sys_dlist_remove(&thread->base.qnode_dlist);
    5558:	f001 feaf 	bl	72ba <sys_dlist_remove>
	update_cache(thread == _current);
    555c:	4b04      	ldr	r3, [pc, #16]	; (5570 <unready_thread+0x2c>)
    555e:	6898      	ldr	r0, [r3, #8]
    5560:	1a43      	subs	r3, r0, r1
    5562:	4258      	negs	r0, r3
    5564:	4158      	adcs	r0, r3
}
    5566:	e8bd 4008 	ldmia.w	sp!, {r3, lr}
	update_cache(thread == _current);
    556a:	f7ff bef5 	b.w	5358 <update_cache>
    556e:	bf00      	nop
    5570:	20000c70 	.word	0x20000c70

00005574 <pend>:
{
    5574:	e92d 41f0 	stmdb	sp!, {r4, r5, r6, r7, r8, lr}
    5578:	4606      	mov	r6, r0
    557a:	4614      	mov	r4, r2
    557c:	461d      	mov	r5, r3
	__asm__ volatile(
    557e:	f04f 0320 	mov.w	r3, #32
    5582:	f3ef 8711 	mrs	r7, BASEPRI
    5586:	f383 8812 	msr	BASEPRI_MAX, r3
    558a:	f3bf 8f6f 	isb	sy
		add_to_waitq_locked(thread, wait_q);
    558e:	f001 ff08 	bl	73a2 <add_to_waitq_locked>
	__asm__ volatile(
    5592:	f387 8811 	msr	BASEPRI, r7
    5596:	f3bf 8f6f 	isb	sy
	if (!K_TIMEOUT_EQ(timeout, K_FOREVER)) {
    559a:	1c6b      	adds	r3, r5, #1
    559c:	bf08      	it	eq
    559e:	f1b4 3fff 	cmpeq.w	r4, #4294967295
    55a2:	d008      	beq.n	55b6 <pend+0x42>

extern void z_thread_timeout(struct _timeout *timeout);

static inline void z_add_thread_timeout(struct k_thread *thread, k_timeout_t ticks)
{
	z_add_timeout(&thread->base.timeout, z_thread_timeout, ticks);
    55a4:	4622      	mov	r2, r4
    55a6:	462b      	mov	r3, r5
    55a8:	f106 0018 	add.w	r0, r6, #24
    55ac:	4903      	ldr	r1, [pc, #12]	; (55bc <pend+0x48>)
}
    55ae:	e8bd 41f0 	ldmia.w	sp!, {r4, r5, r6, r7, r8, lr}
    55b2:	f000 bb15 	b.w	5be0 <z_add_timeout>
    55b6:	e8bd 81f0 	ldmia.w	sp!, {r4, r5, r6, r7, r8, pc}
    55ba:	bf00      	nop
    55bc:	0000735f 	.word	0x0000735f

000055c0 <z_pend_curr>:
{
    55c0:	b510      	push	{r4, lr}
	pending_current = _current;
    55c2:	4b07      	ldr	r3, [pc, #28]	; (55e0 <z_pend_curr+0x20>)
    55c4:	6898      	ldr	r0, [r3, #8]
    55c6:	4b07      	ldr	r3, [pc, #28]	; (55e4 <z_pend_curr+0x24>)
{
    55c8:	460c      	mov	r4, r1
	pending_current = _current;
    55ca:	6018      	str	r0, [r3, #0]
{
    55cc:	4611      	mov	r1, r2
	pend(_current, wait_q, timeout);
    55ce:	e9dd 2302 	ldrd	r2, r3, [sp, #8]
    55d2:	f7ff ffcf 	bl	5574 <pend>
    55d6:	4620      	mov	r0, r4
}
    55d8:	e8bd 4010 	ldmia.w	sp!, {r4, lr}
    55dc:	f7fd b896 	b.w	270c <arch_swap>
    55e0:	20000c70 	.word	0x20000c70
    55e4:	20000c98 	.word	0x20000c98

000055e8 <z_set_prio>:
{
    55e8:	b5f8      	push	{r3, r4, r5, r6, r7, lr}
    55ea:	4604      	mov	r4, r0
	__asm__ volatile(
    55ec:	f04f 0320 	mov.w	r3, #32
    55f0:	f3ef 8611 	mrs	r6, BASEPRI
    55f4:	f383 8812 	msr	BASEPRI_MAX, r3
    55f8:	f3bf 8f6f 	isb	sy
	return !((z_is_thread_prevented_from_running(thread)) != 0U ||
    55fc:	7b43      	ldrb	r3, [r0, #13]
    55fe:	06da      	lsls	r2, r3, #27
    5600:	b249      	sxtb	r1, r1
    5602:	d138      	bne.n	5676 <z_set_prio+0x8e>
	return !sys_dnode_is_linked(&to->node);
    5604:	6985      	ldr	r5, [r0, #24]
		if (need_sched) {
    5606:	2d00      	cmp	r5, #0
    5608:	d135      	bne.n	5676 <z_set_prio+0x8e>
	thread->base.thread_state &= ~_THREAD_QUEUED;
    560a:	f003 037f 	and.w	r3, r3, #127	; 0x7f
    560e:	7343      	strb	r3, [r0, #13]
	sys_dlist_remove(&thread->base.qnode_dlist);
    5610:	f001 fe53 	bl	72ba <sys_dlist_remove>
	thread->base.thread_state |= _THREAD_QUEUED;
    5614:	7b43      	ldrb	r3, [r0, #13]
				thread->base.prio = prio;
    5616:	7381      	strb	r1, [r0, #14]
	thread->base.thread_state |= _THREAD_QUEUED;
    5618:	f063 037f 	orn	r3, r3, #127	; 0x7f
    561c:	7343      	strb	r3, [r0, #13]
	return list->head == list;
    561e:	4817      	ldr	r0, [pc, #92]	; (567c <z_set_prio+0x94>)
    5620:	4603      	mov	r3, r0
    5622:	f853 7f20 	ldr.w	r7, [r3, #32]!
	return sys_dlist_is_empty(list) ? NULL : list->head;
    5626:	429f      	cmp	r7, r3
    5628:	bf18      	it	ne
    562a:	463d      	movne	r5, r7
    562c:	2d00      	cmp	r5, #0
	return (node != NULL) ? sys_dlist_peek_next_no_check(list, node) : NULL;
    562e:	6a47      	ldr	r7, [r0, #36]	; 0x24
    5630:	461a      	mov	r2, r3
    5632:	462b      	mov	r3, r5
    5634:	bf38      	it	cc
    5636:	2300      	movcc	r3, #0
	SYS_DLIST_FOR_EACH_CONTAINER(pq, t, base.qnode_dlist) {
    5638:	b1c3      	cbz	r3, 566c <z_set_prio+0x84>
	int32_t b2 = thread_2->base.prio;
    563a:	f993 500e 	ldrsb.w	r5, [r3, #14]
	if (b1 != b2) {
    563e:	42a9      	cmp	r1, r5
    5640:	d010      	beq.n	5664 <z_set_prio+0x7c>
		return b2 - b1;
    5642:	1a6d      	subs	r5, r5, r1
		if (z_sched_prio_cmp(thread, t) > 0) {
    5644:	2d00      	cmp	r5, #0
    5646:	dd0d      	ble.n	5664 <z_set_prio+0x7c>
	sys_dnode_t *const prev = successor->prev;
    5648:	685a      	ldr	r2, [r3, #4]
	node->next = successor;
    564a:	e9c4 3200 	strd	r3, r2, [r4]
	prev->next = node;
    564e:	6014      	str	r4, [r2, #0]
	successor->prev = node;
    5650:	605c      	str	r4, [r3, #4]
			update_cache(1);
    5652:	2001      	movs	r0, #1
    5654:	f7ff fe80 	bl	5358 <update_cache>
    5658:	2001      	movs	r0, #1
	__asm__ volatile(
    565a:	f386 8811 	msr	BASEPRI, r6
    565e:	f3bf 8f6f 	isb	sy
}
    5662:	bdf8      	pop	{r3, r4, r5, r6, r7, pc}
	return (node == list->tail) ? NULL : node->next;
    5664:	42bb      	cmp	r3, r7
    5666:	d001      	beq.n	566c <z_set_prio+0x84>
    5668:	681b      	ldr	r3, [r3, #0]
    566a:	e7e5      	b.n	5638 <z_set_prio+0x50>
	node->prev = tail;
    566c:	e9c4 2700 	strd	r2, r7, [r4]
	tail->next = node;
    5670:	603c      	str	r4, [r7, #0]
	list->tail = node;
    5672:	6244      	str	r4, [r0, #36]	; 0x24
}
    5674:	e7ed      	b.n	5652 <z_set_prio+0x6a>
			thread->base.prio = prio;
    5676:	73a1      	strb	r1, [r4, #14]
    5678:	2000      	movs	r0, #0
    567a:	e7ee      	b.n	565a <z_set_prio+0x72>
    567c:	20000c70 	.word	0x20000c70

00005680 <z_impl_k_thread_suspend>:
{
    5680:	b570      	push	{r4, r5, r6, lr}
    5682:	4604      	mov	r4, r0
}

static inline int z_abort_thread_timeout(struct k_thread *thread)
{
	return z_abort_timeout(&thread->base.timeout);
    5684:	3018      	adds	r0, #24
    5686:	f001 fef8 	bl	747a <z_abort_timeout>
	__asm__ volatile(
    568a:	f04f 0320 	mov.w	r3, #32
    568e:	f3ef 8611 	mrs	r6, BASEPRI
    5692:	f383 8812 	msr	BASEPRI_MAX, r3
    5696:	f3bf 8f6f 	isb	sy
		if (z_is_thread_queued(thread)) {
    569a:	f994 200d 	ldrsb.w	r2, [r4, #13]
	return z_is_thread_state_set(thread, _THREAD_QUEUED);
    569e:	7b63      	ldrb	r3, [r4, #13]
    56a0:	2a00      	cmp	r2, #0
    56a2:	da05      	bge.n	56b0 <z_impl_k_thread_suspend+0x30>
	thread->base.thread_state &= ~_THREAD_QUEUED;
    56a4:	f003 037f 	and.w	r3, r3, #127	; 0x7f
    56a8:	7363      	strb	r3, [r4, #13]
	sys_dlist_remove(&thread->base.qnode_dlist);
    56aa:	4620      	mov	r0, r4
    56ac:	f001 fe05 	bl	72ba <sys_dlist_remove>
		update_cache(thread == _current);
    56b0:	4d0b      	ldr	r5, [pc, #44]	; (56e0 <z_impl_k_thread_suspend+0x60>)
	thread->base.thread_state |= _THREAD_SUSPENDED;
    56b2:	7b63      	ldrb	r3, [r4, #13]
    56b4:	68a8      	ldr	r0, [r5, #8]
    56b6:	f043 0310 	orr.w	r3, r3, #16
    56ba:	7363      	strb	r3, [r4, #13]
    56bc:	1b03      	subs	r3, r0, r4
    56be:	4258      	negs	r0, r3
    56c0:	4158      	adcs	r0, r3
    56c2:	f7ff fe49 	bl	5358 <update_cache>
	__asm__ volatile(
    56c6:	f386 8811 	msr	BASEPRI, r6
    56ca:	f3bf 8f6f 	isb	sy
	if (thread == _current) {
    56ce:	68ab      	ldr	r3, [r5, #8]
    56d0:	42a3      	cmp	r3, r4
    56d2:	d103      	bne.n	56dc <z_impl_k_thread_suspend+0x5c>
}
    56d4:	e8bd 4070 	ldmia.w	sp!, {r4, r5, r6, lr}
		z_reschedule_unlocked();
    56d8:	f001 be1d 	b.w	7316 <z_reschedule_unlocked>
}
    56dc:	bd70      	pop	{r4, r5, r6, pc}
    56de:	bf00      	nop
    56e0:	20000c70 	.word	0x20000c70

000056e4 <k_sched_unlock>:
{
    56e4:	b510      	push	{r4, lr}
	__asm__ volatile(
    56e6:	f04f 0320 	mov.w	r3, #32
    56ea:	f3ef 8411 	mrs	r4, BASEPRI
    56ee:	f383 8812 	msr	BASEPRI_MAX, r3
    56f2:	f3bf 8f6f 	isb	sy
		++_current->base.sched_locked;
    56f6:	4b08      	ldr	r3, [pc, #32]	; (5718 <k_sched_unlock+0x34>)
    56f8:	689a      	ldr	r2, [r3, #8]
    56fa:	7bd3      	ldrb	r3, [r2, #15]
    56fc:	3301      	adds	r3, #1
    56fe:	73d3      	strb	r3, [r2, #15]
		update_cache(0);
    5700:	2000      	movs	r0, #0
    5702:	f7ff fe29 	bl	5358 <update_cache>
	__asm__ volatile(
    5706:	f384 8811 	msr	BASEPRI, r4
    570a:	f3bf 8f6f 	isb	sy
}
    570e:	e8bd 4010 	ldmia.w	sp!, {r4, lr}
	z_reschedule_unlocked();
    5712:	f001 be00 	b.w	7316 <z_reschedule_unlocked>
    5716:	bf00      	nop
    5718:	20000c70 	.word	0x20000c70

0000571c <z_sched_init>:
	list->head = (sys_dnode_t *)list;
    571c:	4b04      	ldr	r3, [pc, #16]	; (5730 <z_sched_init+0x14>)
#else
	init_ready_q(&_kernel.ready_q);
#endif

#ifdef CONFIG_TIMESLICING
	k_sched_time_slice_set(CONFIG_TIMESLICE_SIZE,
    571e:	2100      	movs	r1, #0
    5720:	f103 0220 	add.w	r2, r3, #32
	list->tail = (sys_dnode_t *)list;
    5724:	e9c3 2208 	strd	r2, r2, [r3, #32]
    5728:	4608      	mov	r0, r1
    572a:	f7ff bdbd 	b.w	52a8 <k_sched_time_slice_set>
    572e:	bf00      	nop
    5730:	20000c70 	.word	0x20000c70

00005734 <z_impl_k_yield>:
#include <syscalls/k_thread_deadline_set_mrsh.c>
#endif
#endif

void z_impl_k_yield(void)
{
    5734:	b5f8      	push	{r3, r4, r5, r6, r7, lr}
	__asm__ volatile(
    5736:	f04f 0320 	mov.w	r3, #32
    573a:	f3ef 8411 	mrs	r4, BASEPRI
    573e:	f383 8812 	msr	BASEPRI_MAX, r3
    5742:	f3bf 8f6f 	isb	sy

	k_spinlock_key_t key = k_spin_lock(&sched_spinlock);

	if (!IS_ENABLED(CONFIG_SMP) ||
	    z_is_thread_queued(_current)) {
		dequeue_thread(_current);
    5746:	491b      	ldr	r1, [pc, #108]	; (57b4 <z_impl_k_yield+0x80>)
    5748:	6888      	ldr	r0, [r1, #8]
	thread->base.thread_state &= ~_THREAD_QUEUED;
    574a:	7b43      	ldrb	r3, [r0, #13]
    574c:	f003 037f 	and.w	r3, r3, #127	; 0x7f
    5750:	7343      	strb	r3, [r0, #13]
	sys_dlist_remove(&thread->base.qnode_dlist);
    5752:	f001 fdb2 	bl	72ba <sys_dlist_remove>
	}
	queue_thread(_current);
    5756:	688a      	ldr	r2, [r1, #8]
	thread->base.thread_state |= _THREAD_QUEUED;
    5758:	7b53      	ldrb	r3, [r2, #13]
	return list->head == list;
    575a:	4608      	mov	r0, r1
    575c:	f063 037f 	orn	r3, r3, #127	; 0x7f
    5760:	7353      	strb	r3, [r2, #13]
    5762:	f850 3f20 	ldr.w	r3, [r0, #32]!
	return (node != NULL) ? sys_dlist_peek_next_no_check(list, node) : NULL;
    5766:	6a4e      	ldr	r6, [r1, #36]	; 0x24
	return sys_dlist_is_empty(list) ? NULL : list->head;
    5768:	4283      	cmp	r3, r0
    576a:	bf08      	it	eq
    576c:	2300      	moveq	r3, #0
    576e:	2b00      	cmp	r3, #0
    5770:	bf38      	it	cc
    5772:	2300      	movcc	r3, #0
	SYS_DLIST_FOR_EACH_CONTAINER(pq, t, base.qnode_dlist) {
    5774:	b1cb      	cbz	r3, 57aa <z_impl_k_yield+0x76>
	int32_t b1 = thread_1->base.prio;
    5776:	f992 700e 	ldrsb.w	r7, [r2, #14]
	int32_t b2 = thread_2->base.prio;
    577a:	f993 500e 	ldrsb.w	r5, [r3, #14]
	if (b1 != b2) {
    577e:	42af      	cmp	r7, r5
    5780:	d00f      	beq.n	57a2 <z_impl_k_yield+0x6e>
		return b2 - b1;
    5782:	1bed      	subs	r5, r5, r7
		if (z_sched_prio_cmp(thread, t) > 0) {
    5784:	2d00      	cmp	r5, #0
    5786:	dd0c      	ble.n	57a2 <z_impl_k_yield+0x6e>
	sys_dnode_t *const prev = successor->prev;
    5788:	6859      	ldr	r1, [r3, #4]
	node->next = successor;
    578a:	e9c2 3100 	strd	r3, r1, [r2]
	prev->next = node;
    578e:	600a      	str	r2, [r1, #0]
	successor->prev = node;
    5790:	605a      	str	r2, [r3, #4]
	update_cache(1);
    5792:	2001      	movs	r0, #1
    5794:	f7ff fde0 	bl	5358 <update_cache>
    5798:	4620      	mov	r0, r4
	z_swap(&sched_spinlock, key);
}
    579a:	e8bd 40f8 	ldmia.w	sp!, {r3, r4, r5, r6, r7, lr}
    579e:	f7fc bfb5 	b.w	270c <arch_swap>
	return (node == list->tail) ? NULL : node->next;
    57a2:	42b3      	cmp	r3, r6
    57a4:	d001      	beq.n	57aa <z_impl_k_yield+0x76>
    57a6:	681b      	ldr	r3, [r3, #0]
    57a8:	e7e4      	b.n	5774 <z_impl_k_yield+0x40>
	node->prev = tail;
    57aa:	e9c2 0600 	strd	r0, r6, [r2]
	tail->next = node;
    57ae:	6032      	str	r2, [r6, #0]
	list->tail = node;
    57b0:	624a      	str	r2, [r1, #36]	; 0x24
}
    57b2:	e7ee      	b.n	5792 <z_impl_k_yield+0x5e>
    57b4:	20000c70 	.word	0x20000c70

000057b8 <z_tick_sleep>:
}
#include <syscalls/k_yield_mrsh.c>
#endif

static int32_t z_tick_sleep(k_ticks_t ticks)
{
    57b8:	e92d 41f0 	stmdb	sp!, {r4, r5, r6, r7, r8, lr}
    57bc:	4604      	mov	r4, r0
    57be:	460d      	mov	r5, r1
	 */
	LOG_DBG("thread %p for %u ticks", _current, ticks);
#endif

	/* wait of 0 ms is treated as a 'yield' */
	if (ticks == 0) {
    57c0:	ea54 0105 	orrs.w	r1, r4, r5
    57c4:	d104      	bne.n	57d0 <z_tick_sleep+0x18>
	z_impl_k_yield();
    57c6:	f7ff ffb5 	bl	5734 <z_impl_k_yield>
		k_yield();
		return 0;
    57ca:	2000      	movs	r0, #0
		return ticks;
	}
#endif

	return 0;
}
    57cc:	e8bd 81f0 	ldmia.w	sp!, {r4, r5, r6, r7, r8, pc}
	if (Z_TICK_ABS(ticks) <= 0) {
    57d0:	f06f 0101 	mvn.w	r1, #1
    57d4:	1a0a      	subs	r2, r1, r0
    57d6:	f04f 31ff 	mov.w	r1, #4294967295
    57da:	eb61 0305 	sbc.w	r3, r1, r5
    57de:	2a01      	cmp	r2, #1
    57e0:	f173 0300 	sbcs.w	r3, r3, #0
    57e4:	da2a      	bge.n	583c <z_tick_sleep+0x84>
		expected_wakeup_ticks = ticks + sys_clock_tick_get_32();
    57e6:	f001 fe88 	bl	74fa <sys_clock_tick_get_32>
    57ea:	1906      	adds	r6, r0, r4
    57ec:	f04f 0320 	mov.w	r3, #32
    57f0:	f3ef 8811 	mrs	r8, BASEPRI
    57f4:	f383 8812 	msr	BASEPRI_MAX, r3
    57f8:	f3bf 8f6f 	isb	sy
	pending_current = _current;
    57fc:	4f11      	ldr	r7, [pc, #68]	; (5844 <z_tick_sleep+0x8c>)
    57fe:	4b12      	ldr	r3, [pc, #72]	; (5848 <z_tick_sleep+0x90>)
    5800:	68b8      	ldr	r0, [r7, #8]
    5802:	6018      	str	r0, [r3, #0]
	unready_thread(_current);
    5804:	f7ff fe9e 	bl	5544 <unready_thread>
	z_add_thread_timeout(_current, timeout);
    5808:	68b8      	ldr	r0, [r7, #8]
	z_add_timeout(&thread->base.timeout, z_thread_timeout, ticks);
    580a:	4910      	ldr	r1, [pc, #64]	; (584c <z_tick_sleep+0x94>)
    580c:	4622      	mov	r2, r4
    580e:	462b      	mov	r3, r5
    5810:	3018      	adds	r0, #24
    5812:	f000 f9e5 	bl	5be0 <z_add_timeout>
	z_mark_thread_as_suspended(_current);
    5816:	68ba      	ldr	r2, [r7, #8]
    5818:	7b53      	ldrb	r3, [r2, #13]
    581a:	f043 0310 	orr.w	r3, r3, #16
    581e:	7353      	strb	r3, [r2, #13]
    5820:	4640      	mov	r0, r8
    5822:	f7fc ff73 	bl	270c <arch_swap>
	ticks = (k_ticks_t)expected_wakeup_ticks - sys_clock_tick_get_32();
    5826:	f001 fe68 	bl	74fa <sys_clock_tick_get_32>
    582a:	1a30      	subs	r0, r6, r0
    582c:	eb66 0106 	sbc.w	r1, r6, r6
	if (ticks > 0) {
    5830:	2801      	cmp	r0, #1
    5832:	f171 0300 	sbcs.w	r3, r1, #0
		return ticks;
    5836:	bfb8      	it	lt
    5838:	2000      	movlt	r0, #0
    583a:	e7c7      	b.n	57cc <z_tick_sleep+0x14>
		expected_wakeup_ticks = Z_TICK_ABS(ticks);
    583c:	f06f 0601 	mvn.w	r6, #1
    5840:	1a36      	subs	r6, r6, r0
    5842:	e7d3      	b.n	57ec <z_tick_sleep+0x34>
    5844:	20000c70 	.word	0x20000c70
    5848:	20000c98 	.word	0x20000c98
    584c:	0000735f 	.word	0x0000735f

00005850 <z_impl_k_sleep>:

int32_t z_impl_k_sleep(k_timeout_t timeout)
{
    5850:	b508      	push	{r3, lr}
    5852:	460b      	mov	r3, r1
	__ASSERT(!arch_is_in_isr(), "");

	SYS_PORT_TRACING_FUNC_ENTER(k_thread, sleep, timeout);

	/* in case of K_FOREVER, we suspend */
	if (K_TIMEOUT_EQ(timeout, K_FOREVER)) {
    5854:	3301      	adds	r3, #1
    5856:	bf08      	it	eq
    5858:	f1b0 3fff 	cmpeq.w	r0, #4294967295
    585c:	d106      	bne.n	586c <z_impl_k_sleep+0x1c>
		k_thread_suspend(_current);
    585e:	4b08      	ldr	r3, [pc, #32]	; (5880 <z_impl_k_sleep+0x30>)
    5860:	6898      	ldr	r0, [r3, #8]
	z_impl_k_thread_suspend(thread);
    5862:	f7ff ff0d 	bl	5680 <z_impl_k_thread_suspend>

		SYS_PORT_TRACING_FUNC_EXIT(k_thread, sleep, timeout, (int32_t) K_TICKS_FOREVER);

		return (int32_t) K_TICKS_FOREVER;
    5866:	f04f 30ff 	mov.w	r0, #4294967295
	int32_t ret = k_ticks_to_ms_floor64(ticks);

	SYS_PORT_TRACING_FUNC_EXIT(k_thread, sleep, timeout, ret);

	return ret;
}
    586a:	bd08      	pop	{r3, pc}
	ticks = z_tick_sleep(ticks);
    586c:	f7ff ffa4 	bl	57b8 <z_tick_sleep>
			return (t * to_hz + off) / from_hz;
    5870:	f44f 737a 	mov.w	r3, #1000	; 0x3e8
    5874:	fb80 2303 	smull	r2, r3, r0, r3
    5878:	0bd0      	lsrs	r0, r2, #15
    587a:	ea40 4043 	orr.w	r0, r0, r3, lsl #17
	return ret;
    587e:	e7f4      	b.n	586a <z_impl_k_sleep+0x1a>
    5880:	20000c70 	.word	0x20000c70

00005884 <z_impl_z_current_get>:

#ifdef CONFIG_SMP
	arch_irq_unlock(k);
#endif
	return ret;
}
    5884:	4b01      	ldr	r3, [pc, #4]	; (588c <z_impl_z_current_get+0x8>)
    5886:	6898      	ldr	r0, [r3, #8]
    5888:	4770      	bx	lr
    588a:	bf00      	nop
    588c:	20000c70 	.word	0x20000c70

00005890 <z_thread_abort>:
#endif
	}
}

void z_thread_abort(struct k_thread *thread)
{
    5890:	e92d 41f0 	stmdb	sp!, {r4, r5, r6, r7, r8, lr}
    5894:	4604      	mov	r4, r0
    5896:	f04f 0320 	mov.w	r3, #32
    589a:	f3ef 8611 	mrs	r6, BASEPRI
    589e:	f383 8812 	msr	BASEPRI_MAX, r3
    58a2:	f3bf 8f6f 	isb	sy
	k_spinlock_key_t key = k_spin_lock(&sched_spinlock);

	if ((thread->base.thread_state & _THREAD_DEAD) != 0U) {
    58a6:	7b43      	ldrb	r3, [r0, #13]
    58a8:	071a      	lsls	r2, r3, #28
    58aa:	d505      	bpl.n	58b8 <z_thread_abort+0x28>
	__asm__ volatile(
    58ac:	f386 8811 	msr	BASEPRI, r6
    58b0:	f3bf 8f6f 	isb	sy
	if (thread == _current && !arch_is_in_isr()) {
		z_swap(&sched_spinlock, key);
		__ASSERT(false, "aborted _current back from dead");
	}
	k_spin_unlock(&sched_spinlock, key);
}
    58b4:	e8bd 81f0 	ldmia.w	sp!, {r4, r5, r6, r7, r8, pc}
		thread->base.thread_state &= ~_THREAD_ABORTING;
    58b8:	f023 0220 	bic.w	r2, r3, #32
    58bc:	f042 0108 	orr.w	r1, r2, #8
		if (z_is_thread_queued(thread)) {
    58c0:	09d2      	lsrs	r2, r2, #7
    58c2:	d120      	bne.n	5906 <z_thread_abort+0x76>
		thread->base.thread_state &= ~_THREAD_ABORTING;
    58c4:	7341      	strb	r1, [r0, #13]
		if (thread->base.pended_on != NULL) {
    58c6:	68a3      	ldr	r3, [r4, #8]
    58c8:	b113      	cbz	r3, 58d0 <z_thread_abort+0x40>
			unpend_thread_no_timeout(thread);
    58ca:	4620      	mov	r0, r4
    58cc:	f001 fcfd 	bl	72ca <unpend_thread_no_timeout>
	return z_abort_timeout(&thread->base.timeout);
    58d0:	f104 0018 	add.w	r0, r4, #24
    58d4:	f001 fdd1 	bl	747a <z_abort_timeout>
	sys_dlist_init(&w->waitq);
}

static inline struct k_thread *z_waitq_head(_wait_q_t *w)
{
	return (struct k_thread *)sys_dlist_peek_head(&w->waitq);
    58d8:	f104 0758 	add.w	r7, r4, #88	; 0x58
    58dc:	f04f 0800 	mov.w	r8, #0
	return list->head == list;
    58e0:	6da5      	ldr	r5, [r4, #88]	; 0x58
	return sys_dlist_is_empty(list) ? NULL : list->head;
    58e2:	42bd      	cmp	r5, r7
    58e4:	d000      	beq.n	58e8 <z_thread_abort+0x58>
	while ((thread = z_waitq_head(wait_q)) != NULL) {
    58e6:	b9b5      	cbnz	r5, 5916 <z_thread_abort+0x86>
		update_cache(1);
    58e8:	2001      	movs	r0, #1
    58ea:	f7ff fd35 	bl	5358 <update_cache>
	if (thread == _current && !arch_is_in_isr()) {
    58ee:	4b10      	ldr	r3, [pc, #64]	; (5930 <z_thread_abort+0xa0>)
    58f0:	689b      	ldr	r3, [r3, #8]
    58f2:	42a3      	cmp	r3, r4
    58f4:	d1da      	bne.n	58ac <z_thread_abort+0x1c>
    58f6:	f3ef 8305 	mrs	r3, IPSR
    58fa:	2b00      	cmp	r3, #0
    58fc:	d1d6      	bne.n	58ac <z_thread_abort+0x1c>
    58fe:	4630      	mov	r0, r6
    5900:	f7fc ff04 	bl	270c <arch_swap>
	return ret;
    5904:	e7d2      	b.n	58ac <z_thread_abort+0x1c>
	thread->base.thread_state &= ~_THREAD_QUEUED;
    5906:	f003 035f 	and.w	r3, r3, #95	; 0x5f
    590a:	f043 0308 	orr.w	r3, r3, #8
    590e:	7343      	strb	r3, [r0, #13]
	sys_dlist_remove(&thread->base.qnode_dlist);
    5910:	f001 fcd3 	bl	72ba <sys_dlist_remove>
}
    5914:	e7d7      	b.n	58c6 <z_thread_abort+0x36>
		unpend_thread_no_timeout(thread);
    5916:	4628      	mov	r0, r5
    5918:	f001 fcd7 	bl	72ca <unpend_thread_no_timeout>
    591c:	f105 0018 	add.w	r0, r5, #24
    5920:	f001 fdab 	bl	747a <z_abort_timeout>
    5924:	f8c5 8078 	str.w	r8, [r5, #120]	; 0x78
		ready_thread(thread);
    5928:	4628      	mov	r0, r5
    592a:	f7ff fdb5 	bl	5498 <ready_thread>
    592e:	e7d7      	b.n	58e0 <z_thread_abort+0x50>
    5930:	20000c70 	.word	0x20000c70

00005934 <z_impl_k_sem_give>:
	ARG_UNUSED(sem);
#endif
}

void z_impl_k_sem_give(struct k_sem *sem)
{
    5934:	b538      	push	{r3, r4, r5, lr}
    5936:	4604      	mov	r4, r0
	__asm__ volatile(
    5938:	f04f 0320 	mov.w	r3, #32
    593c:	f3ef 8511 	mrs	r5, BASEPRI
    5940:	f383 8812 	msr	BASEPRI_MAX, r3
    5944:	f3bf 8f6f 	isb	sy
	k_spinlock_key_t key = k_spin_lock(&lock);
	struct k_thread *thread;

	SYS_PORT_TRACING_OBJ_FUNC_ENTER(k_sem, give, sem);

	thread = z_unpend_first_thread(&sem->wait_q);
    5948:	f001 fd6d 	bl	7426 <z_unpend_first_thread>

	if (thread != NULL) {
    594c:	b148      	cbz	r0, 5962 <z_impl_k_sem_give+0x2e>
    594e:	2200      	movs	r2, #0
    5950:	6782      	str	r2, [r0, #120]	; 0x78
		arch_thread_return_value_set(thread, 0);
		z_ready_thread(thread);
    5952:	f001 fcf4 	bl	733e <z_ready_thread>
	} else {
		sem->count += (sem->count != sem->limit) ? 1U : 0U;
		handle_poll_events(sem);
	}

	z_reschedule(&lock, key);
    5956:	4629      	mov	r1, r5
    5958:	4805      	ldr	r0, [pc, #20]	; (5970 <z_impl_k_sem_give+0x3c>)

	SYS_PORT_TRACING_OBJ_FUNC_EXIT(k_sem, give, sem);
}
    595a:	e8bd 4038 	ldmia.w	sp!, {r3, r4, r5, lr}
	z_reschedule(&lock, key);
    595e:	f7ff bcd5 	b.w	530c <z_reschedule>
		sem->count += (sem->count != sem->limit) ? 1U : 0U;
    5962:	e9d4 3202 	ldrd	r3, r2, [r4, #8]
    5966:	429a      	cmp	r2, r3
    5968:	bf18      	it	ne
    596a:	3301      	addne	r3, #1
    596c:	60a3      	str	r3, [r4, #8]
		handle_poll_events(sem);
    596e:	e7f2      	b.n	5956 <z_impl_k_sem_give+0x22>
    5970:	20000f48 	.word	0x20000f48

00005974 <z_impl_k_sem_take>:
}
#include <syscalls/k_sem_give_mrsh.c>
#endif

int z_impl_k_sem_take(struct k_sem *sem, k_timeout_t timeout)
{
    5974:	b537      	push	{r0, r1, r2, r4, r5, lr}
    5976:	4614      	mov	r4, r2
    5978:	461d      	mov	r5, r3
    597a:	f04f 0320 	mov.w	r3, #32
    597e:	f3ef 8111 	mrs	r1, BASEPRI
    5982:	f383 8812 	msr	BASEPRI_MAX, r3
    5986:	f3bf 8f6f 	isb	sy

	k_spinlock_key_t key = k_spin_lock(&lock);

	SYS_PORT_TRACING_OBJ_FUNC_ENTER(k_sem, take, sem, timeout);

	if (likely(sem->count > 0U)) {
    598a:	6883      	ldr	r3, [r0, #8]
    598c:	b143      	cbz	r3, 59a0 <z_impl_k_sem_take+0x2c>
		sem->count--;
    598e:	3b01      	subs	r3, #1
    5990:	6083      	str	r3, [r0, #8]
	__asm__ volatile(
    5992:	f381 8811 	msr	BASEPRI, r1
    5996:	f3bf 8f6f 	isb	sy
		k_spin_unlock(&lock, key);
		ret = 0;
    599a:	2000      	movs	r0, #0

out:
	SYS_PORT_TRACING_OBJ_FUNC_EXIT(k_sem, take, sem, timeout, ret);

	return ret;
}
    599c:	b003      	add	sp, #12
    599e:	bd30      	pop	{r4, r5, pc}
	if (K_TIMEOUT_EQ(timeout, K_NO_WAIT)) {
    59a0:	ea54 0305 	orrs.w	r3, r4, r5
    59a4:	d106      	bne.n	59b4 <z_impl_k_sem_take+0x40>
    59a6:	f381 8811 	msr	BASEPRI, r1
    59aa:	f3bf 8f6f 	isb	sy
		ret = -EBUSY;
    59ae:	f06f 000f 	mvn.w	r0, #15
    59b2:	e7f3      	b.n	599c <z_impl_k_sem_take+0x28>
	ret = z_pend_curr(&lock, key, &sem->wait_q, timeout);
    59b4:	4602      	mov	r2, r0
    59b6:	e9cd 4500 	strd	r4, r5, [sp]
    59ba:	4802      	ldr	r0, [pc, #8]	; (59c4 <z_impl_k_sem_take+0x50>)
    59bc:	f7ff fe00 	bl	55c0 <z_pend_curr>
	return ret;
    59c0:	e7ec      	b.n	599c <z_impl_k_sem_take+0x28>
    59c2:	bf00      	nop
    59c4:	20000f48 	.word	0x20000f48

000059c8 <z_setup_new_thread>:
char *z_setup_new_thread(struct k_thread *new_thread,
			 k_thread_stack_t *stack, size_t stack_size,
			 k_thread_entry_t entry,
			 void *p1, void *p2, void *p3,
			 int prio, uint32_t options, const char *name)
{
    59c8:	e92d 41ff 	stmdb	sp!, {r0, r1, r2, r3, r4, r5, r6, r7, r8, lr}
void z_init_thread_base(struct _thread_base *thread_base, int priority,
		       uint32_t initial_state, unsigned int options)
{
	/* k_q_node is initialized upon first insertion in a list */
	thread_base->pended_on = NULL;
	thread_base->user_options = (uint8_t)options;
    59cc:	9e0e      	ldr	r6, [sp, #56]	; 0x38
    59ce:	7306      	strb	r6, [r0, #12]
	thread_base->thread_state = (uint8_t)initial_state;
    59d0:	2604      	movs	r6, #4
    59d2:	7346      	strb	r6, [r0, #13]

	thread_base->prio = priority;
    59d4:	9e0d      	ldr	r6, [sp, #52]	; 0x34
    59d6:	7386      	strb	r6, [r0, #14]
	sys_dlist_init(&w->waitq);
    59d8:	f100 0558 	add.w	r5, r0, #88	; 0x58
{
    59dc:	460f      	mov	r7, r1
		stack_obj_size = Z_KERNEL_STACK_SIZE_ADJUST(stack_size);
    59de:	1dd6      	adds	r6, r2, #7
	list->tail = (sys_dnode_t *)list;
    59e0:	e9c0 5516 	strd	r5, r5, [r0, #88]	; 0x58
	arch_new_thread(new_thread, stack, stack_ptr, entry, p1, p2, p3);
    59e4:	9a0c      	ldr	r2, [sp, #48]	; 0x30
	thread_base->pended_on = NULL;
    59e6:	2500      	movs	r5, #0
		stack_obj_size = Z_KERNEL_STACK_SIZE_ADJUST(stack_size);
    59e8:	f026 0607 	bic.w	r6, r6, #7

/** @} */

static inline char *Z_KERNEL_STACK_BUFFER(k_thread_stack_t *sym)
{
	return (char *)sym + K_KERNEL_STACK_RESERVED;
    59ec:	3720      	adds	r7, #32
	node->prev = NULL;
    59ee:	e9c0 5506 	strd	r5, r5, [r0, #24]
	new_thread->stack_info.size = stack_buf_size;
    59f2:	e9c0 7619 	strd	r7, r6, [r0, #100]	; 0x64
	thread_base->pended_on = NULL;
    59f6:	6085      	str	r5, [r0, #8]

	thread_base->sched_locked = 0U;
    59f8:	73c5      	strb	r5, [r0, #15]
	new_thread->stack_info.delta = delta;
    59fa:	66c5      	str	r5, [r0, #108]	; 0x6c
		stack_obj_size = Z_KERNEL_STACK_SIZE_ADJUST(stack_size);
    59fc:	f106 0820 	add.w	r8, r6, #32
	arch_new_thread(new_thread, stack, stack_ptr, entry, p1, p2, p3);
    5a00:	9202      	str	r2, [sp, #8]
    5a02:	9a0b      	ldr	r2, [sp, #44]	; 0x2c
    5a04:	9201      	str	r2, [sp, #4]
	stack_ptr = (char *)stack + stack_obj_size;
    5a06:	4488      	add	r8, r1
	arch_new_thread(new_thread, stack, stack_ptr, entry, p1, p2, p3);
    5a08:	9a0a      	ldr	r2, [sp, #40]	; 0x28
    5a0a:	9200      	str	r2, [sp, #0]
    5a0c:	4642      	mov	r2, r8
{
    5a0e:	4604      	mov	r4, r0
	arch_new_thread(new_thread, stack, stack_ptr, entry, p1, p2, p3);
    5a10:	f7fc fe96 	bl	2740 <arch_new_thread>
	if (!_current) {
    5a14:	4b04      	ldr	r3, [pc, #16]	; (5a28 <z_setup_new_thread+0x60>)
	new_thread->init_data = NULL;
    5a16:	6565      	str	r5, [r4, #84]	; 0x54
	if (!_current) {
    5a18:	689b      	ldr	r3, [r3, #8]
    5a1a:	b103      	cbz	r3, 5a1e <z_setup_new_thread+0x56>
	new_thread->resource_pool = _current->resource_pool;
    5a1c:	6f1b      	ldr	r3, [r3, #112]	; 0x70
	return stack_ptr;
    5a1e:	6723      	str	r3, [r4, #112]	; 0x70
}
    5a20:	4640      	mov	r0, r8
    5a22:	b004      	add	sp, #16
    5a24:	e8bd 81f0 	ldmia.w	sp!, {r4, r5, r6, r7, r8, pc}
    5a28:	20000c70 	.word	0x20000c70

00005a2c <z_impl_k_thread_create>:
{
    5a2c:	b5f0      	push	{r4, r5, r6, r7, lr}
    5a2e:	b087      	sub	sp, #28
	z_setup_new_thread(new_thread, stack, stack_size, entry, p1, p2, p3,
    5a30:	2500      	movs	r5, #0
    5a32:	9505      	str	r5, [sp, #20]
    5a34:	9d10      	ldr	r5, [sp, #64]	; 0x40
    5a36:	9504      	str	r5, [sp, #16]
    5a38:	9d0f      	ldr	r5, [sp, #60]	; 0x3c
    5a3a:	9503      	str	r5, [sp, #12]
    5a3c:	9d0e      	ldr	r5, [sp, #56]	; 0x38
    5a3e:	9502      	str	r5, [sp, #8]
{
    5a40:	e9dd 6712 	ldrd	r6, r7, [sp, #72]	; 0x48
	z_setup_new_thread(new_thread, stack, stack_size, entry, p1, p2, p3,
    5a44:	9d0d      	ldr	r5, [sp, #52]	; 0x34
    5a46:	9501      	str	r5, [sp, #4]
    5a48:	9d0c      	ldr	r5, [sp, #48]	; 0x30
    5a4a:	9500      	str	r5, [sp, #0]
{
    5a4c:	4604      	mov	r4, r0
	z_setup_new_thread(new_thread, stack, stack_size, entry, p1, p2, p3,
    5a4e:	f7ff ffbb 	bl	59c8 <z_setup_new_thread>
	if (!K_TIMEOUT_EQ(delay, K_FOREVER)) {
    5a52:	1c7b      	adds	r3, r7, #1
    5a54:	bf08      	it	eq
    5a56:	f1b6 3fff 	cmpeq.w	r6, #4294967295
    5a5a:	d005      	beq.n	5a68 <z_impl_k_thread_create+0x3c>
	if (K_TIMEOUT_EQ(delay, K_NO_WAIT)) {
    5a5c:	ea56 0307 	orrs.w	r3, r6, r7
    5a60:	d105      	bne.n	5a6e <z_impl_k_thread_create+0x42>
	z_sched_start(thread);
    5a62:	4620      	mov	r0, r4
    5a64:	f7ff fd50 	bl	5508 <z_sched_start>
}
    5a68:	4620      	mov	r0, r4
    5a6a:	b007      	add	sp, #28
    5a6c:	bdf0      	pop	{r4, r5, r6, r7, pc}
	z_add_timeout(&thread->base.timeout, z_thread_timeout, ticks);
    5a6e:	4904      	ldr	r1, [pc, #16]	; (5a80 <z_impl_k_thread_create+0x54>)
    5a70:	4632      	mov	r2, r6
    5a72:	463b      	mov	r3, r7
    5a74:	f104 0018 	add.w	r0, r4, #24
    5a78:	f000 f8b2 	bl	5be0 <z_add_timeout>
    5a7c:	e7f4      	b.n	5a68 <z_impl_k_thread_create+0x3c>
    5a7e:	bf00      	nop
    5a80:	0000735f 	.word	0x0000735f

00005a84 <z_init_static_threads>:
{
    5a84:	e92d 47f0 	stmdb	sp!, {r4, r5, r6, r7, r8, r9, sl, lr}
	_FOREACH_STATIC_THREAD(thread_data) {
    5a88:	4e2a      	ldr	r6, [pc, #168]	; (5b34 <z_init_static_threads+0xb0>)
    5a8a:	4d2b      	ldr	r5, [pc, #172]	; (5b38 <z_init_static_threads+0xb4>)
{
    5a8c:	b086      	sub	sp, #24
    5a8e:	46b0      	mov	r8, r6
	_FOREACH_STATIC_THREAD(thread_data) {
    5a90:	42b5      	cmp	r5, r6
    5a92:	f105 0430 	add.w	r4, r5, #48	; 0x30
    5a96:	d310      	bcc.n	5aba <z_init_static_threads+0x36>
	k_sched_lock();
    5a98:	f7ff fc4a 	bl	5330 <k_sched_lock>
	_FOREACH_STATIC_THREAD(thread_data) {
    5a9c:	4c26      	ldr	r4, [pc, #152]	; (5b38 <z_init_static_threads+0xb4>)
    5a9e:	f8df a09c 	ldr.w	sl, [pc, #156]	; 5b3c <z_init_static_threads+0xb8>
    5aa2:	f44f 4900 	mov.w	r9, #32768	; 0x8000
    5aa6:	f240 36e7 	movw	r6, #999	; 0x3e7
    5aaa:	2700      	movs	r7, #0
    5aac:	4544      	cmp	r4, r8
    5aae:	d321      	bcc.n	5af4 <z_init_static_threads+0x70>
}
    5ab0:	b006      	add	sp, #24
    5ab2:	e8bd 47f0 	ldmia.w	sp!, {r4, r5, r6, r7, r8, r9, sl, lr}
	k_sched_unlock();
    5ab6:	f7ff be15 	b.w	56e4 <k_sched_unlock>
		z_setup_new_thread(
    5aba:	f854 3c04 	ldr.w	r3, [r4, #-4]
    5abe:	9305      	str	r3, [sp, #20]
    5ac0:	f854 3c10 	ldr.w	r3, [r4, #-16]
    5ac4:	9304      	str	r3, [sp, #16]
    5ac6:	f854 3c14 	ldr.w	r3, [r4, #-20]
    5aca:	9303      	str	r3, [sp, #12]
    5acc:	f854 3c18 	ldr.w	r3, [r4, #-24]
    5ad0:	9302      	str	r3, [sp, #8]
    5ad2:	f854 3c1c 	ldr.w	r3, [r4, #-28]
    5ad6:	9301      	str	r3, [sp, #4]
    5ad8:	f854 3c20 	ldr.w	r3, [r4, #-32]
    5adc:	9300      	str	r3, [sp, #0]
    5ade:	e954 230a 	ldrd	r2, r3, [r4, #-40]	; 0x28
    5ae2:	e954 010c 	ldrd	r0, r1, [r4, #-48]	; 0x30
    5ae6:	f7ff ff6f 	bl	59c8 <z_setup_new_thread>
		thread_data->init_thread->init_data = thread_data;
    5aea:	f854 3c30 	ldr.w	r3, [r4, #-48]
    5aee:	655d      	str	r5, [r3, #84]	; 0x54
    5af0:	4625      	mov	r5, r4
    5af2:	e7cd      	b.n	5a90 <z_init_static_threads+0xc>
		if (thread_data->init_delay != K_TICKS_FOREVER) {
    5af4:	6a63      	ldr	r3, [r4, #36]	; 0x24
    5af6:	1c5a      	adds	r2, r3, #1
    5af8:	d00d      	beq.n	5b16 <z_init_static_threads+0x92>
					    K_MSEC(thread_data->init_delay));
    5afa:	ea23 73e3 	bic.w	r3, r3, r3, asr #31
    5afe:	4630      	mov	r0, r6
    5b00:	4639      	mov	r1, r7
    5b02:	fbc9 0103 	smlal	r0, r1, r9, r3
	if (K_TIMEOUT_EQ(delay, K_NO_WAIT)) {
    5b06:	42b9      	cmp	r1, r7
    5b08:	bf08      	it	eq
    5b0a:	42b0      	cmpeq	r0, r6
			schedule_new_thread(thread_data->init_thread,
    5b0c:	6825      	ldr	r5, [r4, #0]
	if (K_TIMEOUT_EQ(delay, K_NO_WAIT)) {
    5b0e:	d104      	bne.n	5b1a <z_init_static_threads+0x96>
	z_sched_start(thread);
    5b10:	4628      	mov	r0, r5
    5b12:	f7ff fcf9 	bl	5508 <z_sched_start>
	_FOREACH_STATIC_THREAD(thread_data) {
    5b16:	3430      	adds	r4, #48	; 0x30
    5b18:	e7c8      	b.n	5aac <z_init_static_threads+0x28>
    5b1a:	f44f 727a 	mov.w	r2, #1000	; 0x3e8
    5b1e:	2300      	movs	r3, #0
    5b20:	f7fb f8c6 	bl	cb0 <__aeabi_uldivmod>
    5b24:	4602      	mov	r2, r0
    5b26:	460b      	mov	r3, r1
    5b28:	f105 0018 	add.w	r0, r5, #24
    5b2c:	4651      	mov	r1, sl
    5b2e:	f000 f857 	bl	5be0 <z_add_timeout>
    5b32:	e7f0      	b.n	5b16 <z_init_static_threads+0x92>
    5b34:	20000230 	.word	0x20000230
    5b38:	20000230 	.word	0x20000230
    5b3c:	0000735f 	.word	0x0000735f

00005b40 <elapsed>:
	sys_dlist_remove(&t->node);
}

static int32_t elapsed(void)
{
	return announce_remaining == 0 ? sys_clock_elapsed() : 0U;
    5b40:	4b03      	ldr	r3, [pc, #12]	; (5b50 <elapsed+0x10>)
    5b42:	681b      	ldr	r3, [r3, #0]
    5b44:	b90b      	cbnz	r3, 5b4a <elapsed+0xa>
    5b46:	f7fe baf5 	b.w	4134 <sys_clock_elapsed>
}
    5b4a:	2000      	movs	r0, #0
    5b4c:	4770      	bx	lr
    5b4e:	bf00      	nop
    5b50:	20000ca4 	.word	0x20000ca4

00005b54 <remove_timeout>:
{
    5b54:	b530      	push	{r4, r5, lr}
    5b56:	6803      	ldr	r3, [r0, #0]
	return (node != NULL) ? sys_dlist_peek_next_no_check(list, node) : NULL;
    5b58:	b168      	cbz	r0, 5b76 <remove_timeout+0x22>
    5b5a:	4a0a      	ldr	r2, [pc, #40]	; (5b84 <remove_timeout+0x30>)
	return (node == list->tail) ? NULL : node->next;
    5b5c:	6852      	ldr	r2, [r2, #4]
    5b5e:	4290      	cmp	r0, r2
    5b60:	d009      	beq.n	5b76 <remove_timeout+0x22>
	if (next(t) != NULL) {
    5b62:	b143      	cbz	r3, 5b76 <remove_timeout+0x22>
		next(t)->dticks += t->dticks;
    5b64:	e9d3 2104 	ldrd	r2, r1, [r3, #16]
    5b68:	e9d0 4504 	ldrd	r4, r5, [r0, #16]
    5b6c:	1912      	adds	r2, r2, r4
    5b6e:	eb45 0101 	adc.w	r1, r5, r1
    5b72:	e9c3 2104 	strd	r2, r1, [r3, #16]
 * @return N/A
 */

static inline void sys_dlist_remove(sys_dnode_t *node)
{
	sys_dnode_t *const prev = node->prev;
    5b76:	6842      	ldr	r2, [r0, #4]
	sys_dnode_t *const next = node->next;

	prev->next = next;
    5b78:	6013      	str	r3, [r2, #0]
	next->prev = prev;
    5b7a:	605a      	str	r2, [r3, #4]
	node->next = NULL;
    5b7c:	2300      	movs	r3, #0
	node->prev = NULL;
    5b7e:	e9c0 3300 	strd	r3, r3, [r0]
}
    5b82:	bd30      	pop	{r4, r5, pc}
    5b84:	200001ac 	.word	0x200001ac

00005b88 <next_timeout>:

static int32_t next_timeout(void)
{
    5b88:	b538      	push	{r3, r4, r5, lr}
	return list->head == list;
    5b8a:	4b13      	ldr	r3, [pc, #76]	; (5bd8 <next_timeout+0x50>)
    5b8c:	681c      	ldr	r4, [r3, #0]
	return sys_dlist_is_empty(list) ? NULL : list->head;
    5b8e:	429c      	cmp	r4, r3
    5b90:	bf08      	it	eq
    5b92:	2400      	moveq	r4, #0
	struct _timeout *to = first();
	int32_t ticks_elapsed = elapsed();
    5b94:	f7ff ffd4 	bl	5b40 <elapsed>
    5b98:	4605      	mov	r5, r0
	int32_t ret = to == NULL ? MAX_WAIT
    5b9a:	b1bc      	cbz	r4, 5bcc <next_timeout+0x44>
		: CLAMP(to->dticks - ticks_elapsed, 0, MAX_WAIT);
    5b9c:	e9d4 0104 	ldrd	r0, r1, [r4, #16]
    5ba0:	1b40      	subs	r0, r0, r5
    5ba2:	eb61 71e5 	sbc.w	r1, r1, r5, asr #31
	int32_t ret = to == NULL ? MAX_WAIT
    5ba6:	2801      	cmp	r0, #1
    5ba8:	f171 0300 	sbcs.w	r3, r1, #0
    5bac:	db11      	blt.n	5bd2 <next_timeout+0x4a>
		: CLAMP(to->dticks - ticks_elapsed, 0, MAX_WAIT);
    5bae:	f06f 4200 	mvn.w	r2, #2147483648	; 0x80000000
    5bb2:	2300      	movs	r3, #0
    5bb4:	4282      	cmp	r2, r0
    5bb6:	eb73 0401 	sbcs.w	r4, r3, r1
    5bba:	da00      	bge.n	5bbe <next_timeout+0x36>
    5bbc:	4610      	mov	r0, r2

#ifdef CONFIG_TIMESLICING
	if (_current_cpu->slice_ticks && _current_cpu->slice_ticks < ret) {
    5bbe:	4b07      	ldr	r3, [pc, #28]	; (5bdc <next_timeout+0x54>)
    5bc0:	691b      	ldr	r3, [r3, #16]
    5bc2:	b113      	cbz	r3, 5bca <next_timeout+0x42>
    5bc4:	4298      	cmp	r0, r3
    5bc6:	bfa8      	it	ge
    5bc8:	4618      	movge	r0, r3
		ret = _current_cpu->slice_ticks;
	}
#endif
	return ret;
}
    5bca:	bd38      	pop	{r3, r4, r5, pc}
	int32_t ret = to == NULL ? MAX_WAIT
    5bcc:	f06f 4000 	mvn.w	r0, #2147483648	; 0x80000000
    5bd0:	e7f5      	b.n	5bbe <next_timeout+0x36>
    5bd2:	2000      	movs	r0, #0
    5bd4:	e7f3      	b.n	5bbe <next_timeout+0x36>
    5bd6:	bf00      	nop
    5bd8:	200001ac 	.word	0x200001ac
    5bdc:	20000c70 	.word	0x20000c70

00005be0 <z_add_timeout>:

void z_add_timeout(struct _timeout *to, _timeout_func_t fn,
		   k_timeout_t timeout)
{
	if (K_TIMEOUT_EQ(timeout, K_FOREVER)) {
    5be0:	f1b3 3fff 	cmp.w	r3, #4294967295
    5be4:	bf08      	it	eq
    5be6:	f1b2 3fff 	cmpeq.w	r2, #4294967295
{
    5bea:	e92d 4ff7 	stmdb	sp!, {r0, r1, r2, r4, r5, r6, r7, r8, r9, sl, fp, lr}
    5bee:	4604      	mov	r4, r0
    5bf0:	4692      	mov	sl, r2
    5bf2:	469b      	mov	fp, r3
	if (K_TIMEOUT_EQ(timeout, K_FOREVER)) {
    5bf4:	d073      	beq.n	5cde <z_add_timeout+0xfe>
#ifdef CONFIG_KERNEL_COHERENCE
	__ASSERT_NO_MSG(arch_mem_coherent(to));
#endif

	__ASSERT(!sys_dnode_is_linked(&to->node), "");
	to->fn = fn;
    5bf6:	6081      	str	r1, [r0, #8]
	__asm__ volatile(
    5bf8:	f04f 0320 	mov.w	r3, #32
    5bfc:	f3ef 8511 	mrs	r5, BASEPRI
    5c00:	f383 8812 	msr	BASEPRI_MAX, r3
    5c04:	f3bf 8f6f 	isb	sy

	LOCKED(&timeout_lock) {
		struct _timeout *t;

		if (IS_ENABLED(CONFIG_TIMEOUT_64BIT) &&
		    Z_TICK_ABS(timeout.ticks) >= 0) {
    5c08:	f06f 0301 	mvn.w	r3, #1
    5c0c:	ebb3 080a 	subs.w	r8, r3, sl
    5c10:	f04f 32ff 	mov.w	r2, #4294967295
    5c14:	eb62 090b 	sbc.w	r9, r2, fp
		if (IS_ENABLED(CONFIG_TIMEOUT_64BIT) &&
    5c18:	f1b8 0f00 	cmp.w	r8, #0
    5c1c:	f179 0100 	sbcs.w	r1, r9, #0
    5c20:	db1c      	blt.n	5c5c <z_add_timeout+0x7c>
			k_ticks_t ticks = Z_TICK_ABS(timeout.ticks) - curr_tick;
    5c22:	4830      	ldr	r0, [pc, #192]	; (5ce4 <z_add_timeout+0x104>)
    5c24:	e9d0 1000 	ldrd	r1, r0, [r0]
    5c28:	1a5b      	subs	r3, r3, r1
    5c2a:	eb62 0200 	sbc.w	r2, r2, r0

			to->dticks = MAX(1, ticks);
    5c2e:	ebb3 060a 	subs.w	r6, r3, sl
    5c32:	eb62 070b 	sbc.w	r7, r2, fp
    5c36:	2e01      	cmp	r6, #1
    5c38:	f177 0300 	sbcs.w	r3, r7, #0
    5c3c:	bfbc      	itt	lt
    5c3e:	2601      	movlt	r6, #1
    5c40:	2700      	movlt	r7, #0
    5c42:	e9c4 6704 	strd	r6, r7, [r4, #16]
	return list->head == list;
    5c46:	4a28      	ldr	r2, [pc, #160]	; (5ce8 <z_add_timeout+0x108>)
    5c48:	e9d2 3c00 	ldrd	r3, ip, [r2]
	return sys_dlist_is_empty(list) ? NULL : list->head;
    5c4c:	4293      	cmp	r3, r2
    5c4e:	d11e      	bne.n	5c8e <z_add_timeout+0xae>
	node->prev = tail;
    5c50:	e9c4 2c00 	strd	r2, ip, [r4]
	tail->next = node;
    5c54:	f8cc 4000 	str.w	r4, [ip]
	list->tail = node;
    5c58:	6054      	str	r4, [r2, #4]
}
    5c5a:	e02d      	b.n	5cb8 <z_add_timeout+0xd8>
		} else {
			to->dticks = timeout.ticks + 1 + elapsed();
    5c5c:	f7ff ff70 	bl	5b40 <elapsed>
    5c60:	f11a 0301 	adds.w	r3, sl, #1
    5c64:	9300      	str	r3, [sp, #0]
    5c66:	f14b 0300 	adc.w	r3, fp, #0
    5c6a:	9301      	str	r3, [sp, #4]
    5c6c:	e9dd 2300 	ldrd	r2, r3, [sp]
    5c70:	1812      	adds	r2, r2, r0
    5c72:	eb43 73e0 	adc.w	r3, r3, r0, asr #31
    5c76:	e9c4 2304 	strd	r2, r3, [r4, #16]
    5c7a:	e7e4      	b.n	5c46 <z_add_timeout+0x66>
			if (t->dticks > to->dticks) {
				t->dticks -= to->dticks;
				sys_dlist_insert(&t->node, &to->node);
				break;
			}
			to->dticks -= t->dticks;
    5c7c:	ebb6 0008 	subs.w	r0, r6, r8
    5c80:	eb67 0109 	sbc.w	r1, r7, r9
	return (node == list->tail) ? NULL : node->next;
    5c84:	4563      	cmp	r3, ip
    5c86:	e9c4 0104 	strd	r0, r1, [r4, #16]
    5c8a:	d0e1      	beq.n	5c50 <z_add_timeout+0x70>
    5c8c:	681b      	ldr	r3, [r3, #0]
		for (t = first(); t != NULL; t = next(t)) {
    5c8e:	2b00      	cmp	r3, #0
    5c90:	d0de      	beq.n	5c50 <z_add_timeout+0x70>
			if (t->dticks > to->dticks) {
    5c92:	e9d3 8904 	ldrd	r8, r9, [r3, #16]
    5c96:	e9d4 6704 	ldrd	r6, r7, [r4, #16]
    5c9a:	4546      	cmp	r6, r8
    5c9c:	eb77 0109 	sbcs.w	r1, r7, r9
    5ca0:	daec      	bge.n	5c7c <z_add_timeout+0x9c>
				t->dticks -= to->dticks;
    5ca2:	ebb8 0006 	subs.w	r0, r8, r6
    5ca6:	eb69 0107 	sbc.w	r1, r9, r7
    5caa:	e9c3 0104 	strd	r0, r1, [r3, #16]
	sys_dnode_t *const prev = successor->prev;
    5cae:	6859      	ldr	r1, [r3, #4]
	node->next = successor;
    5cb0:	e9c4 3100 	strd	r3, r1, [r4]
	prev->next = node;
    5cb4:	600c      	str	r4, [r1, #0]
	successor->prev = node;
    5cb6:	605c      	str	r4, [r3, #4]
	return list->head == list;
    5cb8:	6813      	ldr	r3, [r2, #0]
	return sys_dlist_is_empty(list) ? NULL : list->head;
    5cba:	4293      	cmp	r3, r2
    5cbc:	d00b      	beq.n	5cd6 <z_add_timeout+0xf6>

		if (t == NULL) {
			sys_dlist_append(&timeout_list, &to->node);
		}

		if (to == first()) {
    5cbe:	429c      	cmp	r4, r3
    5cc0:	d109      	bne.n	5cd6 <z_add_timeout+0xf6>
			 * last announcement, and slice_ticks is based
			 * on that. It means that the time remaining for
			 * the next announcement can be less than
			 * slice_ticks.
			 */
			int32_t next_time = next_timeout();
    5cc2:	f7ff ff61 	bl	5b88 <next_timeout>

			if (next_time == 0 ||
    5cc6:	b118      	cbz	r0, 5cd0 <z_add_timeout+0xf0>
			    _current_cpu->slice_ticks != next_time) {
    5cc8:	4b08      	ldr	r3, [pc, #32]	; (5cec <z_add_timeout+0x10c>)
			if (next_time == 0 ||
    5cca:	691b      	ldr	r3, [r3, #16]
    5ccc:	4283      	cmp	r3, r0
    5cce:	d002      	beq.n	5cd6 <z_add_timeout+0xf6>
				sys_clock_set_timeout(next_time, false);
    5cd0:	2100      	movs	r1, #0
    5cd2:	f7fe f9ff 	bl	40d4 <sys_clock_set_timeout>
	__asm__ volatile(
    5cd6:	f385 8811 	msr	BASEPRI, r5
    5cda:	f3bf 8f6f 	isb	sy
#else
			sys_clock_set_timeout(next_timeout(), false);
#endif	/* CONFIG_TIMESLICING */
		}
	}
}
    5cde:	b003      	add	sp, #12
    5ce0:	e8bd 8ff0 	ldmia.w	sp!, {r4, r5, r6, r7, r8, r9, sl, fp, pc}
    5ce4:	200005a0 	.word	0x200005a0
    5ce8:	200001ac 	.word	0x200001ac
    5cec:	20000c70 	.word	0x20000c70

00005cf0 <sys_clock_announce>:
		}
	}
}

void sys_clock_announce(int32_t ticks)
{
    5cf0:	e92d 4ff7 	stmdb	sp!, {r0, r1, r2, r4, r5, r6, r7, r8, r9, sl, fp, lr}
    5cf4:	4606      	mov	r6, r0
#ifdef CONFIG_TIMESLICING
	z_time_slice(ticks);
    5cf6:	f7ff fb8d 	bl	5414 <z_time_slice>
	__asm__ volatile(
    5cfa:	f04f 0320 	mov.w	r3, #32
    5cfe:	f3ef 8411 	mrs	r4, BASEPRI
    5d02:	f383 8812 	msr	BASEPRI_MAX, r3
    5d06:	f3bf 8f6f 	isb	sy
#endif

	k_spinlock_key_t key = k_spin_lock(&timeout_lock);

	announce_remaining = ticks;
    5d0a:	4d2c      	ldr	r5, [pc, #176]	; (5dbc <sys_clock_announce+0xcc>)
    5d0c:	f8df a0b0 	ldr.w	sl, [pc, #176]	; 5dc0 <sys_clock_announce+0xd0>
	return list->head == list;
    5d10:	f8df b0b0 	ldr.w	fp, [pc, #176]	; 5dc4 <sys_clock_announce+0xd4>
    5d14:	602e      	str	r6, [r5, #0]

	while (first() != NULL && first()->dticks <= announce_remaining) {
    5d16:	4651      	mov	r1, sl
    5d18:	f8d5 c000 	ldr.w	ip, [r5]
    5d1c:	f8db 0000 	ldr.w	r0, [fp]
    5d20:	4662      	mov	r2, ip
    5d22:	17d3      	asrs	r3, r2, #31
	return sys_dlist_is_empty(list) ? NULL : list->head;
    5d24:	4558      	cmp	r0, fp
    5d26:	e9da 8900 	ldrd	r8, r9, [sl]
    5d2a:	e9cd 2300 	strd	r2, r3, [sp]
    5d2e:	d00d      	beq.n	5d4c <sys_clock_announce+0x5c>
    5d30:	b160      	cbz	r0, 5d4c <sys_clock_announce+0x5c>
    5d32:	e9d0 6704 	ldrd	r6, r7, [r0, #16]
    5d36:	45b4      	cmp	ip, r6
    5d38:	41bb      	sbcs	r3, r7
    5d3a:	da1e      	bge.n	5d7a <sys_clock_announce+0x8a>
		t->fn(t);
		key = k_spin_lock(&timeout_lock);
	}

	if (first() != NULL) {
		first()->dticks -= announce_remaining;
    5d3c:	9b00      	ldr	r3, [sp, #0]
    5d3e:	ebb6 0c03 	subs.w	ip, r6, r3
    5d42:	9b01      	ldr	r3, [sp, #4]
    5d44:	eb67 0603 	sbc.w	r6, r7, r3
    5d48:	e9c0 c604 	strd	ip, r6, [r0, #16]
	}

	curr_tick += announce_remaining;
    5d4c:	9b00      	ldr	r3, [sp, #0]
    5d4e:	eb13 0208 	adds.w	r2, r3, r8
    5d52:	9b01      	ldr	r3, [sp, #4]
	announce_remaining = 0;
    5d54:	f04f 0600 	mov.w	r6, #0
	curr_tick += announce_remaining;
    5d58:	eb43 0309 	adc.w	r3, r3, r9
    5d5c:	e9c1 2300 	strd	r2, r3, [r1]
	announce_remaining = 0;
    5d60:	602e      	str	r6, [r5, #0]

	sys_clock_set_timeout(next_timeout(), false);
    5d62:	f7ff ff11 	bl	5b88 <next_timeout>
    5d66:	4631      	mov	r1, r6
    5d68:	f7fe f9b4 	bl	40d4 <sys_clock_set_timeout>
	__asm__ volatile(
    5d6c:	f384 8811 	msr	BASEPRI, r4
    5d70:	f3bf 8f6f 	isb	sy

	k_spin_unlock(&timeout_lock, key);
}
    5d74:	b003      	add	sp, #12
    5d76:	e8bd 8ff0 	ldmia.w	sp!, {r4, r5, r6, r7, r8, r9, sl, fp, pc}
		curr_tick += dt;
    5d7a:	eb18 0806 	adds.w	r8, r8, r6
		t->dticks = 0;
    5d7e:	f04f 0200 	mov.w	r2, #0
    5d82:	f04f 0300 	mov.w	r3, #0
		curr_tick += dt;
    5d86:	eb49 79e6 	adc.w	r9, r9, r6, asr #31
		t->dticks = 0;
    5d8a:	e9c0 2304 	strd	r2, r3, [r0, #16]
		announce_remaining -= dt;
    5d8e:	ebac 0606 	sub.w	r6, ip, r6
		curr_tick += dt;
    5d92:	e9ca 8900 	strd	r8, r9, [sl]
		announce_remaining -= dt;
    5d96:	602e      	str	r6, [r5, #0]
		remove_timeout(t);
    5d98:	f7ff fedc 	bl	5b54 <remove_timeout>
    5d9c:	f384 8811 	msr	BASEPRI, r4
    5da0:	f3bf 8f6f 	isb	sy
		t->fn(t);
    5da4:	6883      	ldr	r3, [r0, #8]
    5da6:	4798      	blx	r3
	__asm__ volatile(
    5da8:	f04f 0320 	mov.w	r3, #32
    5dac:	f3ef 8411 	mrs	r4, BASEPRI
    5db0:	f383 8812 	msr	BASEPRI_MAX, r3
    5db4:	f3bf 8f6f 	isb	sy

	/* Note that we need to use the underlying arch-specific lock
	 * implementation.  The "irq_lock()" API in SMP context is
	 * actually a wrapper for a global spinlock!
	 */
	k.key = arch_irq_lock();
    5db8:	4901      	ldr	r1, [pc, #4]	; (5dc0 <sys_clock_announce+0xd0>)
#endif

#ifdef CONFIG_SPIN_VALIDATE
	z_spin_lock_set_owner(l);
#endif
	return k;
    5dba:	e7ad      	b.n	5d18 <sys_clock_announce+0x28>
    5dbc:	20000ca4 	.word	0x20000ca4
    5dc0:	200005a0 	.word	0x200005a0
    5dc4:	200001ac 	.word	0x200001ac

00005dc8 <sys_clock_tick_get>:

int64_t sys_clock_tick_get(void)
{
    5dc8:	b510      	push	{r4, lr}
    5dca:	f04f 0320 	mov.w	r3, #32
    5dce:	f3ef 8411 	mrs	r4, BASEPRI
    5dd2:	f383 8812 	msr	BASEPRI_MAX, r3
    5dd6:	f3bf 8f6f 	isb	sy
	uint64_t t = 0U;

	LOCKED(&timeout_lock) {
		t = curr_tick + sys_clock_elapsed();
    5dda:	f7fe f9ab 	bl	4134 <sys_clock_elapsed>
    5dde:	4b06      	ldr	r3, [pc, #24]	; (5df8 <sys_clock_tick_get+0x30>)
    5de0:	e9d3 2300 	ldrd	r2, r3, [r3]
    5de4:	1812      	adds	r2, r2, r0
    5de6:	f143 0300 	adc.w	r3, r3, #0
	__asm__ volatile(
    5dea:	f384 8811 	msr	BASEPRI, r4
    5dee:	f3bf 8f6f 	isb	sy
	}
	return t;
}
    5df2:	4610      	mov	r0, r2
    5df4:	4619      	mov	r1, r3
    5df6:	bd10      	pop	{r4, pc}
    5df8:	200005a0 	.word	0x200005a0

00005dfc <z_timer_expiration_handler>:
 * @param t  Timeout used by the timer.
 *
 * @return N/A
 */
void z_timer_expiration_handler(struct _timeout *t)
{
    5dfc:	b5f8      	push	{r3, r4, r5, r6, r7, lr}
    5dfe:	4604      	mov	r4, r0
	__asm__ volatile(
    5e00:	f04f 0320 	mov.w	r3, #32
    5e04:	f3ef 8511 	mrs	r5, BASEPRI
    5e08:	f383 8812 	msr	BASEPRI_MAX, r3
    5e0c:	f3bf 8f6f 	isb	sy

	/*
	 * if the timer is periodic, start it again; don't add _TICK_ALIGN
	 * since we're already aligned to a tick boundary
	 */
	if (!K_TIMEOUT_EQ(timer->period, K_NO_WAIT) &&
    5e10:	e9d0 230a 	ldrd	r2, r3, [r0, #40]	; 0x28
    5e14:	1c56      	adds	r6, r2, #1
    5e16:	f143 0700 	adc.w	r7, r3, #0
    5e1a:	2f00      	cmp	r7, #0
    5e1c:	bf08      	it	eq
    5e1e:	2e02      	cmpeq	r6, #2
    5e20:	d302      	bcc.n	5e28 <z_timer_expiration_handler+0x2c>
	    !K_TIMEOUT_EQ(timer->period, K_FOREVER)) {
		z_add_timeout(&timer->timeout, z_timer_expiration_handler,
    5e22:	4917      	ldr	r1, [pc, #92]	; (5e80 <z_timer_expiration_handler+0x84>)
    5e24:	f7ff fedc 	bl	5be0 <z_add_timeout>
			     timer->period);
	}

	/* update timer's status */
	timer->status += 1U;
    5e28:	6b23      	ldr	r3, [r4, #48]	; 0x30
    5e2a:	3301      	adds	r3, #1
    5e2c:	6323      	str	r3, [r4, #48]	; 0x30

	/* invoke timer expiry function */
	if (timer->expiry_fn != NULL) {
    5e2e:	6a23      	ldr	r3, [r4, #32]
    5e30:	b173      	cbz	r3, 5e50 <z_timer_expiration_handler+0x54>
	__asm__ volatile(
    5e32:	f385 8811 	msr	BASEPRI, r5
    5e36:	f3bf 8f6f 	isb	sy
		/* Unlock for user handler. */
		k_spin_unlock(&lock, key);
		timer->expiry_fn(timer);
    5e3a:	6a23      	ldr	r3, [r4, #32]
    5e3c:	4620      	mov	r0, r4
    5e3e:	4798      	blx	r3
	__asm__ volatile(
    5e40:	f04f 0320 	mov.w	r3, #32
    5e44:	f3ef 8511 	mrs	r5, BASEPRI
    5e48:	f383 8812 	msr	BASEPRI_MAX, r3
    5e4c:	f3bf 8f6f 	isb	sy
	return list->head == list;
    5e50:	f854 6f18 	ldr.w	r6, [r4, #24]!
	return sys_dlist_is_empty(list) ? NULL : list->head;
    5e54:	42a6      	cmp	r6, r4
    5e56:	d000      	beq.n	5e5a <z_timer_expiration_handler+0x5e>
		return;
	}

	thread = z_waitq_head(&timer->wait_q);

	if (thread == NULL) {
    5e58:	b926      	cbnz	r6, 5e64 <z_timer_expiration_handler+0x68>
	__asm__ volatile(
    5e5a:	f385 8811 	msr	BASEPRI, r5
    5e5e:	f3bf 8f6f 	isb	sy
	arch_thread_return_value_set(thread, 0);

	k_spin_unlock(&lock, key);

	z_ready_thread(thread);
}
    5e62:	bdf8      	pop	{r3, r4, r5, r6, r7, pc}
	z_unpend_thread_no_timeout(thread);
    5e64:	4630      	mov	r0, r6
    5e66:	f001 fa3a 	bl	72de <z_unpend_thread_no_timeout>
    5e6a:	2300      	movs	r3, #0
    5e6c:	67b3      	str	r3, [r6, #120]	; 0x78
    5e6e:	f385 8811 	msr	BASEPRI, r5
    5e72:	f3bf 8f6f 	isb	sy
	z_ready_thread(thread);
    5e76:	4630      	mov	r0, r6
}
    5e78:	e8bd 40f8 	ldmia.w	sp!, {r3, r4, r5, r6, r7, lr}
	z_ready_thread(thread);
    5e7c:	f001 ba5f 	b.w	733e <z_ready_thread>
    5e80:	00005dfd 	.word	0x00005dfd

00005e84 <z_impl_k_timer_start>:
}


void z_impl_k_timer_start(struct k_timer *timer, k_timeout_t duration,
			  k_timeout_t period)
{
    5e84:	e92d 4f73 	stmdb	sp!, {r0, r1, r4, r5, r6, r8, r9, sl, fp, lr}
    5e88:	4619      	mov	r1, r3
    5e8a:	4606      	mov	r6, r0
	SYS_PORT_TRACING_OBJ_FUNC(k_timer, start, timer);

	if (K_TIMEOUT_EQ(duration, K_FOREVER)) {
    5e8c:	1c4c      	adds	r4, r1, #1
{
    5e8e:	4610      	mov	r0, r2
	if (K_TIMEOUT_EQ(duration, K_FOREVER)) {
    5e90:	bf08      	it	eq
    5e92:	f1b0 3fff 	cmpeq.w	r0, #4294967295
{
    5e96:	e9dd 230a 	ldrd	r2, r3, [sp, #40]	; 0x28
    5e9a:	4680      	mov	r8, r0
    5e9c:	4689      	mov	r9, r1
	if (K_TIMEOUT_EQ(duration, K_FOREVER)) {
    5e9e:	d04c      	beq.n	5f3a <z_impl_k_timer_start+0xb6>
    5ea0:	461d      	mov	r5, r3
	 * for backwards compatibility.  This is unfortunate
	 * (i.e. k_timer_start() doesn't treat its initial sleep
	 * argument the same way k_sleep() does), but historical.  The
	 * timer_api test relies on this behavior.
	 */
	if (!K_TIMEOUT_EQ(period, K_FOREVER) && period.ticks != 0 &&
    5ea2:	1c6b      	adds	r3, r5, #1
    5ea4:	bf08      	it	eq
    5ea6:	f1b2 3fff 	cmpeq.w	r2, #4294967295
    5eaa:	4614      	mov	r4, r2
    5eac:	d019      	beq.n	5ee2 <z_impl_k_timer_start+0x5e>
    5eae:	ea54 0305 	orrs.w	r3, r4, r5
    5eb2:	d016      	beq.n	5ee2 <z_impl_k_timer_start+0x5e>
	    Z_TICK_ABS(period.ticks) < 0) {
    5eb4:	f06f 0301 	mvn.w	r3, #1
    5eb8:	ebb3 0a02 	subs.w	sl, r3, r2
    5ebc:	f04f 33ff 	mov.w	r3, #4294967295
    5ec0:	eb63 0b05 	sbc.w	fp, r3, r5
	if (!K_TIMEOUT_EQ(period, K_FOREVER) && period.ticks != 0 &&
    5ec4:	f1ba 0f00 	cmp.w	sl, #0
    5ec8:	f17b 0300 	sbcs.w	r3, fp, #0
    5ecc:	da09      	bge.n	5ee2 <z_impl_k_timer_start+0x5e>
		period.ticks = MAX(period.ticks - 1, 1);
    5ece:	f112 34ff 	adds.w	r4, r2, #4294967295
    5ed2:	f145 35ff 	adc.w	r5, r5, #4294967295
    5ed6:	2c01      	cmp	r4, #1
    5ed8:	f175 0300 	sbcs.w	r3, r5, #0
    5edc:	bfbc      	itt	lt
    5ede:	2401      	movlt	r4, #1
    5ee0:	2500      	movlt	r5, #0
	}
	if (Z_TICK_ABS(duration.ticks) < 0) {
    5ee2:	f06f 0301 	mvn.w	r3, #1
    5ee6:	1a1b      	subs	r3, r3, r0
    5ee8:	9300      	str	r3, [sp, #0]
    5eea:	f04f 33ff 	mov.w	r3, #4294967295
    5eee:	eb63 0301 	sbc.w	r3, r3, r1
    5ef2:	9301      	str	r3, [sp, #4]
    5ef4:	e9dd 2300 	ldrd	r2, r3, [sp]
    5ef8:	2a00      	cmp	r2, #0
    5efa:	f173 0300 	sbcs.w	r3, r3, #0
    5efe:	da0c      	bge.n	5f1a <z_impl_k_timer_start+0x96>
		duration.ticks = MAX(duration.ticks - 1, 0);
    5f00:	f110 38ff 	adds.w	r8, r0, #4294967295
    5f04:	f141 39ff 	adc.w	r9, r1, #4294967295
    5f08:	f1b8 0f00 	cmp.w	r8, #0
    5f0c:	f179 0300 	sbcs.w	r3, r9, #0
    5f10:	bfbc      	itt	lt
    5f12:	f04f 0800 	movlt.w	r8, #0
    5f16:	f04f 0900 	movlt.w	r9, #0
	}

	(void)z_abort_timeout(&timer->timeout);
    5f1a:	4630      	mov	r0, r6
    5f1c:	f001 faad 	bl	747a <z_abort_timeout>
	timer->period = period;
	timer->status = 0U;
    5f20:	2300      	movs	r3, #0

	z_add_timeout(&timer->timeout, z_timer_expiration_handler,
    5f22:	4907      	ldr	r1, [pc, #28]	; (5f40 <z_impl_k_timer_start+0xbc>)
	timer->status = 0U;
    5f24:	6333      	str	r3, [r6, #48]	; 0x30
	z_add_timeout(&timer->timeout, z_timer_expiration_handler,
    5f26:	4642      	mov	r2, r8
    5f28:	464b      	mov	r3, r9
    5f2a:	4630      	mov	r0, r6
	timer->period = period;
    5f2c:	e9c6 450a 	strd	r4, r5, [r6, #40]	; 0x28
		     duration);
}
    5f30:	b002      	add	sp, #8
    5f32:	e8bd 4f70 	ldmia.w	sp!, {r4, r5, r6, r8, r9, sl, fp, lr}
	z_add_timeout(&timer->timeout, z_timer_expiration_handler,
    5f36:	f7ff be53 	b.w	5be0 <z_add_timeout>
}
    5f3a:	b002      	add	sp, #8
    5f3c:	e8bd 8f70 	ldmia.w	sp!, {r4, r5, r6, r8, r9, sl, fp, pc}
    5f40:	00005dfd 	.word	0x00005dfd

00005f44 <z_data_copy>:
 * This routine copies the data section from ROM to RAM.
 *
 * @return N/A
 */
void z_data_copy(void)
{
    5f44:	b508      	push	{r3, lr}
	(void)memcpy(&__data_region_start, &__data_region_load_start,
		 __data_region_end - __data_region_start);
    5f46:	4806      	ldr	r0, [pc, #24]	; (5f60 <z_data_copy+0x1c>)
	(void)memcpy(&__data_region_start, &__data_region_load_start,
    5f48:	4a06      	ldr	r2, [pc, #24]	; (5f64 <z_data_copy+0x20>)
    5f4a:	4907      	ldr	r1, [pc, #28]	; (5f68 <z_data_copy+0x24>)
    5f4c:	1a12      	subs	r2, r2, r0
    5f4e:	f000 fdb2 	bl	6ab6 <memcpy>
#else
	(void)memcpy(&_app_smem_start, &_app_smem_rom_start,
		 _app_smem_end - _app_smem_start);
#endif /* CONFIG_STACK_CANARIES */
#endif /* CONFIG_USERSPACE */
}
    5f52:	e8bd 4008 	ldmia.w	sp!, {r3, lr}
	(void)memcpy(&__ramfunc_start, &__ramfunc_load_start,
    5f56:	4a05      	ldr	r2, [pc, #20]	; (5f6c <z_data_copy+0x28>)
    5f58:	4905      	ldr	r1, [pc, #20]	; (5f70 <z_data_copy+0x2c>)
    5f5a:	4806      	ldr	r0, [pc, #24]	; (5f74 <z_data_copy+0x30>)
    5f5c:	f000 bdab 	b.w	6ab6 <memcpy>
    5f60:	20000000 	.word	0x20000000
    5f64:	20000280 	.word	0x20000280
    5f68:	00007ddc 	.word	0x00007ddc
    5f6c:	00000000 	.word	0x00000000
    5f70:	00007ddc 	.word	0x00007ddc
    5f74:	20000000 	.word	0x20000000

00005f78 <boot_banner>:
		k_busy_wait(CONFIG_BOOT_DELAY * USEC_PER_MSEC);
	}

#if defined(CONFIG_BOOT_BANNER)
#ifdef BUILD_VERSION
	printk("*** Booting Zephyr OS build %s %s ***\n",
    5f78:	4a02      	ldr	r2, [pc, #8]	; (5f84 <boot_banner+0xc>)
    5f7a:	4903      	ldr	r1, [pc, #12]	; (5f88 <boot_banner+0x10>)
    5f7c:	4803      	ldr	r0, [pc, #12]	; (5f8c <boot_banner+0x14>)
    5f7e:	f000 bbb9 	b.w	66f4 <printk>
    5f82:	bf00      	nop
    5f84:	00007dd8 	.word	0x00007dd8
    5f88:	00007da3 	.word	0x00007da3
    5f8c:	00007db2 	.word	0x00007db2

00005f90 <statics_init>:

	SYS_PORT_TRACING_OBJ_INIT(k_heap, h);
}

static int statics_init(const struct device *unused)
{
    5f90:	b538      	push	{r3, r4, r5, lr}
	ARG_UNUSED(unused);
	STRUCT_SECTION_FOREACH(k_heap, h) {
    5f92:	4c06      	ldr	r4, [pc, #24]	; (5fac <statics_init+0x1c>)
    5f94:	4d06      	ldr	r5, [pc, #24]	; (5fb0 <statics_init+0x20>)
    5f96:	42ac      	cmp	r4, r5
    5f98:	d301      	bcc.n	5f9e <statics_init+0xe>
		{
			k_heap_init(h, h->heap.init_mem, h->heap.init_bytes);
		}
	}
	return 0;
}
    5f9a:	2000      	movs	r0, #0
    5f9c:	bd38      	pop	{r3, r4, r5, pc}
			k_heap_init(h, h->heap.init_mem, h->heap.init_bytes);
    5f9e:	e9d4 1201 	ldrd	r1, r2, [r4, #4]
    5fa2:	4620      	mov	r0, r4
    5fa4:	f001 fad0 	bl	7548 <k_heap_init>
	STRUCT_SECTION_FOREACH(k_heap, h) {
    5fa8:	3414      	adds	r4, #20
    5faa:	e7f4      	b.n	5f96 <statics_init+0x6>
    5fac:	20000230 	.word	0x20000230
    5fb0:	20000230 	.word	0x20000230

00005fb4 <nrf_cc3xx_platform_init_no_rng>:
    5fb4:	b510      	push	{r4, lr}
    5fb6:	4c0a      	ldr	r4, [pc, #40]	; (5fe0 <nrf_cc3xx_platform_init_no_rng+0x2c>)
    5fb8:	6823      	ldr	r3, [r4, #0]
    5fba:	b11b      	cbz	r3, 5fc4 <nrf_cc3xx_platform_init_no_rng+0x10>
    5fbc:	2301      	movs	r3, #1
    5fbe:	6023      	str	r3, [r4, #0]
    5fc0:	2000      	movs	r0, #0
    5fc2:	bd10      	pop	{r4, pc}
    5fc4:	f000 f8d6 	bl	6174 <CC_LibInitNoRng>
    5fc8:	2800      	cmp	r0, #0
    5fca:	d0f7      	beq.n	5fbc <nrf_cc3xx_platform_init_no_rng+0x8>
    5fcc:	3801      	subs	r0, #1
    5fce:	2806      	cmp	r0, #6
    5fd0:	d803      	bhi.n	5fda <nrf_cc3xx_platform_init_no_rng+0x26>
    5fd2:	4b04      	ldr	r3, [pc, #16]	; (5fe4 <nrf_cc3xx_platform_init_no_rng+0x30>)
    5fd4:	f853 0020 	ldr.w	r0, [r3, r0, lsl #2]
    5fd8:	bd10      	pop	{r4, pc}
    5fda:	4803      	ldr	r0, [pc, #12]	; (5fe8 <nrf_cc3xx_platform_init_no_rng+0x34>)
    5fdc:	bd10      	pop	{r4, pc}
    5fde:	bf00      	nop
    5fe0:	20000ca8 	.word	0x20000ca8
    5fe4:	000079e8 	.word	0x000079e8
    5fe8:	ffff8ffe 	.word	0xffff8ffe

00005fec <nrf_cc3xx_platform_abort>:
    5fec:	f3bf 8f4f 	dsb	sy
    5ff0:	4905      	ldr	r1, [pc, #20]	; (6008 <nrf_cc3xx_platform_abort+0x1c>)
    5ff2:	4b06      	ldr	r3, [pc, #24]	; (600c <nrf_cc3xx_platform_abort+0x20>)
    5ff4:	68ca      	ldr	r2, [r1, #12]
    5ff6:	f402 62e0 	and.w	r2, r2, #1792	; 0x700
    5ffa:	4313      	orrs	r3, r2
    5ffc:	60cb      	str	r3, [r1, #12]
    5ffe:	f3bf 8f4f 	dsb	sy
    6002:	bf00      	nop
    6004:	e7fd      	b.n	6002 <nrf_cc3xx_platform_abort+0x16>
    6006:	bf00      	nop
    6008:	e000ed00 	.word	0xe000ed00
    600c:	05fa0004 	.word	0x05fa0004

00006010 <CC_PalAbort>:
    6010:	b4f0      	push	{r4, r5, r6, r7}
    6012:	4f09      	ldr	r7, [pc, #36]	; (6038 <CC_PalAbort+0x28>)
    6014:	4e09      	ldr	r6, [pc, #36]	; (603c <CC_PalAbort+0x2c>)
    6016:	4c0a      	ldr	r4, [pc, #40]	; (6040 <CC_PalAbort+0x30>)
    6018:	4a0a      	ldr	r2, [pc, #40]	; (6044 <CC_PalAbort+0x34>)
    601a:	4d0b      	ldr	r5, [pc, #44]	; (6048 <CC_PalAbort+0x38>)
    601c:	490b      	ldr	r1, [pc, #44]	; (604c <CC_PalAbort+0x3c>)
    601e:	f04f 33fe 	mov.w	r3, #4278124286	; 0xfefefefe
    6022:	603b      	str	r3, [r7, #0]
    6024:	6852      	ldr	r2, [r2, #4]
    6026:	6033      	str	r3, [r6, #0]
    6028:	6023      	str	r3, [r4, #0]
    602a:	2400      	movs	r4, #0
    602c:	602b      	str	r3, [r5, #0]
    602e:	f8c1 4500 	str.w	r4, [r1, #1280]	; 0x500
    6032:	bcf0      	pop	{r4, r5, r6, r7}
    6034:	4710      	bx	r2
    6036:	bf00      	nop
    6038:	5002b400 	.word	0x5002b400
    603c:	5002b404 	.word	0x5002b404
    6040:	5002b408 	.word	0x5002b408
    6044:	200001b4 	.word	0x200001b4
    6048:	5002b40c 	.word	0x5002b40c
    604c:	5002a000 	.word	0x5002a000

00006050 <nrf_cc3xx_platform_set_abort>:
    6050:	e9d0 1200 	ldrd	r1, r2, [r0]
    6054:	4b01      	ldr	r3, [pc, #4]	; (605c <nrf_cc3xx_platform_set_abort+0xc>)
    6056:	e9c3 1200 	strd	r1, r2, [r3]
    605a:	4770      	bx	lr
    605c:	200001b4 	.word	0x200001b4

00006060 <mutex_free>:
    6060:	b510      	push	{r4, lr}
    6062:	4604      	mov	r4, r0
    6064:	b130      	cbz	r0, 6074 <mutex_free+0x14>
    6066:	6863      	ldr	r3, [r4, #4]
    6068:	06db      	lsls	r3, r3, #27
    606a:	d502      	bpl.n	6072 <mutex_free+0x12>
    606c:	2300      	movs	r3, #0
    606e:	6023      	str	r3, [r4, #0]
    6070:	6063      	str	r3, [r4, #4]
    6072:	bd10      	pop	{r4, pc}
    6074:	4b02      	ldr	r3, [pc, #8]	; (6080 <mutex_free+0x20>)
    6076:	4803      	ldr	r0, [pc, #12]	; (6084 <mutex_free+0x24>)
    6078:	685b      	ldr	r3, [r3, #4]
    607a:	4798      	blx	r3
    607c:	e7f3      	b.n	6066 <mutex_free+0x6>
    607e:	bf00      	nop
    6080:	200001b4 	.word	0x200001b4
    6084:	00007a04 	.word	0x00007a04

00006088 <mutex_unlock>:
    6088:	b168      	cbz	r0, 60a6 <mutex_unlock+0x1e>
    608a:	6843      	ldr	r3, [r0, #4]
    608c:	b13b      	cbz	r3, 609e <mutex_unlock+0x16>
    608e:	06db      	lsls	r3, r3, #27
    6090:	d507      	bpl.n	60a2 <mutex_unlock+0x1a>
    6092:	f3bf 8f5f 	dmb	sy
    6096:	2300      	movs	r3, #0
    6098:	6003      	str	r3, [r0, #0]
    609a:	4618      	mov	r0, r3
    609c:	4770      	bx	lr
    609e:	4803      	ldr	r0, [pc, #12]	; (60ac <mutex_unlock+0x24>)
    60a0:	4770      	bx	lr
    60a2:	4803      	ldr	r0, [pc, #12]	; (60b0 <mutex_unlock+0x28>)
    60a4:	4770      	bx	lr
    60a6:	f46f 40e0 	mvn.w	r0, #28672	; 0x7000
    60aa:	4770      	bx	lr
    60ac:	ffff8fea 	.word	0xffff8fea
    60b0:	ffff8fe9 	.word	0xffff8fe9

000060b4 <mutex_init>:
    60b4:	b510      	push	{r4, lr}
    60b6:	4604      	mov	r4, r0
    60b8:	b120      	cbz	r0, 60c4 <mutex_init+0x10>
    60ba:	2200      	movs	r2, #0
    60bc:	2311      	movs	r3, #17
    60be:	6022      	str	r2, [r4, #0]
    60c0:	6063      	str	r3, [r4, #4]
    60c2:	bd10      	pop	{r4, pc}
    60c4:	4801      	ldr	r0, [pc, #4]	; (60cc <mutex_init+0x18>)
    60c6:	f7ff ffa3 	bl	6010 <CC_PalAbort>
    60ca:	e7f6      	b.n	60ba <mutex_init+0x6>
    60cc:	00007a2c 	.word	0x00007a2c

000060d0 <mutex_lock>:
    60d0:	b1c0      	cbz	r0, 6104 <mutex_lock+0x34>
    60d2:	6843      	ldr	r3, [r0, #4]
    60d4:	b1a3      	cbz	r3, 6100 <mutex_lock+0x30>
    60d6:	06db      	lsls	r3, r3, #27
    60d8:	d510      	bpl.n	60fc <mutex_lock+0x2c>
    60da:	2201      	movs	r2, #1
    60dc:	f3bf 8f5b 	dmb	ish
    60e0:	e850 3f00 	ldrex	r3, [r0]
    60e4:	e840 2100 	strex	r1, r2, [r0]
    60e8:	2900      	cmp	r1, #0
    60ea:	d1f9      	bne.n	60e0 <mutex_lock+0x10>
    60ec:	f3bf 8f5b 	dmb	ish
    60f0:	2b01      	cmp	r3, #1
    60f2:	d0f3      	beq.n	60dc <mutex_lock+0xc>
    60f4:	f3bf 8f5f 	dmb	sy
    60f8:	2000      	movs	r0, #0
    60fa:	4770      	bx	lr
    60fc:	4803      	ldr	r0, [pc, #12]	; (610c <mutex_lock+0x3c>)
    60fe:	4770      	bx	lr
    6100:	4803      	ldr	r0, [pc, #12]	; (6110 <mutex_lock+0x40>)
    6102:	4770      	bx	lr
    6104:	f46f 40e0 	mvn.w	r0, #28672	; 0x7000
    6108:	4770      	bx	lr
    610a:	bf00      	nop
    610c:	ffff8fe9 	.word	0xffff8fe9
    6110:	ffff8fea 	.word	0xffff8fea

00006114 <nrf_cc3xx_platform_set_mutexes>:
    6114:	b570      	push	{r4, r5, r6, lr}
    6116:	e9d0 2300 	ldrd	r2, r3, [r0]
    611a:	4c13      	ldr	r4, [pc, #76]	; (6168 <nrf_cc3xx_platform_set_mutexes+0x54>)
    611c:	4d13      	ldr	r5, [pc, #76]	; (616c <nrf_cc3xx_platform_set_mutexes+0x58>)
    611e:	e9c4 2300 	strd	r2, r3, [r4]
    6122:	e9d0 6302 	ldrd	r6, r3, [r0, #8]
    6126:	e9c4 6302 	strd	r6, r3, [r4, #8]
    612a:	4b11      	ldr	r3, [pc, #68]	; (6170 <nrf_cc3xx_platform_set_mutexes+0x5c>)
    612c:	6808      	ldr	r0, [r1, #0]
    612e:	6018      	str	r0, [r3, #0]
    6130:	6848      	ldr	r0, [r1, #4]
    6132:	6058      	str	r0, [r3, #4]
    6134:	6888      	ldr	r0, [r1, #8]
    6136:	6098      	str	r0, [r3, #8]
    6138:	e9d1 6003 	ldrd	r6, r0, [r1, #12]
    613c:	f8d5 1114 	ldr.w	r1, [r5, #276]	; 0x114
    6140:	60de      	str	r6, [r3, #12]
    6142:	6118      	str	r0, [r3, #16]
    6144:	06cb      	lsls	r3, r1, #27
    6146:	d50d      	bpl.n	6164 <nrf_cc3xx_platform_set_mutexes+0x50>
    6148:	2300      	movs	r3, #0
    614a:	e9c5 3344 	strd	r3, r3, [r5, #272]	; 0x110
    614e:	e9c5 336d 	strd	r3, r3, [r5, #436]	; 0x1b4
    6152:	f505 7088 	add.w	r0, r5, #272	; 0x110
    6156:	4790      	blx	r2
    6158:	6823      	ldr	r3, [r4, #0]
    615a:	f505 70da 	add.w	r0, r5, #436	; 0x1b4
    615e:	e8bd 4070 	ldmia.w	sp!, {r4, r5, r6, lr}
    6162:	4718      	bx	r3
    6164:	bd70      	pop	{r4, r5, r6, pc}
    6166:	bf00      	nop
    6168:	200001c4 	.word	0x200001c4
    616c:	20000f48 	.word	0x20000f48
    6170:	200001d4 	.word	0x200001d4

00006174 <CC_LibInitNoRng>:
    6174:	b510      	push	{r4, lr}
    6176:	f000 f833 	bl	61e0 <CC_HalInit>
    617a:	b120      	cbz	r0, 6186 <CC_LibInitNoRng+0x12>
    617c:	2403      	movs	r4, #3
    617e:	f000 f867 	bl	6250 <CC_PalTerminate>
    6182:	4620      	mov	r0, r4
    6184:	bd10      	pop	{r4, pc}
    6186:	f000 f835 	bl	61f4 <CC_PalInit>
    618a:	b990      	cbnz	r0, 61b2 <CC_LibInitNoRng+0x3e>
    618c:	f000 f8b0 	bl	62f0 <CC_PalPowerSaveModeSelect>
    6190:	b990      	cbnz	r0, 61b8 <CC_LibInitNoRng+0x44>
    6192:	4b0f      	ldr	r3, [pc, #60]	; (61d0 <CC_LibInitNoRng+0x5c>)
    6194:	681b      	ldr	r3, [r3, #0]
    6196:	0e1b      	lsrs	r3, r3, #24
    6198:	2bf0      	cmp	r3, #240	; 0xf0
    619a:	d108      	bne.n	61ae <CC_LibInitNoRng+0x3a>
    619c:	4a0d      	ldr	r2, [pc, #52]	; (61d4 <CC_LibInitNoRng+0x60>)
    619e:	4b0e      	ldr	r3, [pc, #56]	; (61d8 <CC_LibInitNoRng+0x64>)
    61a0:	6812      	ldr	r2, [r2, #0]
    61a2:	429a      	cmp	r2, r3
    61a4:	d00a      	beq.n	61bc <CC_LibInitNoRng+0x48>
    61a6:	2407      	movs	r4, #7
    61a8:	f000 f81c 	bl	61e4 <CC_HalTerminate>
    61ac:	e7e7      	b.n	617e <CC_LibInitNoRng+0xa>
    61ae:	2406      	movs	r4, #6
    61b0:	e7fa      	b.n	61a8 <CC_LibInitNoRng+0x34>
    61b2:	2404      	movs	r4, #4
    61b4:	4620      	mov	r0, r4
    61b6:	bd10      	pop	{r4, pc}
    61b8:	2400      	movs	r4, #0
    61ba:	e7f5      	b.n	61a8 <CC_LibInitNoRng+0x34>
    61bc:	2001      	movs	r0, #1
    61be:	f000 f897 	bl	62f0 <CC_PalPowerSaveModeSelect>
    61c2:	4604      	mov	r4, r0
    61c4:	2800      	cmp	r0, #0
    61c6:	d1f7      	bne.n	61b8 <CC_LibInitNoRng+0x44>
    61c8:	4b04      	ldr	r3, [pc, #16]	; (61dc <CC_LibInitNoRng+0x68>)
    61ca:	6018      	str	r0, [r3, #0]
    61cc:	e7d9      	b.n	6182 <CC_LibInitNoRng+0xe>
    61ce:	bf00      	nop
    61d0:	5002b928 	.word	0x5002b928
    61d4:	5002ba24 	.word	0x5002ba24
    61d8:	20e00000 	.word	0x20e00000
    61dc:	5002ba0c 	.word	0x5002ba0c

000061e0 <CC_HalInit>:
    61e0:	2000      	movs	r0, #0
    61e2:	4770      	bx	lr

000061e4 <CC_HalTerminate>:
    61e4:	2000      	movs	r0, #0
    61e6:	4770      	bx	lr

000061e8 <CC_HalMaskInterrupt>:
    61e8:	4b01      	ldr	r3, [pc, #4]	; (61f0 <CC_HalMaskInterrupt+0x8>)
    61ea:	6018      	str	r0, [r3, #0]
    61ec:	4770      	bx	lr
    61ee:	bf00      	nop
    61f0:	5002ba04 	.word	0x5002ba04

000061f4 <CC_PalInit>:
    61f4:	b510      	push	{r4, lr}
    61f6:	4811      	ldr	r0, [pc, #68]	; (623c <CC_PalInit+0x48>)
    61f8:	f000 f848 	bl	628c <CC_PalMutexCreate>
    61fc:	b100      	cbz	r0, 6200 <CC_PalInit+0xc>
    61fe:	bd10      	pop	{r4, pc}
    6200:	480f      	ldr	r0, [pc, #60]	; (6240 <CC_PalInit+0x4c>)
    6202:	f000 f843 	bl	628c <CC_PalMutexCreate>
    6206:	2800      	cmp	r0, #0
    6208:	d1f9      	bne.n	61fe <CC_PalInit+0xa>
    620a:	4c0e      	ldr	r4, [pc, #56]	; (6244 <CC_PalInit+0x50>)
    620c:	4620      	mov	r0, r4
    620e:	f000 f83d 	bl	628c <CC_PalMutexCreate>
    6212:	2800      	cmp	r0, #0
    6214:	d1f3      	bne.n	61fe <CC_PalInit+0xa>
    6216:	4b0c      	ldr	r3, [pc, #48]	; (6248 <CC_PalInit+0x54>)
    6218:	480c      	ldr	r0, [pc, #48]	; (624c <CC_PalInit+0x58>)
    621a:	601c      	str	r4, [r3, #0]
    621c:	f000 f836 	bl	628c <CC_PalMutexCreate>
    6220:	4601      	mov	r1, r0
    6222:	2800      	cmp	r0, #0
    6224:	d1eb      	bne.n	61fe <CC_PalInit+0xa>
    6226:	f000 f82d 	bl	6284 <CC_PalDmaInit>
    622a:	4604      	mov	r4, r0
    622c:	b108      	cbz	r0, 6232 <CC_PalInit+0x3e>
    622e:	4620      	mov	r0, r4
    6230:	bd10      	pop	{r4, pc}
    6232:	f000 f83f 	bl	62b4 <CC_PalPowerSaveModeInit>
    6236:	4620      	mov	r0, r4
    6238:	e7fa      	b.n	6230 <CC_PalInit+0x3c>
    623a:	bf00      	nop
    623c:	2000020c 	.word	0x2000020c
    6240:	20000200 	.word	0x20000200
    6244:	20000208 	.word	0x20000208
    6248:	20000210 	.word	0x20000210
    624c:	20000204 	.word	0x20000204

00006250 <CC_PalTerminate>:
    6250:	b508      	push	{r3, lr}
    6252:	4808      	ldr	r0, [pc, #32]	; (6274 <CC_PalTerminate+0x24>)
    6254:	f000 f824 	bl	62a0 <CC_PalMutexDestroy>
    6258:	4807      	ldr	r0, [pc, #28]	; (6278 <CC_PalTerminate+0x28>)
    625a:	f000 f821 	bl	62a0 <CC_PalMutexDestroy>
    625e:	4807      	ldr	r0, [pc, #28]	; (627c <CC_PalTerminate+0x2c>)
    6260:	f000 f81e 	bl	62a0 <CC_PalMutexDestroy>
    6264:	4806      	ldr	r0, [pc, #24]	; (6280 <CC_PalTerminate+0x30>)
    6266:	f000 f81b 	bl	62a0 <CC_PalMutexDestroy>
    626a:	e8bd 4008 	ldmia.w	sp!, {r3, lr}
    626e:	f000 b80b 	b.w	6288 <CC_PalDmaTerminate>
    6272:	bf00      	nop
    6274:	2000020c 	.word	0x2000020c
    6278:	20000200 	.word	0x20000200
    627c:	20000208 	.word	0x20000208
    6280:	20000204 	.word	0x20000204

00006284 <CC_PalDmaInit>:
    6284:	2000      	movs	r0, #0
    6286:	4770      	bx	lr

00006288 <CC_PalDmaTerminate>:
    6288:	4770      	bx	lr
    628a:	bf00      	nop

0000628c <CC_PalMutexCreate>:
    628c:	b508      	push	{r3, lr}
    628e:	4b03      	ldr	r3, [pc, #12]	; (629c <CC_PalMutexCreate+0x10>)
    6290:	6802      	ldr	r2, [r0, #0]
    6292:	681b      	ldr	r3, [r3, #0]
    6294:	6810      	ldr	r0, [r2, #0]
    6296:	4798      	blx	r3
    6298:	2000      	movs	r0, #0
    629a:	bd08      	pop	{r3, pc}
    629c:	200001c4 	.word	0x200001c4

000062a0 <CC_PalMutexDestroy>:
    62a0:	b508      	push	{r3, lr}
    62a2:	4b03      	ldr	r3, [pc, #12]	; (62b0 <CC_PalMutexDestroy+0x10>)
    62a4:	6802      	ldr	r2, [r0, #0]
    62a6:	685b      	ldr	r3, [r3, #4]
    62a8:	6810      	ldr	r0, [r2, #0]
    62aa:	4798      	blx	r3
    62ac:	2000      	movs	r0, #0
    62ae:	bd08      	pop	{r3, pc}
    62b0:	200001c4 	.word	0x200001c4

000062b4 <CC_PalPowerSaveModeInit>:
    62b4:	b570      	push	{r4, r5, r6, lr}
    62b6:	4c09      	ldr	r4, [pc, #36]	; (62dc <CC_PalPowerSaveModeInit+0x28>)
    62b8:	4d09      	ldr	r5, [pc, #36]	; (62e0 <CC_PalPowerSaveModeInit+0x2c>)
    62ba:	6920      	ldr	r0, [r4, #16]
    62bc:	68ab      	ldr	r3, [r5, #8]
    62be:	4798      	blx	r3
    62c0:	b118      	cbz	r0, 62ca <CC_PalPowerSaveModeInit+0x16>
    62c2:	4b08      	ldr	r3, [pc, #32]	; (62e4 <CC_PalPowerSaveModeInit+0x30>)
    62c4:	4808      	ldr	r0, [pc, #32]	; (62e8 <CC_PalPowerSaveModeInit+0x34>)
    62c6:	685b      	ldr	r3, [r3, #4]
    62c8:	4798      	blx	r3
    62ca:	4a08      	ldr	r2, [pc, #32]	; (62ec <CC_PalPowerSaveModeInit+0x38>)
    62cc:	68eb      	ldr	r3, [r5, #12]
    62ce:	6920      	ldr	r0, [r4, #16]
    62d0:	2100      	movs	r1, #0
    62d2:	6011      	str	r1, [r2, #0]
    62d4:	e8bd 4070 	ldmia.w	sp!, {r4, r5, r6, lr}
    62d8:	4718      	bx	r3
    62da:	bf00      	nop
    62dc:	200001d4 	.word	0x200001d4
    62e0:	200001c4 	.word	0x200001c4
    62e4:	200001b4 	.word	0x200001b4
    62e8:	00007a50 	.word	0x00007a50
    62ec:	20000cbc 	.word	0x20000cbc

000062f0 <CC_PalPowerSaveModeSelect>:
    62f0:	b570      	push	{r4, r5, r6, lr}
    62f2:	4d1a      	ldr	r5, [pc, #104]	; (635c <CC_PalPowerSaveModeSelect+0x6c>)
    62f4:	4e1a      	ldr	r6, [pc, #104]	; (6360 <CC_PalPowerSaveModeSelect+0x70>)
    62f6:	4604      	mov	r4, r0
    62f8:	68b2      	ldr	r2, [r6, #8]
    62fa:	6928      	ldr	r0, [r5, #16]
    62fc:	4790      	blx	r2
    62fe:	b9f0      	cbnz	r0, 633e <CC_PalPowerSaveModeSelect+0x4e>
    6300:	b15c      	cbz	r4, 631a <CC_PalPowerSaveModeSelect+0x2a>
    6302:	4c18      	ldr	r4, [pc, #96]	; (6364 <CC_PalPowerSaveModeSelect+0x74>)
    6304:	6823      	ldr	r3, [r4, #0]
    6306:	b1ab      	cbz	r3, 6334 <CC_PalPowerSaveModeSelect+0x44>
    6308:	2b01      	cmp	r3, #1
    630a:	d01a      	beq.n	6342 <CC_PalPowerSaveModeSelect+0x52>
    630c:	3b01      	subs	r3, #1
    630e:	6023      	str	r3, [r4, #0]
    6310:	6928      	ldr	r0, [r5, #16]
    6312:	68f3      	ldr	r3, [r6, #12]
    6314:	4798      	blx	r3
    6316:	2000      	movs	r0, #0
    6318:	bd70      	pop	{r4, r5, r6, pc}
    631a:	4c12      	ldr	r4, [pc, #72]	; (6364 <CC_PalPowerSaveModeSelect+0x74>)
    631c:	6821      	ldr	r1, [r4, #0]
    631e:	b939      	cbnz	r1, 6330 <CC_PalPowerSaveModeSelect+0x40>
    6320:	4b11      	ldr	r3, [pc, #68]	; (6368 <CC_PalPowerSaveModeSelect+0x78>)
    6322:	4a12      	ldr	r2, [pc, #72]	; (636c <CC_PalPowerSaveModeSelect+0x7c>)
    6324:	2001      	movs	r0, #1
    6326:	f8c3 0500 	str.w	r0, [r3, #1280]	; 0x500
    632a:	6813      	ldr	r3, [r2, #0]
    632c:	2b00      	cmp	r3, #0
    632e:	d1fc      	bne.n	632a <CC_PalPowerSaveModeSelect+0x3a>
    6330:	3101      	adds	r1, #1
    6332:	6021      	str	r1, [r4, #0]
    6334:	68f3      	ldr	r3, [r6, #12]
    6336:	6928      	ldr	r0, [r5, #16]
    6338:	4798      	blx	r3
    633a:	2000      	movs	r0, #0
    633c:	bd70      	pop	{r4, r5, r6, pc}
    633e:	480c      	ldr	r0, [pc, #48]	; (6370 <CC_PalPowerSaveModeSelect+0x80>)
    6340:	bd70      	pop	{r4, r5, r6, pc}
    6342:	4a0a      	ldr	r2, [pc, #40]	; (636c <CC_PalPowerSaveModeSelect+0x7c>)
    6344:	6813      	ldr	r3, [r2, #0]
    6346:	2b00      	cmp	r3, #0
    6348:	d1fc      	bne.n	6344 <CC_PalPowerSaveModeSelect+0x54>
    634a:	4a07      	ldr	r2, [pc, #28]	; (6368 <CC_PalPowerSaveModeSelect+0x78>)
    634c:	f06f 407e 	mvn.w	r0, #4261412864	; 0xfe000000
    6350:	f8c2 3500 	str.w	r3, [r2, #1280]	; 0x500
    6354:	f7ff ff48 	bl	61e8 <CC_HalMaskInterrupt>
    6358:	6823      	ldr	r3, [r4, #0]
    635a:	e7d7      	b.n	630c <CC_PalPowerSaveModeSelect+0x1c>
    635c:	200001d4 	.word	0x200001d4
    6360:	200001c4 	.word	0x200001c4
    6364:	20000cbc 	.word	0x20000cbc
    6368:	5002a000 	.word	0x5002a000
    636c:	5002b910 	.word	0x5002b910
    6370:	ffff8fe9 	.word	0xffff8fe9

00006374 <z_impl_gpio_pin_configure>:
{
    6374:	b4f0      	push	{r4, r5, r6, r7}
	if (((flags & GPIO_OUTPUT_INIT_LOGICAL) != 0)
    6376:	04d4      	lsls	r4, r2, #19
	const struct gpio_driver_api *api =
    6378:	6887      	ldr	r7, [r0, #8]
	struct gpio_driver_data *data =
    637a:	6906      	ldr	r6, [r0, #16]
{
    637c:	4613      	mov	r3, r2
	if (((flags & GPIO_OUTPUT_INIT_LOGICAL) != 0)
    637e:	d506      	bpl.n	638e <z_impl_gpio_pin_configure+0x1a>
	    && ((flags & (GPIO_OUTPUT_INIT_LOW | GPIO_OUTPUT_INIT_HIGH)) != 0)
    6380:	f412 6f40 	tst.w	r2, #3072	; 0xc00
    6384:	d003      	beq.n	638e <z_impl_gpio_pin_configure+0x1a>
	    && ((flags & GPIO_ACTIVE_LOW) != 0)) {
    6386:	07da      	lsls	r2, r3, #31
		flags ^= GPIO_OUTPUT_INIT_LOW | GPIO_OUTPUT_INIT_HIGH;
    6388:	bf48      	it	mi
    638a:	f483 6340 	eormi.w	r3, r3, #3072	; 0xc00
	flags &= ~GPIO_OUTPUT_INIT_LOGICAL;
    638e:	6834      	ldr	r4, [r6, #0]
    6390:	2501      	movs	r5, #1
    6392:	408d      	lsls	r5, r1
    6394:	f423 5280 	bic.w	r2, r3, #4096	; 0x1000
	if ((flags & GPIO_ACTIVE_LOW) != 0) {
    6398:	07db      	lsls	r3, r3, #31
		data->invert |= (gpio_port_pins_t)BIT(pin);
    639a:	bf4c      	ite	mi
    639c:	432c      	orrmi	r4, r5
		data->invert &= ~(gpio_port_pins_t)BIT(pin);
    639e:	43ac      	bicpl	r4, r5
	return api->pin_configure(port, pin, flags);
    63a0:	683b      	ldr	r3, [r7, #0]
    63a2:	6034      	str	r4, [r6, #0]
}
    63a4:	bcf0      	pop	{r4, r5, r6, r7}
	return api->pin_configure(port, pin, flags);
    63a6:	4718      	bx	r3

000063a8 <z_impl_gpio_pin_interrupt_configure.constprop.0>:
static inline int z_impl_gpio_pin_interrupt_configure(const struct device *port,
    63a8:	b410      	push	{r4}
	    ((data->invert & (gpio_port_pins_t)BIT(pin)) != 0)) {
    63aa:	6904      	ldr	r4, [r0, #16]
	const struct gpio_driver_api *api =
    63ac:	6882      	ldr	r2, [r0, #8]
	    ((data->invert & (gpio_port_pins_t)BIT(pin)) != 0)) {
    63ae:	6824      	ldr	r4, [r4, #0]
    63b0:	2301      	movs	r3, #1
    63b2:	408b      	lsls	r3, r1
	if (((flags & GPIO_INT_LEVELS_LOGICAL) != 0) &&
    63b4:	4223      	tst	r3, r4
	return api->pin_interrupt_configure(port, pin, mode, trig);
    63b6:	6994      	ldr	r4, [r2, #24]
    63b8:	bf18      	it	ne
    63ba:	f44f 3300 	movne.w	r3, #131072	; 0x20000
    63be:	46a4      	mov	ip, r4
    63c0:	bf08      	it	eq
    63c2:	f44f 2380 	moveq.w	r3, #262144	; 0x40000
}
    63c6:	bc10      	pop	{r4}
	return api->pin_interrupt_configure(port, pin, mode, trig);
    63c8:	f44f 32a0 	mov.w	r2, #81920	; 0x14000
    63cc:	4760      	bx	ip

000063ce <encode_uint>:
{
    63ce:	e92d 4ff7 	stmdb	sp!, {r0, r1, r2, r4, r5, r6, r7, r8, r9, sl, fp, lr}
    63d2:	4699      	mov	r9, r3
	bool upcase = isupper((int)conv->specifier);
    63d4:	78d3      	ldrb	r3, [r2, #3]
{
    63d6:	4614      	mov	r4, r2
	switch (specifier) {
    63d8:	2b6f      	cmp	r3, #111	; 0x6f
	return (int)(((unsigned)(a)-(unsigned)'A') < 26U);
    63da:	f1a3 0241 	sub.w	r2, r3, #65	; 0x41
{
    63de:	4606      	mov	r6, r0
    63e0:	460f      	mov	r7, r1
    63e2:	9201      	str	r2, [sp, #4]
	switch (specifier) {
    63e4:	d02d      	beq.n	6442 <encode_uint+0x74>
    63e6:	d828      	bhi.n	643a <encode_uint+0x6c>
		return 16;
    63e8:	2b58      	cmp	r3, #88	; 0x58
    63ea:	bf14      	ite	ne
    63ec:	250a      	movne	r5, #10
    63ee:	2510      	moveq	r5, #16
	char *bp = bps + (bpe - bps);
    63f0:	f8dd 8030 	ldr.w	r8, [sp, #48]	; 0x30
		unsigned int lsv = (unsigned int)(value % radix);
    63f4:	46aa      	mov	sl, r5
    63f6:	f04f 0b00 	mov.w	fp, #0
    63fa:	4652      	mov	r2, sl
    63fc:	465b      	mov	r3, fp
    63fe:	4630      	mov	r0, r6
    6400:	4639      	mov	r1, r7
    6402:	f7fa fc55 	bl	cb0 <__aeabi_uldivmod>
		*--bp = (lsv <= 9) ? ('0' + lsv)
    6406:	2a09      	cmp	r2, #9
    6408:	b2d3      	uxtb	r3, r2
    640a:	d81f      	bhi.n	644c <encode_uint+0x7e>
    640c:	3330      	adds	r3, #48	; 0x30
	} while ((value != 0) && (bps < bp));
    640e:	455f      	cmp	r7, fp
		*--bp = (lsv <= 9) ? ('0' + lsv)
    6410:	b2db      	uxtb	r3, r3
	} while ((value != 0) && (bps < bp));
    6412:	bf08      	it	eq
    6414:	4556      	cmpeq	r6, sl
		*--bp = (lsv <= 9) ? ('0' + lsv)
    6416:	f808 3d01 	strb.w	r3, [r8, #-1]!
	} while ((value != 0) && (bps < bp));
    641a:	d301      	bcc.n	6420 <encode_uint+0x52>
    641c:	45c8      	cmp	r8, r9
    641e:	d812      	bhi.n	6446 <encode_uint+0x78>
	if (conv->flag_hash) {
    6420:	7823      	ldrb	r3, [r4, #0]
    6422:	069b      	lsls	r3, r3, #26
    6424:	d505      	bpl.n	6432 <encode_uint+0x64>
		if (radix == 8) {
    6426:	2d08      	cmp	r5, #8
    6428:	d116      	bne.n	6458 <encode_uint+0x8a>
			conv->altform_0 = true;
    642a:	78a3      	ldrb	r3, [r4, #2]
    642c:	f043 0308 	orr.w	r3, r3, #8
			conv->altform_0c = true;
    6430:	70a3      	strb	r3, [r4, #2]
}
    6432:	4640      	mov	r0, r8
    6434:	b003      	add	sp, #12
    6436:	e8bd 8ff0 	ldmia.w	sp!, {r4, r5, r6, r7, r8, r9, sl, fp, pc}
	switch (specifier) {
    643a:	f003 03f7 	and.w	r3, r3, #247	; 0xf7
		return 16;
    643e:	2b70      	cmp	r3, #112	; 0x70
    6440:	e7d3      	b.n	63ea <encode_uint+0x1c>
	switch (specifier) {
    6442:	2508      	movs	r5, #8
    6444:	e7d4      	b.n	63f0 <encode_uint+0x22>
		value /= radix;
    6446:	4606      	mov	r6, r0
    6448:	460f      	mov	r7, r1
    644a:	e7d6      	b.n	63fa <encode_uint+0x2c>
		*--bp = (lsv <= 9) ? ('0' + lsv)
    644c:	9a01      	ldr	r2, [sp, #4]
    644e:	2a19      	cmp	r2, #25
    6450:	bf94      	ite	ls
    6452:	3337      	addls	r3, #55	; 0x37
    6454:	3357      	addhi	r3, #87	; 0x57
    6456:	e7da      	b.n	640e <encode_uint+0x40>
		} else if (radix == 16) {
    6458:	2d10      	cmp	r5, #16
    645a:	d1ea      	bne.n	6432 <encode_uint+0x64>
			conv->altform_0c = true;
    645c:	78a3      	ldrb	r3, [r4, #2]
    645e:	f043 0310 	orr.w	r3, r3, #16
    6462:	e7e5      	b.n	6430 <encode_uint+0x62>

00006464 <outs>:
{
    6464:	e92d 41f0 	stmdb	sp!, {r4, r5, r6, r7, r8, lr}
    6468:	4607      	mov	r7, r0
    646a:	4688      	mov	r8, r1
    646c:	4615      	mov	r5, r2
    646e:	461e      	mov	r6, r3
	while ((sp < ep) || ((ep == NULL) && *sp)) {
    6470:	4614      	mov	r4, r2
    6472:	42b4      	cmp	r4, r6
    6474:	eba4 0005 	sub.w	r0, r4, r5
    6478:	d302      	bcc.n	6480 <outs+0x1c>
    647a:	b93e      	cbnz	r6, 648c <outs+0x28>
    647c:	7823      	ldrb	r3, [r4, #0]
    647e:	b12b      	cbz	r3, 648c <outs+0x28>
		int rc = out((int)*sp++, ctx);
    6480:	f814 0b01 	ldrb.w	r0, [r4], #1
    6484:	4641      	mov	r1, r8
    6486:	47b8      	blx	r7
		if (rc < 0) {
    6488:	2800      	cmp	r0, #0
    648a:	daf2      	bge.n	6472 <outs+0xe>
}
    648c:	e8bd 81f0 	ldmia.w	sp!, {r4, r5, r6, r7, r8, pc}

00006490 <_ConfigAbsSyms>:
GEN_ABSOLUTE_SYM_KCONFIG(CONFIG_OUTPUT_DISASSEMBLY, 1);
GEN_ABSOLUTE_SYM_KCONFIG(CONFIG_OUTPUT_PRINT_MEMORY_USAGE, 1);
GEN_ABSOLUTE_SYM_KCONFIG(CONFIG_BUILD_OUTPUT_BIN, 1);
GEN_ABSOLUTE_SYM_KCONFIG(CONFIG_COMPAT_INCLUDES, 1);

GEN_ABS_SYM_END
    6490:	4770      	bx	lr

00006492 <chunk_size>:
	void *cmem = &buf[c];

	if (big_heap(h)) {
		return ((uint32_t *)cmem)[f];
	} else {
		return ((uint16_t *)cmem)[f];
    6492:	eb00 00c1 	add.w	r0, r0, r1, lsl #3
    6496:	8840      	ldrh	r0, [r0, #2]
}

static inline chunksz_t chunk_size(struct z_heap *h, chunkid_t c)
{
	return chunk_field(h, c, SIZE_AND_USED) >> 1;
}
    6498:	0840      	lsrs	r0, r0, #1
    649a:	4770      	bx	lr

0000649c <free_list_add>:
	h->free_bytes += chunksz_to_bytes(h, chunk_size(h, c));
#endif
}

static void free_list_add(struct z_heap *h, chunkid_t c)
{
    649c:	b5f8      	push	{r3, r4, r5, r6, r7, lr}
    649e:	4603      	mov	r3, r0
    64a0:	460c      	mov	r4, r1
	if (!solo_free_header(h, c)) {
		int bidx = bucket_idx(h, chunk_size(h, c));
    64a2:	f7ff fff6 	bl	6492 <chunk_size>
}

static inline int bucket_idx(struct z_heap *h, chunksz_t sz)
{
	unsigned int usable_sz = sz - min_chunk_size(h) + 1;
	return 31 - __builtin_clz(usable_sz);
    64a6:	fab0 f080 	clz	r0, r0
    64aa:	f1c0 001f 	rsb	r0, r0, #31
	if (b->next == 0U) {
    64ae:	eb03 0c80 	add.w	ip, r3, r0, lsl #2
    64b2:	00ca      	lsls	r2, r1, #3
    64b4:	f8dc 6010 	ldr.w	r6, [ip, #16]
    64b8:	1d17      	adds	r7, r2, #4
    64ba:	b28d      	uxth	r5, r1
    64bc:	3206      	adds	r2, #6
    64be:	b956      	cbnz	r6, 64d6 <free_list_add+0x3a>
		h->avail_buckets |= BIT(bidx);
    64c0:	2101      	movs	r1, #1
    64c2:	fa01 f000 	lsl.w	r0, r1, r0
    64c6:	68d9      	ldr	r1, [r3, #12]
    64c8:	4301      	orrs	r1, r0
    64ca:	60d9      	str	r1, [r3, #12]
		b->next = c;
    64cc:	f8cc 4010 	str.w	r4, [ip, #16]
		((uint16_t *)cmem)[f] = val;
    64d0:	53dd      	strh	r5, [r3, r7]
    64d2:	529d      	strh	r5, [r3, r2]
		free_list_add_bidx(h, c, bidx);
	}
}
    64d4:	bdf8      	pop	{r3, r4, r5, r6, r7, pc}
	void *cmem = &buf[c];
    64d6:	00f1      	lsls	r1, r6, #3
		return ((uint16_t *)cmem)[f];
    64d8:	3104      	adds	r1, #4
    64da:	5a58      	ldrh	r0, [r3, r1]
		((uint16_t *)cmem)[f] = val;
    64dc:	53d8      	strh	r0, [r3, r7]
    64de:	eb03 00c0 	add.w	r0, r3, r0, lsl #3
    64e2:	529e      	strh	r6, [r3, r2]
    64e4:	80c5      	strh	r5, [r0, #6]
    64e6:	525d      	strh	r5, [r3, r1]
    64e8:	e7f4      	b.n	64d4 <free_list_add+0x38>

000064ea <sys_heap_init>:
		__ASSERT(bytes / CHUNK_UNIT <= 0x7fffffffU, "heap size is too big");
	}

	/* Reserve the end marker chunk's header */
	__ASSERT(bytes > heap_footer_bytes(bytes), "heap size is too small");
	bytes -= heap_footer_bytes(bytes);
    64ea:	3a04      	subs	r2, #4

	/* Round the start up, the end down */
	uintptr_t addr = ROUND_UP(mem, CHUNK_UNIT);
    64ec:	1dcb      	adds	r3, r1, #7
	uintptr_t end = ROUND_DOWN((uint8_t *)mem + bytes, CHUNK_UNIT);
    64ee:	440a      	add	r2, r1
	uintptr_t addr = ROUND_UP(mem, CHUNK_UNIT);
    64f0:	f023 0307 	bic.w	r3, r3, #7
	uintptr_t end = ROUND_DOWN((uint8_t *)mem + bytes, CHUNK_UNIT);
    64f4:	f022 0207 	bic.w	r2, r2, #7
	chunksz_t heap_sz = (end - addr) / CHUNK_UNIT;
    64f8:	1ad2      	subs	r2, r2, r3
{
    64fa:	b4f0      	push	{r4, r5, r6, r7}
	chunksz_t heap_sz = (end - addr) / CHUNK_UNIT;
    64fc:	08d4      	lsrs	r4, r2, #3

	CHECK(end > addr);
	__ASSERT(heap_sz > chunksz(sizeof(struct z_heap)), "heap size is too small");

	struct z_heap *h = (struct z_heap *)addr;
	heap->heap = h;
    64fe:	6003      	str	r3, [r0, #0]
	return 31 - __builtin_clz(usable_sz);
    6500:	fab4 f084 	clz	r0, r4
	h->free_bytes = 0;
	h->allocated_bytes = 0;
#endif

	int nb_buckets = bucket_idx(h, heap_sz) + 1;
	chunksz_t chunk0_size = chunksz(sizeof(struct z_heap) +
    6504:	f1c0 0024 	rsb	r0, r0, #36	; 0x24
    6508:	0080      	lsls	r0, r0, #2
	return (bytes + CHUNK_UNIT - 1U) / CHUNK_UNIT;
    650a:	1dc1      	adds	r1, r0, #7
	h->avail_buckets = 0;
    650c:	2500      	movs	r5, #0
	h->end_chunk = heap_sz;
    650e:	609c      	str	r4, [r3, #8]
	h->avail_buckets = 0;
    6510:	60dd      	str	r5, [r3, #12]
    6512:	08c9      	lsrs	r1, r1, #3
				     nb_buckets * sizeof(struct z_heap_bucket));

	__ASSERT(chunk0_size + min_chunk_size(h) <= heap_sz, "heap size is too small");

	for (int i = 0; i < nb_buckets; i++) {
    6514:	f103 0610 	add.w	r6, r3, #16
    6518:	4418      	add	r0, r3
    651a:	4286      	cmp	r6, r0
    651c:	d118      	bne.n	6550 <sys_heap_init+0x66>
	chunk_set(h, c, SIZE_AND_USED, size << 1);
    651e:	0048      	lsls	r0, r1, #1
			((uint16_t *)cmem)[SIZE_AND_USED] |= 1U;
    6520:	f040 0001 	orr.w	r0, r0, #1
    6524:	8058      	strh	r0, [r3, #2]
		((uint16_t *)cmem)[f] = val;
    6526:	eb03 06c1 	add.w	r6, r3, r1, lsl #3
	set_chunk_size(h, 0, chunk0_size);
	set_left_chunk_size(h, 0, 0);
	set_chunk_used(h, 0, true);

	/* chunk containing the free heap */
	set_chunk_size(h, chunk0_size, heap_sz - chunk0_size);
    652a:	1a60      	subs	r0, r4, r1
	chunk_set(h, c, SIZE_AND_USED, size << 1);
    652c:	0047      	lsls	r7, r0, #1
		((uint16_t *)cmem)[f] = val;
    652e:	801d      	strh	r5, [r3, #0]
    6530:	8077      	strh	r7, [r6, #2]
    6532:	189e      	adds	r6, r3, r2
    6534:	f823 1031 	strh.w	r1, [r3, r1, lsl #3]
	void *cmem = &buf[c];
    6538:	eb03 04c4 	add.w	r4, r3, r4, lsl #3
		((uint16_t *)cmem)[f] = val;
    653c:	8075      	strh	r5, [r6, #2]
    653e:	5298      	strh	r0, [r3, r2]
			((uint16_t *)cmem)[SIZE_AND_USED] |= 1U;
    6540:	8862      	ldrh	r2, [r4, #2]
    6542:	f042 0201 	orr.w	r2, r2, #1
    6546:	8062      	strh	r2, [r4, #2]
	/* the end marker chunk */
	set_chunk_size(h, heap_sz, 0);
	set_left_chunk_size(h, heap_sz, heap_sz - chunk0_size);
	set_chunk_used(h, heap_sz, true);

	free_list_add(h, chunk0_size);
    6548:	4618      	mov	r0, r3
}
    654a:	bcf0      	pop	{r4, r5, r6, r7}
	free_list_add(h, chunk0_size);
    654c:	f7ff bfa6 	b.w	649c <free_list_add>
		h->buckets[i].next = 0;
    6550:	f846 5b04 	str.w	r5, [r6], #4
	for (int i = 0; i < nb_buckets; i++) {
    6554:	e7e1      	b.n	651a <sys_heap_init+0x30>

00006556 <sys_notify_validate>:

int sys_notify_validate(struct sys_notify *notify)
{
	int rv = 0;

	if (notify == NULL) {
    6556:	4603      	mov	r3, r0
    6558:	b158      	cbz	r0, 6572 <sys_notify_validate+0x1c>
	uint32_t method = notify->flags >> SYS_NOTIFY_METHOD_POS;
    655a:	6842      	ldr	r2, [r0, #4]
	return method & SYS_NOTIFY_METHOD_MASK;
    655c:	f002 0203 	and.w	r2, r2, #3
		return -EINVAL;
	}

	/* Validate configuration based on mode */
	switch (sys_notify_get_method(notify)) {
    6560:	2a01      	cmp	r2, #1
    6562:	d003      	beq.n	656c <sys_notify_validate+0x16>
    6564:	2a03      	cmp	r2, #3
    6566:	d104      	bne.n	6572 <sys_notify_validate+0x1c>
	case SYS_NOTIFY_METHOD_SPINWAIT:
		break;
	case SYS_NOTIFY_METHOD_CALLBACK:
		if (notify->method.callback == NULL) {
    6568:	6802      	ldr	r2, [r0, #0]
    656a:	b112      	cbz	r2, 6572 <sys_notify_validate+0x1c>
		break;
	}

	/* Clear the result here instead of in all callers. */
	if (rv == 0) {
		notify->result = 0;
    656c:	2000      	movs	r0, #0
    656e:	6098      	str	r0, [r3, #8]
    6570:	4770      	bx	lr
		return -EINVAL;
    6572:	f06f 0015 	mvn.w	r0, #21
	}

	return rv;
}
    6576:	4770      	bx	lr

00006578 <sys_notify_finalize>:
	uint32_t method = notify->flags >> SYS_NOTIFY_METHOD_POS;
    6578:	6842      	ldr	r2, [r0, #4]
	uint32_t method = sys_notify_get_method(notify);

	/* Store the result and capture secondary notification
	 * information.
	 */
	notify->result = res;
    657a:	6081      	str	r1, [r0, #8]
	return method & SYS_NOTIFY_METHOD_MASK;
    657c:	f002 0203 	and.w	r2, r2, #3
	switch (method) {
    6580:	2a03      	cmp	r2, #3
    6582:	f04f 0200 	mov.w	r2, #0
{
    6586:	4603      	mov	r3, r0
	case SYS_NOTIFY_METHOD_SPINWAIT:
		break;
	case SYS_NOTIFY_METHOD_CALLBACK:
		rv = notify->method.callback;
    6588:	bf0c      	ite	eq
    658a:	6800      	ldreq	r0, [r0, #0]
	sys_notify_generic_callback rv = NULL;
    658c:	4610      	movne	r0, r2
	/* Mark completion by clearing the flags field to the
	 * completed state, releasing any spin-waiters, then complete
	 * secondary notification.
	 */
	compiler_barrier();
	notify->flags = SYS_NOTIFY_METHOD_COMPLETED;
    658e:	605a      	str	r2, [r3, #4]
	if (IS_ENABLED(CONFIG_POLL) && (sig != NULL)) {
		k_poll_signal_raise(sig, res);
	}

	return rv;
}
    6590:	4770      	bx	lr

00006592 <abort_function>:
{
    6592:	b508      	push	{r3, lr}
	sys_reboot(SYS_REBOOT_WARM);
    6594:	2000      	movs	r0, #0
    6596:	f7fb ffb7 	bl	2508 <sys_reboot>

0000659a <process_recheck>:
	uint32_t state = mgr->flags & ONOFF_STATE_MASK;
    659a:	8b03      	ldrh	r3, [r0, #24]
	if ((state == ONOFF_STATE_OFF)
    659c:	f013 0307 	ands.w	r3, r3, #7
    65a0:	d105      	bne.n	65ae <process_recheck+0x14>
	    && !sys_slist_is_empty(&mgr->clients)) {
    65a2:	6803      	ldr	r3, [r0, #0]
    65a4:	2b00      	cmp	r3, #0
		evt = EVT_START;
    65a6:	bf0c      	ite	eq
    65a8:	2000      	moveq	r0, #0
    65aa:	2003      	movne	r0, #3
    65ac:	4770      	bx	lr
	} else if ((state == ONOFF_STATE_ON)
    65ae:	2b02      	cmp	r3, #2
    65b0:	d105      	bne.n	65be <process_recheck+0x24>
		   && (mgr->refs == 0U)) {
    65b2:	8b43      	ldrh	r3, [r0, #26]
    65b4:	2b00      	cmp	r3, #0
		evt = EVT_STOP;
    65b6:	bf14      	ite	ne
    65b8:	2000      	movne	r0, #0
    65ba:	2004      	moveq	r0, #4
    65bc:	4770      	bx	lr
	} else if ((state == ONOFF_STATE_ERROR)
    65be:	2b01      	cmp	r3, #1
    65c0:	d105      	bne.n	65ce <process_recheck+0x34>
		   && !sys_slist_is_empty(&mgr->clients)) {
    65c2:	6803      	ldr	r3, [r0, #0]
    65c4:	2b00      	cmp	r3, #0
		evt = EVT_RESET;
    65c6:	bf0c      	ite	eq
    65c8:	2000      	moveq	r0, #0
    65ca:	2005      	movne	r0, #5
    65cc:	4770      	bx	lr
	int evt = EVT_NOP;
    65ce:	2000      	movs	r0, #0
}
    65d0:	4770      	bx	lr

000065d2 <notify_one>:
{
    65d2:	e92d 41f0 	stmdb	sp!, {r4, r5, r6, r7, r8, lr}
    65d6:	460d      	mov	r5, r1
    65d8:	4607      	mov	r7, r0
		(onoff_client_callback)sys_notify_finalize(&cli->notify, res);
    65da:	4619      	mov	r1, r3
    65dc:	1d28      	adds	r0, r5, #4
{
    65de:	4690      	mov	r8, r2
    65e0:	461e      	mov	r6, r3
		(onoff_client_callback)sys_notify_finalize(&cli->notify, res);
    65e2:	f7ff ffc9 	bl	6578 <sys_notify_finalize>
	if (cb) {
    65e6:	4604      	mov	r4, r0
    65e8:	b138      	cbz	r0, 65fa <notify_one+0x28>
		cb(mgr, cli, state, res);
    65ea:	4633      	mov	r3, r6
    65ec:	4642      	mov	r2, r8
    65ee:	4629      	mov	r1, r5
    65f0:	4638      	mov	r0, r7
    65f2:	46a4      	mov	ip, r4
}
    65f4:	e8bd 41f0 	ldmia.w	sp!, {r4, r5, r6, r7, r8, lr}
		cb(mgr, cli, state, res);
    65f8:	4760      	bx	ip
}
    65fa:	e8bd 81f0 	ldmia.w	sp!, {r4, r5, r6, r7, r8, pc}

000065fe <transition_complete>:
{
    65fe:	b410      	push	{r4}
	__asm__ volatile(
    6600:	f04f 0420 	mov.w	r4, #32
    6604:	f3ef 8211 	mrs	r2, BASEPRI
    6608:	f384 8812 	msr	BASEPRI_MAX, r4
    660c:	f3bf 8f6f 	isb	sy
	mgr->last_res = res;
    6610:	6141      	str	r1, [r0, #20]
}
    6612:	bc10      	pop	{r4}
	process_event(mgr, EVT_COMPLETE, key);
    6614:	2101      	movs	r1, #1
    6616:	f7fb bd63 	b.w	20e0 <process_event>

0000661a <validate_args>:
{
    661a:	b510      	push	{r4, lr}
    661c:	460c      	mov	r4, r1
	if ((mgr == NULL) || (cli == NULL)) {
    661e:	b140      	cbz	r0, 6632 <validate_args+0x18>
    6620:	b139      	cbz	r1, 6632 <validate_args+0x18>
	int rv = sys_notify_validate(&cli->notify);
    6622:	1d08      	adds	r0, r1, #4
    6624:	f7ff ff97 	bl	6556 <sys_notify_validate>
	if ((rv == 0)
    6628:	b928      	cbnz	r0, 6636 <validate_args+0x1c>
	    && ((cli->notify.flags
    662a:	68a3      	ldr	r3, [r4, #8]
    662c:	f033 0303 	bics.w	r3, r3, #3
    6630:	d001      	beq.n	6636 <validate_args+0x1c>
		rv = -EINVAL;
    6632:	f06f 0015 	mvn.w	r0, #21
}
    6636:	bd10      	pop	{r4, pc}

00006638 <onoff_manager_init>:
{
    6638:	b538      	push	{r3, r4, r5, lr}
    663a:	460c      	mov	r4, r1
	if ((mgr == NULL)
    663c:	4605      	mov	r5, r0
    663e:	b158      	cbz	r0, 6658 <onoff_manager_init+0x20>
	    || (transitions == NULL)
    6640:	b151      	cbz	r1, 6658 <onoff_manager_init+0x20>
	    || (transitions->start == NULL)
    6642:	680b      	ldr	r3, [r1, #0]
    6644:	b143      	cbz	r3, 6658 <onoff_manager_init+0x20>
	    || (transitions->stop == NULL)) {
    6646:	684b      	ldr	r3, [r1, #4]
    6648:	b133      	cbz	r3, 6658 <onoff_manager_init+0x20>
	*mgr = (struct onoff_manager)ONOFF_MANAGER_INITIALIZER(transitions);
    664a:	221c      	movs	r2, #28
    664c:	2100      	movs	r1, #0
    664e:	f000 fa3d 	bl	6acc <memset>
    6652:	612c      	str	r4, [r5, #16]
	return 0;
    6654:	2000      	movs	r0, #0
}
    6656:	bd38      	pop	{r3, r4, r5, pc}
		return -EINVAL;
    6658:	f06f 0015 	mvn.w	r0, #21
    665c:	e7fb      	b.n	6656 <onoff_manager_init+0x1e>

0000665e <onoff_request>:

int onoff_request(struct onoff_manager *mgr,
		  struct onoff_client *cli)
{
    665e:	b570      	push	{r4, r5, r6, lr}
    6660:	4604      	mov	r4, r0
    6662:	460e      	mov	r6, r1
	bool add_client = false;        /* add client to pending list */
	bool start = false;             /* trigger a start transition */
	bool notify = false;            /* do client notification */
	int rv = validate_args(mgr, cli);
    6664:	f7ff ffd9 	bl	661a <validate_args>

	if (rv < 0) {
    6668:	1e05      	subs	r5, r0, #0
    666a:	db31      	blt.n	66d0 <onoff_request+0x72>
    666c:	f04f 0320 	mov.w	r3, #32
    6670:	f3ef 8111 	mrs	r1, BASEPRI
    6674:	f383 8812 	msr	BASEPRI_MAX, r3
    6678:	f3bf 8f6f 	isb	sy

	k_spinlock_key_t key = k_spin_lock(&mgr->lock);
	uint32_t state = mgr->flags & ONOFF_STATE_MASK;

	/* Reject if this would overflow the reference count. */
	if (mgr->refs == SERVICE_REFS_MAX) {
    667c:	8b63      	ldrh	r3, [r4, #26]
	uint32_t state = mgr->flags & ONOFF_STATE_MASK;
    667e:	8b20      	ldrh	r0, [r4, #24]
	if (mgr->refs == SERVICE_REFS_MAX) {
    6680:	f64f 75ff 	movw	r5, #65535	; 0xffff
    6684:	42ab      	cmp	r3, r5
    6686:	f000 0207 	and.w	r2, r0, #7
    668a:	d02e      	beq.n	66ea <onoff_request+0x8c>
		rv = -EAGAIN;
		goto out;
	}

	rv = state;
	if (state == ONOFF_STATE_ON) {
    668c:	2a02      	cmp	r2, #2
    668e:	d10e      	bne.n	66ae <onoff_request+0x50>
		/* Increment reference count, notify in exit */
		notify = true;
		mgr->refs += 1U;
    6690:	3301      	adds	r3, #1
    6692:	8363      	strh	r3, [r4, #26]
	rv = state;
    6694:	4615      	mov	r5, r2
		notify = true;
    6696:	2301      	movs	r3, #1
	__asm__ volatile(
    6698:	f381 8811 	msr	BASEPRI, r1
    669c:	f3bf 8f6f 	isb	sy
	if (start) {
		process_event(mgr, EVT_RECHECK, key);
	} else {
		k_spin_unlock(&mgr->lock, key);

		if (notify) {
    66a0:	b1b3      	cbz	r3, 66d0 <onoff_request+0x72>
			notify_one(mgr, cli, state, 0);
    66a2:	2300      	movs	r3, #0
    66a4:	4631      	mov	r1, r6
    66a6:	4620      	mov	r0, r4
    66a8:	f7ff ff93 	bl	65d2 <notify_one>
    66ac:	e010      	b.n	66d0 <onoff_request+0x72>
	} else if ((state == ONOFF_STATE_OFF)
    66ae:	0783      	lsls	r3, r0, #30
    66b0:	d001      	beq.n	66b6 <onoff_request+0x58>
		   || (state == ONOFF_STATE_TO_ON)) {
    66b2:	2a06      	cmp	r2, #6
    66b4:	d10e      	bne.n	66d4 <onoff_request+0x76>
	parent->next = child;
    66b6:	2300      	movs	r3, #0
    66b8:	6033      	str	r3, [r6, #0]
Z_GENLIST_APPEND(slist, snode)
    66ba:	6863      	ldr	r3, [r4, #4]
    66bc:	b993      	cbnz	r3, 66e4 <onoff_request+0x86>
	list->head = node;
    66be:	e9c4 6600 	strd	r6, r6, [r4]
	if (start) {
    66c2:	4615      	mov	r5, r2
    66c4:	b962      	cbnz	r2, 66e0 <onoff_request+0x82>
		process_event(mgr, EVT_RECHECK, key);
    66c6:	460a      	mov	r2, r1
    66c8:	4620      	mov	r0, r4
    66ca:	2102      	movs	r1, #2
    66cc:	f7fb fd08 	bl	20e0 <process_event>
		}
	}

	return rv;
}
    66d0:	4628      	mov	r0, r5
    66d2:	bd70      	pop	{r4, r5, r6, pc}
		rv = -EIO;
    66d4:	2a05      	cmp	r2, #5
    66d6:	bf0c      	ite	eq
    66d8:	f06f 0585 	mvneq.w	r5, #133	; 0x85
    66dc:	f06f 0504 	mvnne.w	r5, #4
    66e0:	2300      	movs	r3, #0
    66e2:	e7d9      	b.n	6698 <onoff_request+0x3a>
	parent->next = child;
    66e4:	601e      	str	r6, [r3, #0]
	list->tail = node;
    66e6:	6066      	str	r6, [r4, #4]
}
    66e8:	e7eb      	b.n	66c2 <onoff_request+0x64>
		rv = -EAGAIN;
    66ea:	f06f 050a 	mvn.w	r5, #10
    66ee:	e7f7      	b.n	66e0 <onoff_request+0x82>

000066f0 <arch_printk_char_out>:
}
    66f0:	2000      	movs	r0, #0
    66f2:	4770      	bx	lr

000066f4 <printk>:
 *
 * @return N/A
 */

void printk(const char *fmt, ...)
{
    66f4:	b40f      	push	{r0, r1, r2, r3}
    66f6:	b507      	push	{r0, r1, r2, lr}
    66f8:	a904      	add	r1, sp, #16
    66fa:	f851 0b04 	ldr.w	r0, [r1], #4
	va_list ap;

	va_start(ap, fmt);
    66fe:	9101      	str	r1, [sp, #4]

	if (IS_ENABLED(CONFIG_LOG_PRINTK)) {
		log_printk(fmt, ap);
	} else {
		vprintk(fmt, ap);
    6700:	f7fb fef4 	bl	24ec <vprintk>
	}
	va_end(ap);
}
    6704:	b003      	add	sp, #12
    6706:	f85d eb04 	ldr.w	lr, [sp], #4
    670a:	b004      	add	sp, #16
    670c:	4770      	bx	lr

0000670e <pm_policy_next_state>:
		}
	}

error:
	LOG_DBG("No suitable power state found for cpu: %d!", cpu);
	return (struct pm_state_info){PM_STATE_ACTIVE, 0, 0};
    670e:	2200      	movs	r2, #0
    6710:	e9c0 2200 	strd	r2, r2, [r0]
    6714:	6082      	str	r2, [r0, #8]
}
    6716:	4770      	bx	lr

00006718 <z_thread_entry>:
 * This routine does not return, and is marked as such so the compiler won't
 * generate preamble code that is only used by functions that actually return.
 */
FUNC_NORETURN void z_thread_entry(k_thread_entry_t entry,
				 void *p1, void *p2, void *p3)
{
    6718:	4604      	mov	r4, r0
    671a:	b508      	push	{r3, lr}
    671c:	4608      	mov	r0, r1
    671e:	4611      	mov	r1, r2
#ifdef CONFIG_THREAD_LOCAL_STORAGE
	z_tls_current = z_current_get();
#endif
	entry(p1, p2, p3);
    6720:	461a      	mov	r2, r3
    6722:	47a0      	blx	r4
	return z_impl_z_current_get();
    6724:	f7ff f8ae 	bl	5884 <z_impl_z_current_get>
	z_impl_k_thread_abort(thread);
    6728:	f7fc f9d8 	bl	2adc <z_impl_k_thread_abort>

0000672c <z_impl_uart_irq_tx_disable>:
	if (api->irq_tx_disable != NULL) {
    672c:	6883      	ldr	r3, [r0, #8]
    672e:	6a1b      	ldr	r3, [r3, #32]
    6730:	b103      	cbz	r3, 6734 <z_impl_uart_irq_tx_disable+0x8>
		api->irq_tx_disable(dev);
    6732:	4718      	bx	r3
}
    6734:	4770      	bx	lr

00006736 <tty_putchar>:
{
    6736:	e92d 4370 	stmdb	sp!, {r4, r5, r6, r8, r9, lr}
    673a:	4604      	mov	r4, r0
    673c:	460d      	mov	r5, r1
	res = k_sem_take(&tty->tx_sem,
    673e:	f100 0624 	add.w	r6, r0, #36	; 0x24
			 k_is_in_isr() ? K_NO_WAIT :
    6742:	f000 fe94 	bl	746e <k_is_in_isr>
	res = k_sem_take(&tty->tx_sem,
    6746:	bb98      	cbnz	r0, 67b0 <tty_putchar+0x7a>
					 SYS_TIMEOUT_MS(tty->tx_timeout));
    6748:	6c21      	ldr	r1, [r4, #64]	; 0x40
	res = k_sem_take(&tty->tx_sem,
    674a:	1c4b      	adds	r3, r1, #1
    674c:	d033      	beq.n	67b6 <tty_putchar+0x80>
					 SYS_TIMEOUT_MS(tty->tx_timeout));
    674e:	ea21 71e1 	bic.w	r1, r1, r1, asr #31
    6752:	f44f 4000 	mov.w	r0, #32768	; 0x8000
    6756:	f240 38e7 	movw	r8, #999	; 0x3e7
    675a:	f04f 0900 	mov.w	r9, #0
    675e:	fbc0 8901 	smlal	r8, r9, r0, r1
    6762:	f44f 727a 	mov.w	r2, #1000	; 0x3e8
    6766:	2300      	movs	r3, #0
    6768:	4640      	mov	r0, r8
    676a:	4649      	mov	r1, r9
    676c:	f7fa faa0 	bl	cb0 <__aeabi_uldivmod>
    6770:	4602      	mov	r2, r0
    6772:	460b      	mov	r3, r1
	return z_impl_k_sem_take(sem, timeout);
    6774:	4630      	mov	r0, r6
    6776:	f7ff f8fd 	bl	5974 <z_impl_k_sem_take>
	if (res < 0) {
    677a:	2800      	cmp	r0, #0
    677c:	db16      	blt.n	67ac <tty_putchar+0x76>
	__asm__ volatile(
    677e:	f04f 0320 	mov.w	r3, #32
    6782:	f3ef 8211 	mrs	r2, BASEPRI
    6786:	f383 8812 	msr	BASEPRI_MAX, r3
    678a:	f3bf 8f6f 	isb	sy
	tx_next = tty->tx_put + 1;
    678e:	8fe1      	ldrh	r1, [r4, #62]	; 0x3e
	if (tx_next >= tty->tx_ringbuf_sz) {
    6790:	6ba0      	ldr	r0, [r4, #56]	; 0x38
	tx_next = tty->tx_put + 1;
    6792:	1c4b      	adds	r3, r1, #1
		tx_next = 0;
    6794:	4298      	cmp	r0, r3
    6796:	bf98      	it	ls
    6798:	2300      	movls	r3, #0
	if (tx_next == tty->tx_get) {
    679a:	8fa0      	ldrh	r0, [r4, #60]	; 0x3c
    679c:	4298      	cmp	r0, r3
    679e:	d10d      	bne.n	67bc <tty_putchar+0x86>
	__asm__ volatile(
    67a0:	f382 8811 	msr	BASEPRI, r2
    67a4:	f3bf 8f6f 	isb	sy
		return -ENOSPC;
    67a8:	f06f 001b 	mvn.w	r0, #27
}
    67ac:	e8bd 8370 	ldmia.w	sp!, {r4, r5, r6, r8, r9, pc}
	res = k_sem_take(&tty->tx_sem,
    67b0:	2200      	movs	r2, #0
    67b2:	4613      	mov	r3, r2
    67b4:	e7de      	b.n	6774 <tty_putchar+0x3e>
    67b6:	f04f 32ff 	mov.w	r2, #4294967295
    67ba:	e7fa      	b.n	67b2 <tty_putchar+0x7c>
	tty->tx_ringbuf[tty->tx_put] = c;
    67bc:	6b60      	ldr	r0, [r4, #52]	; 0x34
    67be:	5445      	strb	r5, [r0, r1]
	tty->tx_put = tx_next;
    67c0:	87e3      	strh	r3, [r4, #62]	; 0x3e
    67c2:	f382 8811 	msr	BASEPRI, r2
    67c6:	f3bf 8f6f 	isb	sy
	uart_irq_tx_enable(tty->uart_dev);
    67ca:	6820      	ldr	r0, [r4, #0]
	if (api->irq_tx_enable != NULL) {
    67cc:	6883      	ldr	r3, [r0, #8]
    67ce:	69db      	ldr	r3, [r3, #28]
    67d0:	b113      	cbz	r3, 67d8 <tty_putchar+0xa2>
		api->irq_tx_enable(dev);
    67d2:	4798      	blx	r3
	return 0;
    67d4:	2000      	movs	r0, #0
    67d6:	e7e9      	b.n	67ac <tty_putchar+0x76>
    67d8:	4618      	mov	r0, r3
    67da:	e7e7      	b.n	67ac <tty_putchar+0x76>

000067dc <tty_uart_isr>:
{
    67dc:	b573      	push	{r0, r1, r4, r5, r6, lr}
    67de:	4605      	mov	r5, r0
    67e0:	460c      	mov	r4, r1
	if (api->irq_update == NULL) {
    67e2:	6883      	ldr	r3, [r0, #8]
    67e4:	6c5b      	ldr	r3, [r3, #68]	; 0x44
    67e6:	b103      	cbz	r3, 67ea <tty_uart_isr+0xe>
	return api->irq_update(dev);
    67e8:	4798      	blx	r3
	if (api->irq_rx_ready == NULL) {
    67ea:	68ab      	ldr	r3, [r5, #8]
    67ec:	6b5b      	ldr	r3, [r3, #52]	; 0x34
    67ee:	b98b      	cbnz	r3, 6814 <tty_uart_isr+0x38>
	k_sem_give(&tty->rx_sem);
    67f0:	1d26      	adds	r6, r4, #4
	if (api->fifo_read == NULL) {
    67f2:	68ab      	ldr	r3, [r5, #8]
    67f4:	699b      	ldr	r3, [r3, #24]
    67f6:	b9e3      	cbnz	r3, 6832 <tty_uart_isr+0x56>
	int rx_next = tty->rx_put + 1;
    67f8:	8be2      	ldrh	r2, [r4, #30]
	if (rx_next >= tty->rx_ringbuf_sz) {
    67fa:	69a1      	ldr	r1, [r4, #24]
	int rx_next = tty->rx_put + 1;
    67fc:	1c53      	adds	r3, r2, #1
		rx_next = 0;
    67fe:	4299      	cmp	r1, r3
    6800:	bf98      	it	ls
    6802:	2300      	movls	r3, #0
	if (rx_next == tty->rx_get) {
    6804:	8ba1      	ldrh	r1, [r4, #28]
    6806:	4299      	cmp	r1, r3
    6808:	d11b      	bne.n	6842 <tty_uart_isr+0x66>
		tty_putchar(tty, '~');
    680a:	217e      	movs	r1, #126	; 0x7e
    680c:	4620      	mov	r0, r4
    680e:	f7ff ff92 	bl	6736 <tty_putchar>
		return 1;
    6812:	e7ee      	b.n	67f2 <tty_uart_isr+0x16>
	return api->irq_rx_ready(dev);
    6814:	4628      	mov	r0, r5
    6816:	4798      	blx	r3
	if (uart_irq_rx_ready(dev)) {
    6818:	2800      	cmp	r0, #0
    681a:	d1e9      	bne.n	67f0 <tty_uart_isr+0x14>
	if (api->irq_tx_ready == NULL) {
    681c:	68ab      	ldr	r3, [r5, #8]
    681e:	6a5b      	ldr	r3, [r3, #36]	; 0x24
    6820:	b9c3      	cbnz	r3, 6854 <tty_uart_isr+0x78>
		if (tty->tx_get == tty->tx_put) {
    6822:	8fa3      	ldrh	r3, [r4, #60]	; 0x3c
    6824:	8fe2      	ldrh	r2, [r4, #62]	; 0x3e
    6826:	429a      	cmp	r2, r3
    6828:	d11a      	bne.n	6860 <tty_uart_isr+0x84>
		arch_syscall_invoke1(*(uintptr_t *)&dev, K_SYSCALL_UART_IRQ_TX_DISABLE);
		return;
	}
#endif
	compiler_barrier();
	z_impl_uart_irq_tx_disable(dev);
    682a:	4628      	mov	r0, r5
    682c:	f7ff ff7e 	bl	672c <z_impl_uart_irq_tx_disable>
}
    6830:	e014      	b.n	685c <tty_uart_isr+0x80>
	return api->fifo_read(dev, rx_data, size);
    6832:	2201      	movs	r2, #1
    6834:	f10d 0107 	add.w	r1, sp, #7
    6838:	4628      	mov	r0, r5
    683a:	4798      	blx	r3
			if (uart_fifo_read(dev, &c, 1) == 0) {
    683c:	2800      	cmp	r0, #0
    683e:	d1db      	bne.n	67f8 <tty_uart_isr+0x1c>
    6840:	e7ec      	b.n	681c <tty_uart_isr+0x40>
	tty->rx_ringbuf[tty->rx_put] = c;
    6842:	6961      	ldr	r1, [r4, #20]
			tty_irq_input_hook(tty, c);
    6844:	f89d 0007 	ldrb.w	r0, [sp, #7]
	tty->rx_ringbuf[tty->rx_put] = c;
    6848:	5488      	strb	r0, [r1, r2]
	tty->rx_put = rx_next;
    684a:	83e3      	strh	r3, [r4, #30]
	z_impl_k_sem_give(sem);
    684c:	4630      	mov	r0, r6
    684e:	f7ff f871 	bl	5934 <z_impl_k_sem_give>
}
    6852:	e7ce      	b.n	67f2 <tty_uart_isr+0x16>
	return api->irq_tx_ready(dev);
    6854:	4628      	mov	r0, r5
    6856:	4798      	blx	r3
	if (uart_irq_tx_ready(dev)) {
    6858:	2800      	cmp	r0, #0
    685a:	d1e2      	bne.n	6822 <tty_uart_isr+0x46>
}
    685c:	b002      	add	sp, #8
    685e:	bd70      	pop	{r4, r5, r6, pc}
			uart_fifo_fill(dev, &tty->tx_ringbuf[tty->tx_get++], 1);
    6860:	6b61      	ldr	r1, [r4, #52]	; 0x34
    6862:	1c5a      	adds	r2, r3, #1
    6864:	4419      	add	r1, r3
	if (api->fifo_fill == NULL) {
    6866:	68ab      	ldr	r3, [r5, #8]
    6868:	87a2      	strh	r2, [r4, #60]	; 0x3c
    686a:	695b      	ldr	r3, [r3, #20]
    686c:	b113      	cbz	r3, 6874 <tty_uart_isr+0x98>
	return api->fifo_fill(dev, tx_data, size);
    686e:	2201      	movs	r2, #1
    6870:	4628      	mov	r0, r5
    6872:	4798      	blx	r3
			if (tty->tx_get >= tty->tx_ringbuf_sz) {
    6874:	6ba3      	ldr	r3, [r4, #56]	; 0x38
    6876:	8fa2      	ldrh	r2, [r4, #60]	; 0x3c
    6878:	429a      	cmp	r2, r3
				tty->tx_get = 0U;
    687a:	bf24      	itt	cs
    687c:	2300      	movcs	r3, #0
    687e:	87a3      	strhcs	r3, [r4, #60]	; 0x3c
	z_impl_k_sem_give(sem);
    6880:	f104 0024 	add.w	r0, r4, #36	; 0x24
    6884:	f7ff f856 	bl	5934 <z_impl_k_sem_give>
}
    6888:	e7e8      	b.n	685c <tty_uart_isr+0x80>

0000688a <tty_write>:
	if (tty->tx_ringbuf_sz == 0U) {
    688a:	6b83      	ldr	r3, [r0, #56]	; 0x38
{
    688c:	e92d 41f0 	stmdb	sp!, {r4, r5, r6, r7, r8, lr}
    6890:	4680      	mov	r8, r0
    6892:	460e      	mov	r6, r1
    6894:	4617      	mov	r7, r2
	if (tty->tx_ringbuf_sz == 0U) {
    6896:	b9fb      	cbnz	r3, 68d8 <tty_write+0x4e>
    6898:	188c      	adds	r4, r1, r2
		while (size--) {
    689a:	42b4      	cmp	r4, r6
    689c:	d103      	bne.n	68a6 <tty_write+0x1c>
		return out_size;
    689e:	463c      	mov	r4, r7
}
    68a0:	4620      	mov	r0, r4
    68a2:	e8bd 81f0 	ldmia.w	sp!, {r4, r5, r6, r7, r8, pc}
			uart_poll_out(tty->uart_dev, *p++);
    68a6:	f8d8 0000 	ldr.w	r0, [r8]
    68aa:	f816 1b01 	ldrb.w	r1, [r6], #1
	api->poll_out(dev, out_char);
    68ae:	6883      	ldr	r3, [r0, #8]
    68b0:	685b      	ldr	r3, [r3, #4]
    68b2:	4798      	blx	r3
}
    68b4:	e7f1      	b.n	689a <tty_write+0x10>
		res = tty_putchar(tty, *p++);
    68b6:	5d71      	ldrb	r1, [r6, r5]
    68b8:	4640      	mov	r0, r8
    68ba:	f7ff ff3c 	bl	6736 <tty_putchar>
		if (res < 0) {
    68be:	1e04      	subs	r4, r0, #0
    68c0:	da05      	bge.n	68ce <tty_write+0x44>
			if (out_size == 0) {
    68c2:	b93d      	cbnz	r5, 68d4 <tty_write+0x4a>
		/* coverity[OVERRUN] */
		return (int *) arch_syscall_invoke0(K_SYSCALL_Z_ERRNO);
	}
#endif
	compiler_barrier();
	return z_impl_z_errno();
    68c4:	f7fe fae6 	bl	4e94 <z_impl_z_errno>
				errno = -res;
    68c8:	4263      	negs	r3, r4
    68ca:	6003      	str	r3, [r0, #0]
				return res;
    68cc:	e7e8      	b.n	68a0 <tty_write+0x16>
		out_size++;
    68ce:	3501      	adds	r5, #1
	while (size--) {
    68d0:	42bd      	cmp	r5, r7
    68d2:	d1f0      	bne.n	68b6 <tty_write+0x2c>
	return out_size;
    68d4:	462c      	mov	r4, r5
    68d6:	e7e3      	b.n	68a0 <tty_write+0x16>
	size_t out_size = 0;
    68d8:	2500      	movs	r5, #0
    68da:	e7f9      	b.n	68d0 <tty_write+0x46>

000068dc <tty_read>:
{
    68dc:	e92d 4ff0 	stmdb	sp!, {r4, r5, r6, r7, r8, r9, sl, fp, lr}
	if (tty->rx_ringbuf_sz == 0U) {
    68e0:	6984      	ldr	r4, [r0, #24]
{
    68e2:	b085      	sub	sp, #20
    68e4:	4605      	mov	r5, r0
    68e6:	460e      	mov	r6, r1
    68e8:	4617      	mov	r7, r2
	if (tty->rx_ringbuf_sz == 0U) {
    68ea:	2c00      	cmp	r4, #0
    68ec:	d175      	bne.n	69da <tty_read+0xfe>
	uint32_t timeout = tty->rx_timeout;
    68ee:	f8d0 9020 	ldr.w	r9, [r0, #32]
	while (size) {
    68f2:	b18f      	cbz	r7, 6918 <tty_read+0x3c>
		res = uart_poll_in(tty->uart_dev, &c);
    68f4:	6828      	ldr	r0, [r5, #0]
	if (api->poll_in == NULL) {
    68f6:	6883      	ldr	r3, [r0, #8]
    68f8:	681b      	ldr	r3, [r3, #0]
    68fa:	b18b      	cbz	r3, 6920 <tty_read+0x44>
	return api->poll_in(dev, p_char);
    68fc:	f10d 010f 	add.w	r1, sp, #15
    6900:	4798      	blx	r3
		if (res <= -2) {
    6902:	f1b0 3fff 	cmp.w	r0, #4294967295
    6906:	4680      	mov	r8, r0
    6908:	da0d      	bge.n	6926 <tty_read+0x4a>
			if (out_size == 0) {
    690a:	b92c      	cbnz	r4, 6918 <tty_read+0x3c>
    690c:	f7fe fac2 	bl	4e94 <z_impl_z_errno>
				return -1;
    6910:	f04f 34ff 	mov.w	r4, #4294967295
				errno = res;
    6914:	f8c0 8000 	str.w	r8, [r0]
}
    6918:	4620      	mov	r0, r4
    691a:	b005      	add	sp, #20
    691c:	e8bd 8ff0 	ldmia.w	sp!, {r4, r5, r6, r7, r8, r9, sl, fp, pc}
		return -ENOSYS;
    6920:	f06f 0857 	mvn.w	r8, #87	; 0x57
    6924:	e7f1      	b.n	690a <tty_read+0x2e>
		if (res == 0) {
    6926:	b958      	cbnz	r0, 6940 <tty_read+0x64>
			*p++ = c;
    6928:	f89d 300f 	ldrb.w	r3, [sp, #15]
    692c:	f806 3b01 	strb.w	r3, [r6], #1
		if (size == 0 ||
    6930:	3f01      	subs	r7, #1
			out_size++;
    6932:	f104 0401 	add.w	r4, r4, #1
		if (size == 0 ||
    6936:	d0ef      	beq.n	6918 <tty_read+0x3c>
    6938:	f1b9 3fff 	cmp.w	r9, #4294967295
    693c:	d103      	bne.n	6946 <tty_read+0x6a>
    693e:	e7d8      	b.n	68f2 <tty_read+0x16>
    6940:	f1b9 3fff 	cmp.w	r9, #4294967295
    6944:	d005      	beq.n	6952 <tty_read+0x76>
		    ((timeout != SYS_FOREVER_MS) && timeout-- == 0U)) {
    6946:	f109 33ff 	add.w	r3, r9, #4294967295
    694a:	f1b9 0f00 	cmp.w	r9, #0
    694e:	d0e3      	beq.n	6918 <tty_read+0x3c>
    6950:	4699      	mov	r9, r3
		if (res == -1) {
    6952:	f1b8 3fff 	cmp.w	r8, #4294967295
    6956:	d1cc      	bne.n	68f2 <tty_read+0x16>
	return z_impl_k_sleep(timeout);
    6958:	2100      	movs	r1, #0
    695a:	2021      	movs	r0, #33	; 0x21
    695c:	f7fe ff78 	bl	5850 <z_impl_k_sleep>
    6960:	e7c7      	b.n	68f2 <tty_read+0x16>
	res = k_sem_take(&tty->rx_sem, SYS_TIMEOUT_MS(tty->rx_timeout));
    6962:	6a29      	ldr	r1, [r5, #32]
    6964:	1c4b      	adds	r3, r1, #1
    6966:	d034      	beq.n	69d2 <tty_read+0xf6>
    6968:	ea21 71e1 	bic.w	r1, r1, r1, asr #31
    696c:	f44f 4000 	mov.w	r0, #32768	; 0x8000
    6970:	46c3      	mov	fp, r8
    6972:	46cc      	mov	ip, r9
    6974:	fbc0 bc01 	smlal	fp, ip, r0, r1
    6978:	f44f 727a 	mov.w	r2, #1000	; 0x3e8
    697c:	2300      	movs	r3, #0
    697e:	4658      	mov	r0, fp
    6980:	4661      	mov	r1, ip
    6982:	f7fa f995 	bl	cb0 <__aeabi_uldivmod>
    6986:	4602      	mov	r2, r0
    6988:	460b      	mov	r3, r1
	return z_impl_k_sem_take(sem, timeout);
    698a:	9801      	ldr	r0, [sp, #4]
    698c:	f7fe fff2 	bl	5974 <z_impl_k_sem_take>
	if (res < 0) {
    6990:	1e04      	subs	r4, r0, #0
    6992:	db2b      	blt.n	69ec <tty_read+0x110>
	__asm__ volatile(
    6994:	f04f 0320 	mov.w	r3, #32
    6998:	f3ef 8011 	mrs	r0, BASEPRI
    699c:	f383 8812 	msr	BASEPRI_MAX, r3
    69a0:	f3bf 8f6f 	isb	sy
	c = tty->rx_ringbuf[tty->rx_get++];
    69a4:	8baa      	ldrh	r2, [r5, #28]
    69a6:	6969      	ldr	r1, [r5, #20]
    69a8:	1c53      	adds	r3, r2, #1
    69aa:	b29b      	uxth	r3, r3
    69ac:	83ab      	strh	r3, [r5, #28]
    69ae:	5c8a      	ldrb	r2, [r1, r2]
	if (tty->rx_get >= tty->rx_ringbuf_sz) {
    69b0:	69a9      	ldr	r1, [r5, #24]
    69b2:	428b      	cmp	r3, r1
		tty->rx_get = 0U;
    69b4:	bf24      	itt	cs
    69b6:	2300      	movcs	r3, #0
    69b8:	83ab      	strhcs	r3, [r5, #28]
	__asm__ volatile(
    69ba:	f380 8811 	msr	BASEPRI, r0
    69be:	f3bf 8f6f 	isb	sy
		*p++ = (uint8_t)res;
    69c2:	f806 200a 	strb.w	r2, [r6, sl]
		out_size++;
    69c6:	f10a 0a01 	add.w	sl, sl, #1
	while (size--) {
    69ca:	45ba      	cmp	sl, r7
    69cc:	d1c9      	bne.n	6962 <tty_read+0x86>
	return out_size;
    69ce:	4654      	mov	r4, sl
    69d0:	e7a2      	b.n	6918 <tty_read+0x3c>
	res = k_sem_take(&tty->rx_sem, SYS_TIMEOUT_MS(tty->rx_timeout));
    69d2:	f04f 32ff 	mov.w	r2, #4294967295
    69d6:	4613      	mov	r3, r2
    69d8:	e7d7      	b.n	698a <tty_read+0xae>
    69da:	1d03      	adds	r3, r0, #4
	size_t out_size = 0;
    69dc:	f04f 0a00 	mov.w	sl, #0
	res = k_sem_take(&tty->rx_sem, SYS_TIMEOUT_MS(tty->rx_timeout));
    69e0:	9301      	str	r3, [sp, #4]
    69e2:	f240 38e7 	movw	r8, #999	; 0x3e7
    69e6:	f04f 0900 	mov.w	r9, #0
    69ea:	e7ee      	b.n	69ca <tty_read+0xee>
			if (out_size == 0) {
    69ec:	f1ba 0f00 	cmp.w	sl, #0
    69f0:	d1ed      	bne.n	69ce <tty_read+0xf2>
    69f2:	f7fe fa4f 	bl	4e94 <z_impl_z_errno>
				errno = -res;
    69f6:	4263      	negs	r3, r4
    69f8:	6003      	str	r3, [r0, #0]
				return res;
    69fa:	e78d      	b.n	6918 <tty_read+0x3c>

000069fc <tty_set_rx_buf>:

int tty_set_rx_buf(struct tty_serial *tty, void *buf, size_t size)
{
    69fc:	b570      	push	{r4, r5, r6, lr}
    69fe:	4604      	mov	r4, r0
    6a00:	460e      	mov	r6, r1
	uart_irq_rx_disable(tty->uart_dev);
    6a02:	6800      	ldr	r0, [r0, #0]
{
    6a04:	4615      	mov	r5, r2
	if (api->irq_rx_disable != NULL) {
    6a06:	6883      	ldr	r3, [r0, #8]
    6a08:	6adb      	ldr	r3, [r3, #44]	; 0x2c
    6a0a:	b103      	cbz	r3, 6a0e <tty_set_rx_buf+0x12>
		api->irq_rx_disable(dev);
    6a0c:	4798      	blx	r3

	tty->rx_ringbuf = buf;
	tty->rx_ringbuf_sz = size;
    6a0e:	e9c4 6505 	strd	r6, r5, [r4, #20]

	if (size > 0) {
    6a12:	b155      	cbz	r5, 6a2a <tty_set_rx_buf+0x2e>
	return z_impl_k_sem_init(sem, initial_count, limit);
    6a14:	f04f 32ff 	mov.w	r2, #4294967295
    6a18:	2100      	movs	r1, #0
    6a1a:	1d20      	adds	r0, r4, #4
    6a1c:	f000 fd1b 	bl	7456 <z_impl_k_sem_init>
		k_sem_init(&tty->rx_sem, 0, K_SEM_MAX_LIMIT);
		uart_irq_rx_enable(tty->uart_dev);
    6a20:	6820      	ldr	r0, [r4, #0]
	if (api->irq_rx_enable != NULL) {
    6a22:	6883      	ldr	r3, [r0, #8]
    6a24:	6a9b      	ldr	r3, [r3, #40]	; 0x28
    6a26:	b103      	cbz	r3, 6a2a <tty_set_rx_buf+0x2e>
		api->irq_rx_enable(dev);
    6a28:	4798      	blx	r3
	}

	return 0;
}
    6a2a:	2000      	movs	r0, #0
    6a2c:	bd70      	pop	{r4, r5, r6, pc}

00006a2e <tty_set_tx_buf>:

int tty_set_tx_buf(struct tty_serial *tty, void *buf, size_t size)
{
    6a2e:	b570      	push	{r4, r5, r6, lr}
    6a30:	4604      	mov	r4, r0
    6a32:	460e      	mov	r6, r1
    6a34:	4615      	mov	r5, r2
	uart_irq_tx_disable(tty->uart_dev);
    6a36:	6800      	ldr	r0, [r0, #0]
	z_impl_uart_irq_tx_disable(dev);
    6a38:	f7ff fe78 	bl	672c <z_impl_uart_irq_tx_disable>

	tty->tx_ringbuf = buf;
	tty->tx_ringbuf_sz = size;
    6a3c:	e9c4 650d 	strd	r6, r5, [r4, #52]	; 0x34
    6a40:	f04f 32ff 	mov.w	r2, #4294967295
    6a44:	18a9      	adds	r1, r5, r2
    6a46:	f104 0024 	add.w	r0, r4, #36	; 0x24
    6a4a:	f000 fd04 	bl	7456 <z_impl_k_sem_init>
	/* New buffer is initially empty, no need to re-enable interrupts,
	 * it will be done when needed (on first output char).
	 */

	return 0;
}
    6a4e:	2000      	movs	r0, #0
    6a50:	bd70      	pop	{r4, r5, r6, pc}

00006a52 <z_arm_fatal_error>:
{

	if (esf != NULL) {
		esf_dump(esf);
	}
	z_fatal_error(reason, esf);
    6a52:	f000 bbc5 	b.w	71e0 <z_fatal_error>

00006a56 <z_do_kernel_oops>:
 *   fault handler will executed insted of the SVC.
 *
 * @param esf exception frame
 */
void z_do_kernel_oops(const z_arch_esf_t *esf)
{
    6a56:	4601      	mov	r1, r0
	z_fatal_error(reason, esf);
    6a58:	6800      	ldr	r0, [r0, #0]
    6a5a:	f000 bbc1 	b.w	71e0 <z_fatal_error>

00006a5e <z_irq_spurious>:
 */
void z_irq_spurious(const void *unused)
{
	ARG_UNUSED(unused);

	z_arm_fatal_error(K_ERR_SPURIOUS_IRQ, NULL);
    6a5e:	2100      	movs	r1, #0
    6a60:	2001      	movs	r0, #1
    6a62:	f7ff bff6 	b.w	6a52 <z_arm_fatal_error>

00006a66 <z_arm_nmi>:
 *
 * @return N/A
 */

void z_arm_nmi(void)
{
    6a66:	b508      	push	{r3, lr}
	handler();
    6a68:	f7fb fdc0 	bl	25ec <z_SysNmiOnReset>
	z_arm_int_exit();
}
    6a6c:	e8bd 4008 	ldmia.w	sp!, {r3, lr}
	z_arm_int_exit();
    6a70:	f7fb beb2 	b.w	27d8 <z_arm_exc_exit>

00006a74 <_stdout_hook_default>:
}
    6a74:	f04f 30ff 	mov.w	r0, #4294967295
    6a78:	4770      	bx	lr

00006a7a <fputc>:
		/* coverity[OVERRUN] */
		return (int) arch_syscall_invoke2(*(uintptr_t *)&c, *(uintptr_t *)&stream, K_SYSCALL_ZEPHYR_FPUTC);
	}
#endif
	compiler_barrier();
	return z_impl_zephyr_fputc(c, stream);
    6a7a:	f7fc b915 	b.w	2ca8 <z_impl_zephyr_fputc>

00006a7e <strlen>:
 *
 * @return number of bytes in string <s>
 */

size_t strlen(const char *s)
{
    6a7e:	4603      	mov	r3, r0
	size_t n = 0;
    6a80:	2000      	movs	r0, #0

	while (*s != '\0') {
    6a82:	5c1a      	ldrb	r2, [r3, r0]
    6a84:	b902      	cbnz	r2, 6a88 <strlen+0xa>
		s++;
		n++;
	}

	return n;
}
    6a86:	4770      	bx	lr
		n++;
    6a88:	3001      	adds	r0, #1
    6a8a:	e7fa      	b.n	6a82 <strlen+0x4>

00006a8c <strnlen>:
 *
 * @return number of bytes in fixed-size string <s>
 */

size_t strnlen(const char *s, size_t maxlen)
{
    6a8c:	4603      	mov	r3, r0
	size_t n = 0;
    6a8e:	2000      	movs	r0, #0

	while (*s != '\0' && n < maxlen) {
    6a90:	5c1a      	ldrb	r2, [r3, r0]
    6a92:	b10a      	cbz	r2, 6a98 <strnlen+0xc>
    6a94:	4288      	cmp	r0, r1
    6a96:	d100      	bne.n	6a9a <strnlen+0xe>
		s++;
		n++;
	}

	return n;
}
    6a98:	4770      	bx	lr
		n++;
    6a9a:	3001      	adds	r0, #1
    6a9c:	e7f8      	b.n	6a90 <strnlen+0x4>

00006a9e <strcmp>:
 * @return negative # if <s1> < <s2>, 0 if <s1> == <s2>, else positive #
 */

int strcmp(const char *s1, const char *s2)
{
	while ((*s1 == *s2) && (*s1 != '\0')) {
    6a9e:	1e43      	subs	r3, r0, #1
    6aa0:	3901      	subs	r1, #1
    6aa2:	f813 2f01 	ldrb.w	r2, [r3, #1]!
    6aa6:	f811 0f01 	ldrb.w	r0, [r1, #1]!
    6aaa:	4282      	cmp	r2, r0
    6aac:	d101      	bne.n	6ab2 <strcmp+0x14>
    6aae:	2a00      	cmp	r2, #0
    6ab0:	d1f7      	bne.n	6aa2 <strcmp+0x4>
		s1++;
		s2++;
	}

	return *s1 - *s2;
}
    6ab2:	1a10      	subs	r0, r2, r0
    6ab4:	4770      	bx	lr

00006ab6 <memcpy>:
 *
 * @return pointer to start of destination buffer
 */

void *memcpy(void *ZRESTRICT d, const void *ZRESTRICT s, size_t n)
{
    6ab6:	b510      	push	{r4, lr}
    6ab8:	1e43      	subs	r3, r0, #1
    6aba:	440a      	add	r2, r1
	}
#endif

	/* do byte-sized copying until finished */

	while (n > 0) {
    6abc:	4291      	cmp	r1, r2
    6abe:	d100      	bne.n	6ac2 <memcpy+0xc>
		*(d_byte++) = *(s_byte++);
		n--;
	}

	return d;
}
    6ac0:	bd10      	pop	{r4, pc}
		*(d_byte++) = *(s_byte++);
    6ac2:	f811 4b01 	ldrb.w	r4, [r1], #1
    6ac6:	f803 4f01 	strb.w	r4, [r3, #1]!
		n--;
    6aca:	e7f7      	b.n	6abc <memcpy+0x6>

00006acc <memset>:
void *memset(void *buf, int c, size_t n)
{
	/* do byte-sized initialization until word-aligned or finished */

	unsigned char *d_byte = (unsigned char *)buf;
	unsigned char c_byte = (unsigned char)c;
    6acc:	b2c9      	uxtb	r1, r1
	/* do byte-sized initialization until finished */

	d_byte = (unsigned char *)d_word;
#endif

	while (n > 0) {
    6ace:	4402      	add	r2, r0
	unsigned char *d_byte = (unsigned char *)buf;
    6ad0:	4603      	mov	r3, r0
	while (n > 0) {
    6ad2:	4293      	cmp	r3, r2
    6ad4:	d100      	bne.n	6ad8 <memset+0xc>
		*(d_byte++) = c_byte;
		n--;
	}

	return buf;
}
    6ad6:	4770      	bx	lr
		*(d_byte++) = c_byte;
    6ad8:	f803 1b01 	strb.w	r1, [r3], #1
		n--;
    6adc:	e7f9      	b.n	6ad2 <memset+0x6>

00006ade <pm_power_state_set>:
#include <logging/log.h>
LOG_MODULE_DECLARE(soc, CONFIG_SOC_LOG_LEVEL);

/* Invoke Low Power/System Off specific Tasks */
__weak void pm_power_state_set(struct pm_state_info info)
{
    6ade:	b084      	sub	sp, #16
    6ae0:	ab04      	add	r3, sp, #16
    6ae2:	e903 0007 	stmdb	r3, {r0, r1, r2}
	switch (info.state) {
    6ae6:	f89d 3004 	ldrb.w	r3, [sp, #4]
    6aea:	2b06      	cmp	r3, #6
    6aec:	d108      	bne.n	6b00 <pm_power_state_set+0x22>
    p_reg->SYSTEMOFF = POWER_SYSTEMOFF_SYSTEMOFF_Enter;
    6aee:	f04f 4380 	mov.w	r3, #1073741824	; 0x40000000
    6af2:	2201      	movs	r2, #1
    6af4:	f8c3 2500 	str.w	r2, [r3, #1280]	; 0x500
  __ASM volatile ("dsb 0xF":::"memory");
    6af8:	f3bf 8f4f 	dsb	sy
        __WFE();
    6afc:	bf20      	wfe
    while (true)
    6afe:	e7fd      	b.n	6afc <pm_power_state_set+0x1e>
		break;
	default:
		LOG_DBG("Unsupported power state %u", info.state);
		break;
	}
}
    6b00:	b004      	add	sp, #16
    6b02:	4770      	bx	lr

00006b04 <pm_power_state_exit_post_ops>:

/* Handle SOC specific activity after Low Power Mode Exit */
__weak void pm_power_state_exit_post_ops(struct pm_state_info info)
{
    6b04:	b084      	sub	sp, #16
    6b06:	ab04      	add	r3, sp, #16
    6b08:	e903 0007 	stmdb	r3, {r0, r1, r2}
    6b0c:	2300      	movs	r3, #0
    6b0e:	f383 8811 	msr	BASEPRI, r3
    6b12:	f3bf 8f6f 	isb	sy
	/*
	 * System is now in active mode. Reenable interrupts which were disabled
	 * when OS started idling code.
	 */
	irq_unlock(0);
}
    6b16:	b004      	add	sp, #16
    6b18:	4770      	bx	lr

00006b1a <adc_context_on_timer_expired>:
	return __atomic_fetch_add(target, value, __ATOMIC_SEQ_CST);
    6b1a:	f1a0 0308 	sub.w	r3, r0, #8
    6b1e:	f3bf 8f5b 	dmb	ish
    6b22:	e853 2f00 	ldrex	r2, [r3]
    6b26:	1c51      	adds	r1, r2, #1
    6b28:	e843 1c00 	strex	ip, r1, [r3]
    6b2c:	f1bc 0f00 	cmp.w	ip, #0
    6b30:	d1f7      	bne.n	6b22 <adc_context_on_timer_expired+0x8>
    6b32:	f3bf 8f5b 	dmb	ish
	if (atomic_inc(&ctx->sampling_requested) == 0) {
    6b36:	b91a      	cbnz	r2, 6b40 <adc_context_on_timer_expired+0x26>
		adc_context_start_sampling(ctx);
    6b38:	f890 006e 	ldrb.w	r0, [r0, #110]	; 0x6e
    6b3c:	f7fc b912 	b.w	2d64 <adc_context_start_sampling.isra.0>
		ctx->status = -EBUSY;
    6b40:	f06f 030f 	mvn.w	r3, #15
    6b44:	6583      	str	r3, [r0, #88]	; 0x58
}
    6b46:	4770      	bx	lr

00006b48 <get_status>:
	return GET_STATUS(get_sub_data(dev, type)->flags);
    6b48:	6902      	ldr	r2, [r0, #16]
    6b4a:	b2cb      	uxtb	r3, r1
    6b4c:	210c      	movs	r1, #12
    6b4e:	fb03 2101 	mla	r1, r3, r1, r2
    6b52:	6c08      	ldr	r0, [r1, #64]	; 0x40
}
    6b54:	f000 0007 	and.w	r0, r0, #7
    6b58:	4770      	bx	lr

00006b5a <set_off_state>:
	__asm__ volatile(
    6b5a:	f04f 0320 	mov.w	r3, #32
    6b5e:	f3ef 8211 	mrs	r2, BASEPRI
    6b62:	f383 8812 	msr	BASEPRI_MAX, r3
    6b66:	f3bf 8f6f 	isb	sy
	uint32_t current_ctx = GET_CTX(*flags);
    6b6a:	6803      	ldr	r3, [r0, #0]
	if ((current_ctx != 0) && (current_ctx != ctx)) {
    6b6c:	f013 03c0 	ands.w	r3, r3, #192	; 0xc0
    6b70:	d001      	beq.n	6b76 <set_off_state+0x1c>
    6b72:	428b      	cmp	r3, r1
    6b74:	d107      	bne.n	6b86 <set_off_state+0x2c>
		*flags = CLOCK_CONTROL_STATUS_OFF;
    6b76:	2301      	movs	r3, #1
    6b78:	6003      	str	r3, [r0, #0]
	int err = 0;
    6b7a:	2000      	movs	r0, #0
	__asm__ volatile(
    6b7c:	f382 8811 	msr	BASEPRI, r2
    6b80:	f3bf 8f6f 	isb	sy
}
    6b84:	4770      	bx	lr
		err = -EPERM;
    6b86:	f04f 30ff 	mov.w	r0, #4294967295
    6b8a:	e7f7      	b.n	6b7c <set_off_state+0x22>

00006b8c <set_starting_state>:
{
    6b8c:	b510      	push	{r4, lr}
	__asm__ volatile(
    6b8e:	f04f 0320 	mov.w	r3, #32
    6b92:	f3ef 8211 	mrs	r2, BASEPRI
    6b96:	f383 8812 	msr	BASEPRI_MAX, r3
    6b9a:	f3bf 8f6f 	isb	sy
	uint32_t current_ctx = GET_CTX(*flags);
    6b9e:	6803      	ldr	r3, [r0, #0]
	if ((*flags & (STATUS_MASK)) == CLOCK_CONTROL_STATUS_OFF) {
    6ba0:	f003 0407 	and.w	r4, r3, #7
    6ba4:	2c01      	cmp	r4, #1
    6ba6:	d106      	bne.n	6bb6 <set_starting_state+0x2a>
		*flags = CLOCK_CONTROL_STATUS_STARTING | ctx;
    6ba8:	6001      	str	r1, [r0, #0]
	int err = 0;
    6baa:	2000      	movs	r0, #0
	__asm__ volatile(
    6bac:	f382 8811 	msr	BASEPRI, r2
    6bb0:	f3bf 8f6f 	isb	sy
}
    6bb4:	bd10      	pop	{r4, pc}
	uint32_t current_ctx = GET_CTX(*flags);
    6bb6:	f003 03c0 	and.w	r3, r3, #192	; 0xc0
	} else if (current_ctx != ctx) {
    6bba:	428b      	cmp	r3, r1
		err = -EALREADY;
    6bbc:	bf14      	ite	ne
    6bbe:	f04f 30ff 	movne.w	r0, #4294967295
    6bc2:	f06f 0077 	mvneq.w	r0, #119	; 0x77
    6bc6:	e7f1      	b.n	6bac <set_starting_state+0x20>

00006bc8 <set_on_state>:
	__asm__ volatile(
    6bc8:	f04f 0320 	mov.w	r3, #32
    6bcc:	f3ef 8211 	mrs	r2, BASEPRI
    6bd0:	f383 8812 	msr	BASEPRI_MAX, r3
    6bd4:	f3bf 8f6f 	isb	sy
	*flags = CLOCK_CONTROL_STATUS_ON | GET_CTX(*flags);
    6bd8:	6803      	ldr	r3, [r0, #0]
    6bda:	f003 03c0 	and.w	r3, r3, #192	; 0xc0
    6bde:	f043 0302 	orr.w	r3, r3, #2
    6be2:	6003      	str	r3, [r0, #0]
	__asm__ volatile(
    6be4:	f382 8811 	msr	BASEPRI, r2
    6be8:	f3bf 8f6f 	isb	sy
}
    6bec:	4770      	bx	lr

00006bee <onoff_started_callback>:
	return &data->mgr[type];
    6bee:	6900      	ldr	r0, [r0, #16]
{
    6bf0:	b410      	push	{r4}
	return &data->mgr[type];
    6bf2:	b2cb      	uxtb	r3, r1
	notify(mgr, 0);
    6bf4:	241c      	movs	r4, #28
    6bf6:	fb03 0004 	mla	r0, r3, r4, r0
    6bfa:	2100      	movs	r1, #0
}
    6bfc:	bc10      	pop	{r4}
	notify(mgr, 0);
    6bfe:	4710      	bx	r2

00006c00 <lfclk_start>:
    nrfx_clock_start(NRF_CLOCK_DOMAIN_LFCLK);
    6c00:	2000      	movs	r0, #0
    6c02:	f7fd bab1 	b.w	4168 <nrfx_clock_start>

00006c06 <lfclk_stop>:
    nrfx_clock_stop(NRF_CLOCK_DOMAIN_LFCLK);
    6c06:	2000      	movs	r0, #0
    6c08:	f7fd bae0 	b.w	41cc <nrfx_clock_stop>

00006c0c <blocking_start_callback>:
{
    6c0c:	4610      	mov	r0, r2
	z_impl_k_sem_give(sem);
    6c0e:	f7fe be91 	b.w	5934 <z_impl_k_sem_give>

00006c12 <api_stop>:
{
    6c12:	b538      	push	{r3, r4, r5, lr}
    6c14:	b2cc      	uxtb	r4, r1
	err = set_off_state(&subdata->flags, ctx);
    6c16:	230c      	movs	r3, #12
{
    6c18:	4605      	mov	r5, r0
	err = set_off_state(&subdata->flags, ctx);
    6c1a:	4363      	muls	r3, r4
    6c1c:	6900      	ldr	r0, [r0, #16]
    6c1e:	3340      	adds	r3, #64	; 0x40
    6c20:	2180      	movs	r1, #128	; 0x80
    6c22:	4418      	add	r0, r3
    6c24:	f7ff ff99 	bl	6b5a <set_off_state>
	if (err < 0) {
    6c28:	2800      	cmp	r0, #0
    6c2a:	db05      	blt.n	6c38 <api_stop+0x26>
	get_sub_config(dev, type)->stop();
    6c2c:	6869      	ldr	r1, [r5, #4]
    6c2e:	eb01 04c4 	add.w	r4, r1, r4, lsl #3
    6c32:	6863      	ldr	r3, [r4, #4]
    6c34:	4798      	blx	r3
	return 0;
    6c36:	2000      	movs	r0, #0
}
    6c38:	bd38      	pop	{r3, r4, r5, pc}

00006c3a <api_start>:
{
    6c3a:	e92d 43f8 	stmdb	sp!, {r3, r4, r5, r6, r7, r8, r9, lr}
    6c3e:	b2cd      	uxtb	r5, r1
	err = set_starting_state(&subdata->flags, ctx);
    6c40:	270c      	movs	r7, #12
	struct nrf_clock_control_sub_data *subdata = get_sub_data(dev, type);
    6c42:	6904      	ldr	r4, [r0, #16]
	err = set_starting_state(&subdata->flags, ctx);
    6c44:	436f      	muls	r7, r5
{
    6c46:	4606      	mov	r6, r0
	err = set_starting_state(&subdata->flags, ctx);
    6c48:	f107 0040 	add.w	r0, r7, #64	; 0x40
    6c4c:	2180      	movs	r1, #128	; 0x80
    6c4e:	4420      	add	r0, r4
{
    6c50:	4690      	mov	r8, r2
    6c52:	4699      	mov	r9, r3
	err = set_starting_state(&subdata->flags, ctx);
    6c54:	f7ff ff9a 	bl	6b8c <set_starting_state>
	if (err < 0) {
    6c58:	2800      	cmp	r0, #0
    6c5a:	db07      	blt.n	6c6c <api_start+0x32>
	subdata->cb = cb;
    6c5c:	443c      	add	r4, r7
	subdata->user_data = user_data;
    6c5e:	e9c4 890e 	strd	r8, r9, [r4, #56]	; 0x38
	 get_sub_config(dev, type)->start();
    6c62:	6873      	ldr	r3, [r6, #4]
    6c64:	f853 3035 	ldr.w	r3, [r3, r5, lsl #3]
    6c68:	4798      	blx	r3
	return 0;
    6c6a:	2000      	movs	r0, #0
}
    6c6c:	e8bd 83f8 	ldmia.w	sp!, {r3, r4, r5, r6, r7, r8, r9, pc}

00006c70 <uart_poll_out>:
	api->poll_out(dev, out_char);
    6c70:	6883      	ldr	r3, [r0, #8]
    6c72:	685b      	ldr	r3, [r3, #4]
    6c74:	4718      	bx	r3

00006c76 <debug_hook_out_nop>:
}
    6c76:	2000      	movs	r0, #0
    6c78:	4770      	bx	lr

00006c7a <gpio_nrfx_port_get_raw>:
	NRF_GPIO_Type *reg = get_port_cfg(port)->port;
    6c7a:	6843      	ldr	r3, [r0, #4]
    6c7c:	685b      	ldr	r3, [r3, #4]
    return p_reg->IN;
    6c7e:	f8d3 3510 	ldr.w	r3, [r3, #1296]	; 0x510
	*value = nrf_gpio_port_in_read(reg);
    6c82:	600b      	str	r3, [r1, #0]
}
    6c84:	2000      	movs	r0, #0
    6c86:	4770      	bx	lr

00006c88 <gpio_nrfx_port_set_masked_raw>:
	NRF_GPIO_Type *reg = get_port_cfg(port)->port;
    6c88:	6843      	ldr	r3, [r0, #4]
    6c8a:	685b      	ldr	r3, [r3, #4]
    return p_reg->OUT;
    6c8c:	f8d3 0504 	ldr.w	r0, [r3, #1284]	; 0x504
	nrf_gpio_port_out_write(reg, value_tmp | (mask & value));
    6c90:	4042      	eors	r2, r0
    6c92:	400a      	ands	r2, r1
    6c94:	4042      	eors	r2, r0
    p_reg->OUT = value;
    6c96:	f8c3 2504 	str.w	r2, [r3, #1284]	; 0x504
}
    6c9a:	2000      	movs	r0, #0
    6c9c:	4770      	bx	lr

00006c9e <gpio_nrfx_port_set_bits_raw>:
	NRF_GPIO_Type *reg = get_port_cfg(port)->port;
    6c9e:	6843      	ldr	r3, [r0, #4]
    6ca0:	685b      	ldr	r3, [r3, #4]
}
    6ca2:	2000      	movs	r0, #0
    p_reg->OUTSET = set_mask;
    6ca4:	f8c3 1508 	str.w	r1, [r3, #1288]	; 0x508
    6ca8:	4770      	bx	lr

00006caa <gpio_nrfx_port_clear_bits_raw>:
	NRF_GPIO_Type *reg = get_port_cfg(port)->port;
    6caa:	6843      	ldr	r3, [r0, #4]
    6cac:	685b      	ldr	r3, [r3, #4]
}
    6cae:	2000      	movs	r0, #0
    p_reg->OUTCLR = clr_mask;
    6cb0:	f8c3 150c 	str.w	r1, [r3, #1292]	; 0x50c
    6cb4:	4770      	bx	lr

00006cb6 <gpio_nrfx_port_toggle_bits>:
	NRF_GPIO_Type *reg = get_port_cfg(port)->port;
    6cb6:	6843      	ldr	r3, [r0, #4]
    6cb8:	685a      	ldr	r2, [r3, #4]
    return p_reg->OUT;
    6cba:	f8d2 3504 	ldr.w	r3, [r2, #1284]	; 0x504
	nrf_gpio_port_out_write(reg, value ^ mask);
    6cbe:	404b      	eors	r3, r1
    p_reg->OUT = value;
    6cc0:	f8c2 3504 	str.w	r3, [r2, #1284]	; 0x504
}
    6cc4:	2000      	movs	r0, #0
    6cc6:	4770      	bx	lr

00006cc8 <gpio_nrfx_manage_callback>:
	return gpio_manage_callback(&get_port_data(port)->callbacks,
    6cc8:	6903      	ldr	r3, [r0, #16]
Z_GENLIST_IS_EMPTY(slist)
    6cca:	6858      	ldr	r0, [r3, #4]
{
    6ccc:	b530      	push	{r4, r5, lr}
	if (!sys_slist_is_empty(callbacks)) {
    6cce:	b158      	cbz	r0, 6ce8 <gpio_nrfx_manage_callback+0x20>
 */
static inline bool sys_slist_find_and_remove(sys_slist_t *list,
					     sys_snode_t *node);

/** @} */
Z_GENLIST_FIND_AND_REMOVE(slist, snode)
    6cd0:	2400      	movs	r4, #0
    6cd2:	4281      	cmp	r1, r0
    6cd4:	d113      	bne.n	6cfe <gpio_nrfx_manage_callback+0x36>
Z_GENLIST_REMOVE(slist, snode)
    6cd6:	6808      	ldr	r0, [r1, #0]
    6cd8:	b95c      	cbnz	r4, 6cf2 <gpio_nrfx_manage_callback+0x2a>
    6cda:	689c      	ldr	r4, [r3, #8]
	list->head = node;
    6cdc:	6058      	str	r0, [r3, #4]
Z_GENLIST_REMOVE(slist, snode)
    6cde:	42a1      	cmp	r1, r4
    6ce0:	d100      	bne.n	6ce4 <gpio_nrfx_manage_callback+0x1c>
	list->tail = node;
    6ce2:	6098      	str	r0, [r3, #8]
	parent->next = child;
    6ce4:	2000      	movs	r0, #0
    6ce6:	6008      	str	r0, [r1, #0]
	if (set) {
    6ce8:	b972      	cbnz	r2, 6d08 <gpio_nrfx_manage_callback+0x40>
	return 0;
    6cea:	2000      	movs	r0, #0
}
    6cec:	bd30      	pop	{r4, r5, pc}
    6cee:	4628      	mov	r0, r5
    6cf0:	e7ef      	b.n	6cd2 <gpio_nrfx_manage_callback+0xa>
    6cf2:	6020      	str	r0, [r4, #0]
Z_GENLIST_REMOVE(slist, snode)
    6cf4:	6898      	ldr	r0, [r3, #8]
    6cf6:	4281      	cmp	r1, r0
	list->tail = node;
    6cf8:	bf08      	it	eq
    6cfa:	609c      	streq	r4, [r3, #8]
}
    6cfc:	e7f2      	b.n	6ce4 <gpio_nrfx_manage_callback+0x1c>
Z_GENLIST_PEEK_NEXT_NO_CHECK(slist, snode)
    6cfe:	6805      	ldr	r5, [r0, #0]
Z_GENLIST_FIND_AND_REMOVE(slist, snode)
    6d00:	4604      	mov	r4, r0
    6d02:	2d00      	cmp	r5, #0
    6d04:	d1f3      	bne.n	6cee <gpio_nrfx_manage_callback+0x26>
			if (!set) {
    6d06:	b13a      	cbz	r2, 6d18 <gpio_nrfx_manage_callback+0x50>
Z_GENLIST_PREPEND(slist, snode)
    6d08:	685a      	ldr	r2, [r3, #4]
	parent->next = child;
    6d0a:	600a      	str	r2, [r1, #0]
Z_GENLIST_PREPEND(slist, snode)
    6d0c:	6898      	ldr	r0, [r3, #8]
	list->head = node;
    6d0e:	6059      	str	r1, [r3, #4]
Z_GENLIST_PREPEND(slist, snode)
    6d10:	2800      	cmp	r0, #0
    6d12:	d1ea      	bne.n	6cea <gpio_nrfx_manage_callback+0x22>
	list->tail = node;
    6d14:	6099      	str	r1, [r3, #8]
}
    6d16:	e7e9      	b.n	6cec <gpio_nrfx_manage_callback+0x24>
				return -EINVAL;
    6d18:	f06f 0015 	mvn.w	r0, #21
	return gpio_manage_callback(&get_port_data(port)->callbacks,
    6d1c:	e7e6      	b.n	6cec <gpio_nrfx_manage_callback+0x24>

00006d1e <any_other_channel_is_active>:
{
    6d1e:	b530      	push	{r4, r5, lr}
    6d20:	2300      	movs	r3, #0
		data->current[channel] & PWM_NRFX_CH_PULSE_CYCLES_MASK;
    6d22:	1d0c      	adds	r4, r1, #4
		if (i != channel && pwm_channel_is_active(i, data)) {
    6d24:	b2da      	uxtb	r2, r3
    6d26:	4282      	cmp	r2, r0
    6d28:	d007      	beq.n	6d3a <any_other_channel_is_active+0x1c>
	uint16_t pulse_cycle =
    6d2a:	f834 2013 	ldrh.w	r2, [r4, r3, lsl #1]
    6d2e:	f3c2 020e 	ubfx	r2, r2, #0, #15
	return (pulse_cycle > 0 && pulse_cycle < data->countertop);
    6d32:	b112      	cbz	r2, 6d3a <any_other_channel_is_active+0x1c>
    6d34:	898d      	ldrh	r5, [r1, #12]
    6d36:	4295      	cmp	r5, r2
    6d38:	d804      	bhi.n	6d44 <any_other_channel_is_active+0x26>
	for (i = 0; i < NRF_PWM_CHANNEL_COUNT; ++i) {
    6d3a:	3301      	adds	r3, #1
    6d3c:	2b04      	cmp	r3, #4
    6d3e:	d1f1      	bne.n	6d24 <any_other_channel_is_active+0x6>
	return false;
    6d40:	2000      	movs	r0, #0
}
    6d42:	bd30      	pop	{r4, r5, pc}
			return true;
    6d44:	2001      	movs	r0, #1
    6d46:	e7fc      	b.n	6d42 <any_other_channel_is_active+0x24>

00006d48 <uarte_nrfx_isr_int>:
	return config->uarte_regs;
    6d48:	6843      	ldr	r3, [r0, #4]
    6d4a:	681b      	ldr	r3, [r3, #0]
    return p_reg->INTENSET & mask;
    6d4c:	f8d3 2304 	ldr.w	r2, [r3, #772]	; 0x304
	if (nrf_uarte_int_enable_check(uarte, NRF_UARTE_INT_ENDTX_MASK) &&
    6d50:	05d1      	lsls	r1, r2, #23
{
    6d52:	b410      	push	{r4}
	if (nrf_uarte_int_enable_check(uarte, NRF_UARTE_INT_ENDTX_MASK) &&
    6d54:	d518      	bpl.n	6d88 <uarte_nrfx_isr_int+0x40>
    return (bool)*(volatile uint32_t *)((uint8_t *)p_reg + (uint32_t)event);
    6d56:	f8d3 2120 	ldr.w	r2, [r3, #288]	; 0x120
    6d5a:	b1aa      	cbz	r2, 6d88 <uarte_nrfx_isr_int+0x40>
	__asm__ volatile(
    6d5c:	f04f 0120 	mov.w	r1, #32
    6d60:	f3ef 8211 	mrs	r2, BASEPRI
    6d64:	f381 8812 	msr	BASEPRI_MAX, r1
    6d68:	f3bf 8f6f 	isb	sy
    6d6c:	f8d3 1120 	ldr.w	r1, [r3, #288]	; 0x120
	if (nrf_uarte_event_check(uarte, NRF_UARTE_EVENT_ENDTX)) {
    6d70:	b131      	cbz	r1, 6d80 <uarte_nrfx_isr_int+0x38>
    *((volatile uint32_t *)((uint8_t *)p_reg + (uint32_t)event)) = 0x0UL;
    6d72:	2100      	movs	r1, #0
    6d74:	f8c3 1120 	str.w	r1, [r3, #288]	; 0x120
    6d78:	f8d3 1120 	ldr.w	r1, [r3, #288]	; 0x120
    *((volatile uint32_t *)((uint8_t *)p_reg + (uint32_t)task)) = 0x1UL;
    6d7c:	2101      	movs	r1, #1
    6d7e:	60d9      	str	r1, [r3, #12]
	__asm__ volatile(
    6d80:	f382 8811 	msr	BASEPRI, r2
    6d84:	f3bf 8f6f 	isb	sy
	if (get_dev_config(dev)->flags & UARTE_CFG_FLAG_LOW_POWER) {
    6d88:	6842      	ldr	r2, [r0, #4]
    6d8a:	6852      	ldr	r2, [r2, #4]
    6d8c:	06d2      	lsls	r2, r2, #27
    6d8e:	d51a      	bpl.n	6dc6 <uarte_nrfx_isr_int+0x7e>
	__asm__ volatile(
    6d90:	f04f 0220 	mov.w	r2, #32
    6d94:	f3ef 8111 	mrs	r1, BASEPRI
    6d98:	f382 8812 	msr	BASEPRI_MAX, r2
    6d9c:	f3bf 8f6f 	isb	sy
    return (bool)*(volatile uint32_t *)((uint8_t *)p_reg + (uint32_t)event);
    6da0:	f8d3 2158 	ldr.w	r2, [r3, #344]	; 0x158
		if (nrf_uarte_event_check(uarte, NRF_UARTE_EVENT_TXSTOPPED)) {
    6da4:	b112      	cbz	r2, 6dac <uarte_nrfx_isr_int+0x64>
    p_reg->ENABLE = UARTE_ENABLE_ENABLE_Disabled;
    6da6:	2200      	movs	r2, #0
    6da8:	f8c3 2500 	str.w	r2, [r3, #1280]	; 0x500
		if (!data->int_driven || data->int_driven->fifo_fill_lock == 0)
    6dac:	6902      	ldr	r2, [r0, #16]
    6dae:	68d2      	ldr	r2, [r2, #12]
    6db0:	b10a      	cbz	r2, 6db6 <uarte_nrfx_isr_int+0x6e>
    6db2:	6912      	ldr	r2, [r2, #16]
    6db4:	b91a      	cbnz	r2, 6dbe <uarte_nrfx_isr_int+0x76>
    p_reg->INTENCLR = mask;
    6db6:	f44f 0280 	mov.w	r2, #4194304	; 0x400000
    6dba:	f8c3 2308 	str.w	r2, [r3, #776]	; 0x308
	__asm__ volatile(
    6dbe:	f381 8811 	msr	BASEPRI, r1
    6dc2:	f3bf 8f6f 	isb	sy
	if (!data->int_driven) {
    6dc6:	6902      	ldr	r2, [r0, #16]
    6dc8:	68d2      	ldr	r2, [r2, #12]
    6dca:	b15a      	cbz	r2, 6de4 <uarte_nrfx_isr_int+0x9c>
    return (bool)*(volatile uint32_t *)((uint8_t *)p_reg + (uint32_t)event);
    6dcc:	f8d3 1158 	ldr.w	r1, [r3, #344]	; 0x158
	if (nrf_uarte_event_check(uarte, NRF_UARTE_EVENT_TXSTOPPED)) {
    6dd0:	b151      	cbz	r1, 6de8 <uarte_nrfx_isr_int+0xa0>
		if (data->int_driven->disable_tx_irq) {
    6dd2:	7b94      	ldrb	r4, [r2, #14]
		data->int_driven->fifo_fill_lock = 0;
    6dd4:	2100      	movs	r1, #0
    6dd6:	6111      	str	r1, [r2, #16]
		if (data->int_driven->disable_tx_irq) {
    6dd8:	b134      	cbz	r4, 6de8 <uarte_nrfx_isr_int+0xa0>
    p_reg->INTENCLR = mask;
    6dda:	f44f 0080 	mov.w	r0, #4194304	; 0x400000
    6dde:	f8c3 0308 	str.w	r0, [r3, #776]	; 0x308
			data->int_driven->disable_tx_irq = false;
    6de2:	7391      	strb	r1, [r2, #14]
}
    6de4:	bc10      	pop	{r4}
    6de6:	4770      	bx	lr
    return (bool)*(volatile uint32_t *)((uint8_t *)p_reg + (uint32_t)event);
    6de8:	f8d3 1124 	ldr.w	r1, [r3, #292]	; 0x124
	if (nrf_uarte_event_check(uarte, NRF_UARTE_EVENT_ERROR)) {
    6dec:	b121      	cbz	r1, 6df8 <uarte_nrfx_isr_int+0xb0>
    *((volatile uint32_t *)((uint8_t *)p_reg + (uint32_t)event)) = 0x0UL;
    6dee:	2100      	movs	r1, #0
    6df0:	f8c3 1124 	str.w	r1, [r3, #292]	; 0x124
    6df4:	f8d3 3124 	ldr.w	r3, [r3, #292]	; 0x124
	if (data->int_driven->cb) {
    6df8:	6813      	ldr	r3, [r2, #0]
    6dfa:	2b00      	cmp	r3, #0
    6dfc:	d0f2      	beq.n	6de4 <uarte_nrfx_isr_int+0x9c>
		data->int_driven->cb(dev, data->int_driven->cb_data);
    6dfe:	6851      	ldr	r1, [r2, #4]
}
    6e00:	bc10      	pop	{r4}
		data->int_driven->cb(dev, data->int_driven->cb_data);
    6e02:	4718      	bx	r3

00006e04 <uarte_nrfx_config_get>:
	*cfg = get_dev_data(dev)->uart_config;
    6e04:	6902      	ldr	r2, [r0, #16]
{
    6e06:	460b      	mov	r3, r1
	*cfg = get_dev_data(dev)->uart_config;
    6e08:	e9d2 0101 	ldrd	r0, r1, [r2, #4]
    6e0c:	e883 0003 	stmia.w	r3, {r0, r1}
}
    6e10:	2000      	movs	r0, #0
    6e12:	4770      	bx	lr

00006e14 <uarte_nrfx_err_check>:
	return config->uarte_regs;
    6e14:	6843      	ldr	r3, [r0, #4]
    6e16:	681b      	ldr	r3, [r3, #0]
    uint32_t errsrc_mask = p_reg->ERRORSRC;
    6e18:	f8d3 0480 	ldr.w	r0, [r3, #1152]	; 0x480
    p_reg->ERRORSRC = errsrc_mask;
    6e1c:	f8c3 0480 	str.w	r0, [r3, #1152]	; 0x480
}
    6e20:	4770      	bx	lr

00006e22 <is_tx_ready>:
	const struct uarte_nrfx_config *config = get_dev_config(dev);
    6e22:	6842      	ldr	r2, [r0, #4]
	return config->uarte_regs;
    6e24:	6813      	ldr	r3, [r2, #0]
    return (bool)*(volatile uint32_t *)((uint8_t *)p_reg + (uint32_t)event);
    6e26:	f8d3 0158 	ldr.w	r0, [r3, #344]	; 0x158
	return nrf_uarte_event_check(uarte, NRF_UARTE_EVENT_TXSTOPPED) ||
    6e2a:	b940      	cbnz	r0, 6e3e <is_tx_ready+0x1c>
	bool ppi_endtx = get_dev_config(dev)->flags & UARTE_CFG_FLAG_PPI_ENDTX;
    6e2c:	6852      	ldr	r2, [r2, #4]
	return nrf_uarte_event_check(uarte, NRF_UARTE_EVENT_TXSTOPPED) ||
    6e2e:	0792      	lsls	r2, r2, #30
    6e30:	d406      	bmi.n	6e40 <is_tx_ready+0x1e>
    6e32:	f8d3 0120 	ldr.w	r0, [r3, #288]	; 0x120
    6e36:	3800      	subs	r0, #0
    6e38:	bf18      	it	ne
    6e3a:	2001      	movne	r0, #1
    6e3c:	4770      	bx	lr
    6e3e:	2001      	movs	r0, #1
}
    6e40:	4770      	bx	lr

00006e42 <uarte_nrfx_poll_in>:
	return config->uarte_regs;
    6e42:	6843      	ldr	r3, [r0, #4]
	const struct uarte_nrfx_data *data = get_dev_data(dev);
    6e44:	6902      	ldr	r2, [r0, #16]
	return config->uarte_regs;
    6e46:	681b      	ldr	r3, [r3, #0]
    6e48:	f8d3 0110 	ldr.w	r0, [r3, #272]	; 0x110
	if (!nrf_uarte_event_check(uarte, NRF_UARTE_EVENT_ENDRX)) {
    6e4c:	b148      	cbz	r0, 6e62 <uarte_nrfx_poll_in+0x20>
	*c = data->rx_data;
    6e4e:	7d52      	ldrb	r2, [r2, #21]
    6e50:	700a      	strb	r2, [r1, #0]
    *((volatile uint32_t *)((uint8_t *)p_reg + (uint32_t)event)) = 0x0UL;
    6e52:	2000      	movs	r0, #0
    6e54:	f8c3 0110 	str.w	r0, [r3, #272]	; 0x110
    6e58:	f8d3 2110 	ldr.w	r2, [r3, #272]	; 0x110
    *((volatile uint32_t *)((uint8_t *)p_reg + (uint32_t)task)) = 0x1UL;
    6e5c:	2201      	movs	r2, #1
    6e5e:	601a      	str	r2, [r3, #0]
	return 0;
    6e60:	4770      	bx	lr
		return -1;
    6e62:	f04f 30ff 	mov.w	r0, #4294967295
}
    6e66:	4770      	bx	lr

00006e68 <uarte_nrfx_fifo_read>:
	if (size > 0 && nrf_uarte_event_check(uarte, NRF_UARTE_EVENT_ENDRX)) {
    6e68:	2a00      	cmp	r2, #0
{
    6e6a:	b510      	push	{r4, lr}
    6e6c:	4604      	mov	r4, r0
	if (size > 0 && nrf_uarte_event_check(uarte, NRF_UARTE_EVENT_ENDRX)) {
    6e6e:	dd0f      	ble.n	6e90 <uarte_nrfx_fifo_read+0x28>
	return config->uarte_regs;
    6e70:	6843      	ldr	r3, [r0, #4]
    6e72:	681b      	ldr	r3, [r3, #0]
    return (bool)*(volatile uint32_t *)((uint8_t *)p_reg + (uint32_t)event);
    6e74:	f8d3 0110 	ldr.w	r0, [r3, #272]	; 0x110
	if (size > 0 && nrf_uarte_event_check(uarte, NRF_UARTE_EVENT_ENDRX)) {
    6e78:	b148      	cbz	r0, 6e8e <uarte_nrfx_fifo_read+0x26>
	const struct uarte_nrfx_data *data = get_dev_data(dev);
    6e7a:	6922      	ldr	r2, [r4, #16]
    *((volatile uint32_t *)((uint8_t *)p_reg + (uint32_t)event)) = 0x0UL;
    6e7c:	2000      	movs	r0, #0
    6e7e:	f8c3 0110 	str.w	r0, [r3, #272]	; 0x110
    6e82:	f8d3 0110 	ldr.w	r0, [r3, #272]	; 0x110
		rx_data[num_rx++] = (uint8_t)data->rx_data;
    6e86:	7d52      	ldrb	r2, [r2, #21]
    6e88:	700a      	strb	r2, [r1, #0]
    *((volatile uint32_t *)((uint8_t *)p_reg + (uint32_t)task)) = 0x1UL;
    6e8a:	2001      	movs	r0, #1
    6e8c:	6018      	str	r0, [r3, #0]
}
    6e8e:	bd10      	pop	{r4, pc}
	int num_rx = 0;
    6e90:	2000      	movs	r0, #0
    6e92:	e7fc      	b.n	6e8e <uarte_nrfx_fifo_read+0x26>

00006e94 <uarte_nrfx_irq_tx_enable>:
	return config->uarte_regs;
    6e94:	6843      	ldr	r3, [r0, #4]
	struct uarte_nrfx_data *data = get_dev_data(dev);
    6e96:	6901      	ldr	r1, [r0, #16]
	return config->uarte_regs;
    6e98:	681a      	ldr	r2, [r3, #0]
	__asm__ volatile(
    6e9a:	f04f 0020 	mov.w	r0, #32
    6e9e:	f3ef 8311 	mrs	r3, BASEPRI
    6ea2:	f380 8812 	msr	BASEPRI_MAX, r0
    6ea6:	f3bf 8f6f 	isb	sy
	data->int_driven->disable_tx_irq = false;
    6eaa:	68c9      	ldr	r1, [r1, #12]
    6eac:	2000      	movs	r0, #0
    6eae:	7388      	strb	r0, [r1, #14]
    p_reg->INTENSET = mask;
    6eb0:	f44f 0180 	mov.w	r1, #4194304	; 0x400000
    6eb4:	f8c2 1304 	str.w	r1, [r2, #772]	; 0x304
	__asm__ volatile(
    6eb8:	f383 8811 	msr	BASEPRI, r3
    6ebc:	f3bf 8f6f 	isb	sy
}
    6ec0:	4770      	bx	lr

00006ec2 <uarte_nrfx_irq_tx_disable>:
	data->int_driven->disable_tx_irq = true;
    6ec2:	6903      	ldr	r3, [r0, #16]
    6ec4:	68db      	ldr	r3, [r3, #12]
    6ec6:	2201      	movs	r2, #1
    6ec8:	739a      	strb	r2, [r3, #14]
}
    6eca:	4770      	bx	lr

00006ecc <uarte_nrfx_irq_tx_ready_complete>:
	bool ready = !data->int_driven->disable_tx_irq &&
    6ecc:	6903      	ldr	r3, [r0, #16]
    6ece:	68db      	ldr	r3, [r3, #12]
    6ed0:	7b9a      	ldrb	r2, [r3, #14]
		     nrf_uarte_event_check(uarte, NRF_UARTE_EVENT_TXSTOPPED) &&
    6ed2:	f002 01ff 	and.w	r1, r2, #255	; 0xff
    6ed6:	b962      	cbnz	r2, 6ef2 <uarte_nrfx_irq_tx_ready_complete+0x26>
	return config->uarte_regs;
    6ed8:	6842      	ldr	r2, [r0, #4]
    6eda:	6812      	ldr	r2, [r2, #0]
    return (bool)*(volatile uint32_t *)((uint8_t *)p_reg + (uint32_t)event);
    6edc:	f8d2 0158 	ldr.w	r0, [r2, #344]	; 0x158
	bool ready = !data->int_driven->disable_tx_irq &&
    6ee0:	b140      	cbz	r0, 6ef4 <uarte_nrfx_irq_tx_ready_complete+0x28>
    return p_reg->INTENSET & mask;
    6ee2:	f8d2 0304 	ldr.w	r0, [r2, #772]	; 0x304
	if (ready) {
    6ee6:	f410 0080 	ands.w	r0, r0, #4194304	; 0x400000
    6eea:	d003      	beq.n	6ef4 <uarte_nrfx_irq_tx_ready_complete+0x28>
		data->int_driven->fifo_fill_lock = 0;
    6eec:	6119      	str	r1, [r3, #16]
		     nrf_uarte_event_check(uarte, NRF_UARTE_EVENT_TXSTOPPED) &&
    6eee:	2001      	movs	r0, #1
    6ef0:	4770      	bx	lr
    6ef2:	2000      	movs	r0, #0
}
    6ef4:	4770      	bx	lr

00006ef6 <uarte_nrfx_irq_rx_ready>:
	return config->uarte_regs;
    6ef6:	6843      	ldr	r3, [r0, #4]
    6ef8:	681b      	ldr	r3, [r3, #0]
    return (bool)*(volatile uint32_t *)((uint8_t *)p_reg + (uint32_t)event);
    6efa:	f8d3 0110 	ldr.w	r0, [r3, #272]	; 0x110
}
    6efe:	3800      	subs	r0, #0
    6f00:	bf18      	it	ne
    6f02:	2001      	movne	r0, #1
    6f04:	4770      	bx	lr

00006f06 <uarte_nrfx_irq_rx_enable>:
	return config->uarte_regs;
    6f06:	6843      	ldr	r3, [r0, #4]
    6f08:	681b      	ldr	r3, [r3, #0]
    p_reg->INTENSET = mask;
    6f0a:	2210      	movs	r2, #16
    6f0c:	f8c3 2304 	str.w	r2, [r3, #772]	; 0x304
}
    6f10:	4770      	bx	lr

00006f12 <uarte_nrfx_irq_rx_disable>:
	return config->uarte_regs;
    6f12:	6843      	ldr	r3, [r0, #4]
    6f14:	681b      	ldr	r3, [r3, #0]
    p_reg->INTENCLR = mask;
    6f16:	2210      	movs	r2, #16
    6f18:	f8c3 2308 	str.w	r2, [r3, #776]	; 0x308
}
    6f1c:	4770      	bx	lr

00006f1e <uarte_nrfx_irq_err_enable>:
	return config->uarte_regs;
    6f1e:	6843      	ldr	r3, [r0, #4]
    6f20:	681b      	ldr	r3, [r3, #0]
    p_reg->INTENSET = mask;
    6f22:	f44f 7200 	mov.w	r2, #512	; 0x200
    6f26:	f8c3 2304 	str.w	r2, [r3, #772]	; 0x304
}
    6f2a:	4770      	bx	lr

00006f2c <uarte_nrfx_irq_err_disable>:
	return config->uarte_regs;
    6f2c:	6843      	ldr	r3, [r0, #4]
    6f2e:	681b      	ldr	r3, [r3, #0]
    p_reg->INTENCLR = mask;
    6f30:	f44f 7200 	mov.w	r2, #512	; 0x200
    6f34:	f8c3 2308 	str.w	r2, [r3, #776]	; 0x308
}
    6f38:	4770      	bx	lr

00006f3a <uarte_nrfx_irq_update>:
}
    6f3a:	2001      	movs	r0, #1
    6f3c:	4770      	bx	lr

00006f3e <uarte_nrfx_irq_callback_set>:
	data->int_driven->cb = cb;
    6f3e:	6903      	ldr	r3, [r0, #16]
    6f40:	68db      	ldr	r3, [r3, #12]
	data->int_driven->cb_data = cb_data;
    6f42:	e9c3 1200 	strd	r1, r2, [r3]
}
    6f46:	4770      	bx	lr

00006f48 <tx_start>:
	const struct uarte_nrfx_config *config = get_dev_config(dev);
    6f48:	6840      	ldr	r0, [r0, #4]
	return config->uarte_regs;
    6f4a:	6803      	ldr	r3, [r0, #0]
    p_reg->TXD.PTR    = (uint32_t)p_buffer;
    6f4c:	f8c3 1544 	str.w	r1, [r3, #1348]	; 0x544
    p_reg->TXD.MAXCNT = length;
    6f50:	f8c3 2548 	str.w	r2, [r3, #1352]	; 0x548
    *((volatile uint32_t *)((uint8_t *)p_reg + (uint32_t)event)) = 0x0UL;
    6f54:	2200      	movs	r2, #0
    6f56:	f8c3 2120 	str.w	r2, [r3, #288]	; 0x120
    6f5a:	f8d3 1120 	ldr.w	r1, [r3, #288]	; 0x120
    6f5e:	f8c3 2158 	str.w	r2, [r3, #344]	; 0x158
    6f62:	f8d3 2158 	ldr.w	r2, [r3, #344]	; 0x158
	if (get_dev_config(dev)->flags & UARTE_CFG_FLAG_LOW_POWER) {
    6f66:	6842      	ldr	r2, [r0, #4]
    6f68:	06d2      	lsls	r2, r2, #27
    p_reg->ENABLE = UARTE_ENABLE_ENABLE_Enabled;
    6f6a:	bf41      	itttt	mi
    6f6c:	2208      	movmi	r2, #8
    6f6e:	f8c3 2500 	strmi.w	r2, [r3, #1280]	; 0x500
    p_reg->INTENSET = mask;
    6f72:	f44f 0280 	movmi.w	r2, #4194304	; 0x400000
    6f76:	f8c3 2304 	strmi.w	r2, [r3, #772]	; 0x304
    *((volatile uint32_t *)((uint8_t *)p_reg + (uint32_t)task)) = 0x1UL;
    6f7a:	2201      	movs	r2, #1
    6f7c:	609a      	str	r2, [r3, #8]
}
    6f7e:	4770      	bx	lr

00006f80 <uarte_nrfx_fifo_fill>:
{
    6f80:	b5f8      	push	{r3, r4, r5, r6, r7, lr}
	struct uarte_nrfx_data *data = get_dev_data(dev);
    6f82:	6906      	ldr	r6, [r0, #16]
	len = MIN(len, data->int_driven->tx_buff_size);
    6f84:	68f3      	ldr	r3, [r6, #12]
    6f86:	899c      	ldrh	r4, [r3, #12]
	return __atomic_compare_exchange_n(target, &old_value, new_value,
    6f88:	f3bf 8f5b 	dmb	ish
    6f8c:	4294      	cmp	r4, r2
    6f8e:	bfa8      	it	ge
    6f90:	4614      	movge	r4, r2
{
    6f92:	4605      	mov	r5, r0
    6f94:	3310      	adds	r3, #16
    6f96:	2201      	movs	r2, #1
    6f98:	e853 0f00 	ldrex	r0, [r3]
    6f9c:	2800      	cmp	r0, #0
    6f9e:	d103      	bne.n	6fa8 <uarte_nrfx_fifo_fill+0x28>
    6fa0:	e843 2700 	strex	r7, r2, [r3]
    6fa4:	2f00      	cmp	r7, #0
    6fa6:	d1f7      	bne.n	6f98 <uarte_nrfx_fifo_fill+0x18>
    6fa8:	f3bf 8f5b 	dmb	ish
    6fac:	bf0c      	ite	eq
    6fae:	4613      	moveq	r3, r2
    6fb0:	2300      	movne	r3, #0
	if (!atomic_cas(&data->int_driven->fifo_fill_lock, 0, 1)) {
    6fb2:	d01d      	beq.n	6ff0 <uarte_nrfx_fifo_fill+0x70>
		return 0;
    6fb4:	461c      	mov	r4, r3
}
    6fb6:	4620      	mov	r0, r4
    6fb8:	bdf8      	pop	{r3, r4, r5, r6, r7, pc}
		data->int_driven->tx_buffer[i] = tx_data[i];
    6fba:	68f2      	ldr	r2, [r6, #12]
    6fbc:	5cc8      	ldrb	r0, [r1, r3]
    6fbe:	6892      	ldr	r2, [r2, #8]
    6fc0:	54d0      	strb	r0, [r2, r3]
	for (int i = 0; i < len; i++) {
    6fc2:	3301      	adds	r3, #1
    6fc4:	42a3      	cmp	r3, r4
    6fc6:	dbf8      	blt.n	6fba <uarte_nrfx_fifo_fill+0x3a>
	__asm__ volatile(
    6fc8:	f04f 0320 	mov.w	r3, #32
    6fcc:	f3ef 8711 	mrs	r7, BASEPRI
    6fd0:	f383 8812 	msr	BASEPRI_MAX, r3
    6fd4:	f3bf 8f6f 	isb	sy
	if (!is_tx_ready(dev)) {
    6fd8:	4628      	mov	r0, r5
    6fda:	f7ff ff22 	bl	6e22 <is_tx_ready>
    6fde:	68f3      	ldr	r3, [r6, #12]
    6fe0:	b940      	cbnz	r0, 6ff4 <uarte_nrfx_fifo_fill+0x74>
		data->int_driven->fifo_fill_lock = 0;
    6fe2:	6118      	str	r0, [r3, #16]
		len = 0;
    6fe4:	4604      	mov	r4, r0
	__asm__ volatile(
    6fe6:	f387 8811 	msr	BASEPRI, r7
    6fea:	f3bf 8f6f 	isb	sy
	return len;
    6fee:	e7e2      	b.n	6fb6 <uarte_nrfx_fifo_fill+0x36>
	for (int i = 0; i < len; i++) {
    6ff0:	2300      	movs	r3, #0
    6ff2:	e7e7      	b.n	6fc4 <uarte_nrfx_fifo_fill+0x44>
		tx_start(dev, data->int_driven->tx_buffer, len);
    6ff4:	6899      	ldr	r1, [r3, #8]
    6ff6:	4622      	mov	r2, r4
    6ff8:	4628      	mov	r0, r5
    6ffa:	f7ff ffa5 	bl	6f48 <tx_start>
    6ffe:	e7f2      	b.n	6fe6 <uarte_nrfx_fifo_fill+0x66>

00007000 <uarte_nrfx_irq_is_pending>:
{
    7000:	b538      	push	{r3, r4, r5, lr}
	return config->uarte_regs;
    7002:	6843      	ldr	r3, [r0, #4]
    7004:	681d      	ldr	r5, [r3, #0]
    return p_reg->INTENSET & mask;
    7006:	f8d5 3304 	ldr.w	r3, [r5, #772]	; 0x304
		||
    700a:	025b      	lsls	r3, r3, #9
{
    700c:	4604      	mov	r4, r0
		||
    700e:	d405      	bmi.n	701c <uarte_nrfx_irq_is_pending+0x1c>
    7010:	f8d5 0304 	ldr.w	r0, [r5, #772]	; 0x304
    7014:	f010 0010 	ands.w	r0, r0, #16
    7018:	d106      	bne.n	7028 <uarte_nrfx_irq_is_pending+0x28>
}
    701a:	bd38      	pop	{r3, r4, r5, pc}
		 uarte_nrfx_irq_tx_ready_complete(dev))
    701c:	f7ff ff56 	bl	6ecc <uarte_nrfx_irq_tx_ready_complete>
					    NRF_UARTE_INT_TXSTOPPED_MASK) &&
    7020:	2800      	cmp	r0, #0
    7022:	d0f5      	beq.n	7010 <uarte_nrfx_irq_is_pending+0x10>
		||
    7024:	2001      	movs	r0, #1
    7026:	e7f8      	b.n	701a <uarte_nrfx_irq_is_pending+0x1a>
		 uarte_nrfx_irq_rx_ready(dev)));
    7028:	4620      	mov	r0, r4
    702a:	f7ff ff64 	bl	6ef6 <uarte_nrfx_irq_rx_ready>
					    NRF_UARTE_INT_ENDRX_MASK) &&
    702e:	3800      	subs	r0, #0
    7030:	bf18      	it	ne
    7032:	2001      	movne	r0, #1
    7034:	e7f1      	b.n	701a <uarte_nrfx_irq_is_pending+0x1a>

00007036 <uarte_0_init>:
				.tx_buffer = uarte##idx##_tx_buffer,	       \
				.tx_buff_size = sizeof(uarte##idx##_tx_buffer),\
			};))

#ifdef CONFIG_UART_0_NRF_UARTE
UART_NRF_UARTE_DEVICE(0);
    7036:	b510      	push	{r4, lr}
    7038:	2200      	movs	r2, #0
    703a:	4604      	mov	r4, r0
    703c:	2101      	movs	r1, #1
    703e:	2002      	movs	r0, #2
    7040:	f7fb fb30 	bl	26a4 <z_arm_irq_priority_set>
    7044:	2002      	movs	r0, #2
    7046:	f7fb fb0f 	bl	2668 <arch_irq_enable>
    704a:	4620      	mov	r0, r4
    704c:	e8bd 4010 	ldmia.w	sp!, {r4, lr}
    7050:	f7fc bd90 	b.w	3b74 <uarte_instance_init.isra.0>

00007054 <uarte_1_init>:
#endif

#ifdef CONFIG_UART_1_NRF_UARTE
UART_NRF_UARTE_DEVICE(1);
    7054:	b510      	push	{r4, lr}
    7056:	2200      	movs	r2, #0
    7058:	4604      	mov	r4, r0
    705a:	2101      	movs	r1, #1
    705c:	2028      	movs	r0, #40	; 0x28
    705e:	f7fb fb21 	bl	26a4 <z_arm_irq_priority_set>
    7062:	2028      	movs	r0, #40	; 0x28
    7064:	f7fb fb00 	bl	2668 <arch_irq_enable>
    7068:	4620      	mov	r0, r4
    706a:	e8bd 4010 	ldmia.w	sp!, {r4, lr}
    706e:	f7fc bd81 	b.w	3b74 <uarte_instance_init.isra.0>

00007072 <sys_clock_idle_exit>:
{
}

void __weak sys_clock_idle_exit(void)
{
}
    7072:	4770      	bx	lr

00007074 <k_sys_fatal_error_handler>:

extern void sys_arch_reboot(int type);

void k_sys_fatal_error_handler(unsigned int reason,
			       const z_arch_esf_t *esf)
{
    7074:	b508      	push	{r3, lr}
	z_spm_ns_fatal_error_handler();
#endif

	if (IS_ENABLED(CONFIG_RESET_ON_FATAL_ERROR)) {
		LOG_ERR("Resetting system");
		sys_arch_reboot(0);
    7076:	2000      	movs	r0, #0
    7078:	f7fb fe54 	bl	2d24 <sys_arch_reboot>

0000707c <hw_cc3xx_init_internal>:

	/* Initialize the cc3xx HW with or without RNG support */
#if CONFIG_ENTROPY_CC3XX
	res = nrf_cc3xx_platform_init();
#else
	res = nrf_cc3xx_platform_init_no_rng();
    707c:	f7fe bf9a 	b.w	5fb4 <nrf_cc3xx_platform_init_no_rng>

00007080 <hw_cc3xx_init>:

	return res;
}

static int hw_cc3xx_init(const struct device *dev)
{
    7080:	b508      	push	{r3, lr}
	int res;

	/* Set the RTOS abort APIs */
	nrf_cc3xx_platform_abort_init();
    7082:	f7fa ff63 	bl	1f4c <nrf_cc3xx_platform_abort_init>

	/* Set the RTOS mutex APIs */
	nrf_cc3xx_platform_mutex_init();
    7086:	f7fb f815 	bl	20b4 <nrf_cc3xx_platform_mutex_init>

	/* Enable the hardware */
	res = hw_cc3xx_init_internal(dev);
	return res;
}
    708a:	e8bd 4008 	ldmia.w	sp!, {r3, lr}
	res = nrf_cc3xx_platform_init_no_rng();
    708e:	f7fe bf91 	b.w	5fb4 <nrf_cc3xx_platform_init_no_rng>

00007092 <nrfx_clock_enable>:
{
    7092:	b508      	push	{r3, lr}
    priority = NRFX_CLOCK_DEFAULT_CONFIG_IRQ_PRIORITY;
#else
    #error "This code is not supposed to be compiled when neither POWER nor CLOCK is enabled."
#endif

    if (!NRFX_IRQ_IS_ENABLED(nrfx_get_irq_number(NRF_CLOCK)))
    7094:	2000      	movs	r0, #0
    7096:	f7fb faf7 	bl	2688 <arch_irq_is_enabled>
    709a:	b918      	cbnz	r0, 70a4 <nrfx_clock_enable+0x12>
}
    709c:	e8bd 4008 	ldmia.w	sp!, {r3, lr}
    {
        NRFX_IRQ_PRIORITY_SET(nrfx_get_irq_number(NRF_CLOCK), priority);
        NRFX_IRQ_ENABLE(nrfx_get_irq_number(NRF_CLOCK));
    70a0:	f7fb bae2 	b.w	2668 <arch_irq_enable>
    70a4:	bd08      	pop	{r3, pc}

000070a6 <nrfx_isr>:
#include <nrfx.h>
#include <kernel.h>

void nrfx_isr(const void *irq_handler)
{
	((nrfx_irq_handler_t)irq_handler)();
    70a6:	4700      	bx	r0

000070a8 <nrfx_busy_wait>:
	z_impl_k_busy_wait(usec_to_wait);
    70a8:	f000 ba2d 	b.w	7506 <z_impl_k_busy_wait>

000070ac <nrf_gpio_reconfigure>:
{
    70ac:	b5f7      	push	{r0, r1, r2, r4, r5, r6, r7, lr}
    70ae:	9001      	str	r0, [sp, #4]
    NRF_GPIO_Type * reg = nrf_gpio_pin_port_decode(&pin_number);
    70b0:	a801      	add	r0, sp, #4
{
    70b2:	e9dd 4608 	ldrd	r4, r6, [sp, #32]
    70b6:	4617      	mov	r7, r2
    70b8:	461d      	mov	r5, r3
    NRF_GPIO_Type * reg = nrf_gpio_pin_port_decode(&pin_number);
    70ba:	f7fd f947 	bl	434c <nrf_gpio_pin_port_decode>
    uint32_t cnf = reg->PIN_CNF[pin_number];
    70be:	9b01      	ldr	r3, [sp, #4]
                         (p_input ? GPIO_PIN_CNF_INPUT_Msk : 0) |
    70c0:	2f00      	cmp	r7, #0
    70c2:	eb00 0083 	add.w	r0, r0, r3, lsl #2
    70c6:	bf14      	ite	ne
    70c8:	2302      	movne	r3, #2
    70ca:	2300      	moveq	r3, #0
    uint32_t to_update = (p_dir   ? GPIO_PIN_CNF_DIR_Msk   : 0) |
    70cc:	2900      	cmp	r1, #0
    70ce:	bf18      	it	ne
    70d0:	f043 0301 	orrne.w	r3, r3, #1
                         (p_pull  ? GPIO_PIN_CNF_PULL_Msk  : 0) |
    70d4:	2d00      	cmp	r5, #0
    70d6:	bf14      	ite	ne
    70d8:	f04f 0c0c 	movne.w	ip, #12
    70dc:	f04f 0c00 	moveq.w	ip, #0
                         (p_drive ? GPIO_PIN_CNF_DRIVE_Msk : 0) |
    70e0:	2c00      	cmp	r4, #0
                         (p_input ? GPIO_PIN_CNF_INPUT_Msk : 0) |
    70e2:	ea43 030c 	orr.w	r3, r3, ip
                         (p_drive ? GPIO_PIN_CNF_DRIVE_Msk : 0) |
    70e6:	bf14      	ite	ne
    70e8:	f44f 6ce0 	movne.w	ip, #1792	; 0x700
    70ec:	f04f 0c00 	moveq.w	ip, #0
                         (p_sense ? GPIO_PIN_CNF_SENSE_Msk : 0);
    70f0:	2e00      	cmp	r6, #0
                         (p_pull  ? GPIO_PIN_CNF_PULL_Msk  : 0) |
    70f2:	ea43 030c 	orr.w	r3, r3, ip
    uint32_t cnf = reg->PIN_CNF[pin_number];
    70f6:	f8d0 2700 	ldr.w	r2, [r0, #1792]	; 0x700
                         (p_sense ? GPIO_PIN_CNF_SENSE_Msk : 0);
    70fa:	bf14      	ite	ne
    70fc:	f44f 3c40 	movne.w	ip, #196608	; 0x30000
    7100:	f04f 0c00 	moveq.w	ip, #0
    uint32_t to_update = (p_dir   ? GPIO_PIN_CNF_DIR_Msk   : 0) |
    7104:	ea43 030c 	orr.w	r3, r3, ip
    cnf &= ~to_update;
    7108:	ea22 0303 	bic.w	r3, r2, r3
    cnf |= ((uint32_t)(p_dir   ? *p_dir   : 0) << GPIO_PIN_CNF_DIR_Pos)   |
    710c:	b101      	cbz	r1, 7110 <nrf_gpio_reconfigure+0x64>
    710e:	7809      	ldrb	r1, [r1, #0]
           ((uint32_t)(p_input ? *p_input : 0) << GPIO_PIN_CNF_INPUT_Pos) |
    7110:	b10f      	cbz	r7, 7116 <nrf_gpio_reconfigure+0x6a>
    7112:	783f      	ldrb	r7, [r7, #0]
    7114:	007f      	lsls	r7, r7, #1
    7116:	4319      	orrs	r1, r3
           ((uint32_t)(p_pull  ? *p_pull  : 0) << GPIO_PIN_CNF_PULL_Pos)  |
    7118:	b10d      	cbz	r5, 711e <nrf_gpio_reconfigure+0x72>
    711a:	782d      	ldrb	r5, [r5, #0]
    711c:	00ad      	lsls	r5, r5, #2
    711e:	4339      	orrs	r1, r7
           ((uint32_t)(p_drive ? *p_drive : 0) << GPIO_PIN_CNF_DRIVE_Pos) |
    7120:	b10c      	cbz	r4, 7126 <nrf_gpio_reconfigure+0x7a>
    7122:	7822      	ldrb	r2, [r4, #0]
    7124:	0214      	lsls	r4, r2, #8
    7126:	430d      	orrs	r5, r1
           ((uint32_t)(p_sense ? *p_sense : 0)<< GPIO_PIN_CNF_SENSE_Pos);
    7128:	b10e      	cbz	r6, 712e <nrf_gpio_reconfigure+0x82>
    712a:	7836      	ldrb	r6, [r6, #0]
    712c:	0436      	lsls	r6, r6, #16
    cnf |= ((uint32_t)(p_dir   ? *p_dir   : 0) << GPIO_PIN_CNF_DIR_Pos)   |
    712e:	432c      	orrs	r4, r5
    7130:	4334      	orrs	r4, r6
    reg->PIN_CNF[pin_number] = cnf;
    7132:	f8c0 4700 	str.w	r4, [r0, #1792]	; 0x700
}
    7136:	b003      	add	sp, #12
    7138:	bdf0      	pop	{r4, r5, r6, r7, pc}

0000713a <nrf_gpio_cfg_sense_set>:
{
    713a:	b51f      	push	{r0, r1, r2, r3, r4, lr}
    nrf_gpio_reconfigure(pin_number, NULL, NULL, NULL, NULL, &sense_config);
    713c:	f10d 030f 	add.w	r3, sp, #15
    7140:	9301      	str	r3, [sp, #4]
    7142:	2300      	movs	r3, #0
{
    7144:	f88d 100f 	strb.w	r1, [sp, #15]
    nrf_gpio_reconfigure(pin_number, NULL, NULL, NULL, NULL, &sense_config);
    7148:	9300      	str	r3, [sp, #0]
    714a:	461a      	mov	r2, r3
    714c:	4619      	mov	r1, r3
    714e:	f7ff ffad 	bl	70ac <nrf_gpio_reconfigure>
}
    7152:	b005      	add	sp, #20
    7154:	f85d fb04 	ldr.w	pc, [sp], #4

00007158 <start_playback.isra.0>:
static uint32_t start_playback(nrfx_pwm_t const * p_instance,
    7158:	b510      	push	{r4, lr}
    p_cb->state = NRFX_DRV_STATE_POWERED_ON;
    715a:	2402      	movs	r4, #2
    715c:	720c      	strb	r4, [r1, #8]
    p_cb->flags = flags;
    715e:	724a      	strb	r2, [r1, #9]
    if (p_cb->handler)
    7160:	6809      	ldr	r1, [r1, #0]
    7162:	b171      	cbz	r1, 7182 <start_playback.isra.0+0x2a>
            int_mask |= NRF_PWM_INT_SEQEND0_MASK;
    7164:	f012 0f04 	tst.w	r2, #4
    7168:	bf0c      	ite	eq
    716a:	2182      	moveq	r1, #130	; 0x82
    716c:	2192      	movne	r1, #146	; 0x92
        if (flags & NRFX_PWM_FLAG_SIGNAL_END_SEQ1)
    716e:	0714      	lsls	r4, r2, #28
            int_mask |= NRF_PWM_INT_SEQEND1_MASK;
    7170:	bf48      	it	mi
    7172:	f041 0120 	orrmi.w	r1, r1, #32
        if (flags & NRFX_PWM_FLAG_NO_EVT_FINISHED)
    7176:	06d4      	lsls	r4, r2, #27
            int_mask &= ~NRF_PWM_INT_LOOPSDONE_MASK;
    7178:	bf48      	it	mi
    717a:	f021 0180 	bicmi.w	r1, r1, #128	; 0x80
    p_reg->INTEN = mask;
    717e:	f8c0 1300 	str.w	r1, [r0, #768]	; 0x300
    if (flags & NRFX_PWM_FLAG_START_VIA_TASK)
    7182:	0612      	lsls	r2, r2, #24
    *((volatile uint32_t *)((uint8_t *)p_reg + (uint32_t)event)) = 0x0UL;
    7184:	f04f 0100 	mov.w	r1, #0
    7188:	f8c0 1104 	str.w	r1, [r0, #260]	; 0x104
    *((volatile uint32_t *)((uint8_t *)p_reg + (uint32_t)task)) = 0x1UL;
    718c:	bf58      	it	pl
    718e:	2201      	movpl	r2, #1
    7190:	f8d0 4104 	ldr.w	r4, [r0, #260]	; 0x104
    7194:	bf56      	itet	pl
    7196:	50c2      	strpl	r2, [r0, r3]
    return ((uint32_t)p_reg + (uint32_t)task);
    7198:	18c0      	addmi	r0, r0, r3
    return 0;
    719a:	4608      	movpl	r0, r1
}
    719c:	bd10      	pop	{r4, pc}

0000719e <nrfx_pwm_stop>:
{
    719e:	b538      	push	{r3, r4, r5, lr}
    nrf_pwm_shorts_set(p_instance->p_registers, 0);
    71a0:	6803      	ldr	r3, [r0, #0]
    p_reg->SHORTS = mask;
    71a2:	2200      	movs	r2, #0
    71a4:	f8c3 2200 	str.w	r2, [r3, #512]	; 0x200
    *((volatile uint32_t *)((uint8_t *)p_reg + (uint32_t)task)) = 0x1UL;
    71a8:	2201      	movs	r2, #1
    71aa:	605a      	str	r2, [r3, #4]
{
    71ac:	4605      	mov	r5, r0
    71ae:	460c      	mov	r4, r1
    if (nrfx_pwm_is_stopped(p_instance))
    71b0:	f7fd fd02 	bl	4bb8 <nrfx_pwm_is_stopped>
    71b4:	b938      	cbnz	r0, 71c6 <nrfx_pwm_stop+0x28>
            if (nrfx_pwm_is_stopped(p_instance))
    71b6:	4628      	mov	r0, r5
    71b8:	f7fd fcfe 	bl	4bb8 <nrfx_pwm_is_stopped>
    71bc:	b918      	cbnz	r0, 71c6 <nrfx_pwm_stop+0x28>
        } while (wait_until_stopped);
    71be:	2c00      	cmp	r4, #0
    71c0:	d1f9      	bne.n	71b6 <nrfx_pwm_stop+0x18>
}
    71c2:	4620      	mov	r0, r4
    71c4:	bd38      	pop	{r3, r4, r5, pc}
        ret_val = true;
    71c6:	2401      	movs	r4, #1
    71c8:	e7fb      	b.n	71c2 <nrfx_pwm_stop+0x24>

000071ca <z_device_state_init>:
}
    71ca:	4770      	bx	lr

000071cc <z_device_ready>:
{
	/*
	 * if an invalid device pointer is passed as argument, this call
	 * reports the `device` as not ready for usage.
	 */
	if (dev == NULL) {
    71cc:	b138      	cbz	r0, 71de <z_device_ready+0x12>
		return false;
	}

	return dev->state->initialized && (dev->state->init_res == 0U);
    71ce:	68c3      	ldr	r3, [r0, #12]
    71d0:	8818      	ldrh	r0, [r3, #0]
    71d2:	f3c0 0008 	ubfx	r0, r0, #0, #9
    71d6:	f5a0 7380 	sub.w	r3, r0, #256	; 0x100
    71da:	4258      	negs	r0, r3
    71dc:	4158      	adcs	r0, r3
}
    71de:	4770      	bx	lr

000071e0 <z_fatal_error>:
	return 0;
#endif
}

void z_fatal_error(unsigned int reason, const z_arch_esf_t *esf)
{
    71e0:	b5f8      	push	{r3, r4, r5, r6, r7, lr}
    71e2:	4605      	mov	r5, r0
    71e4:	460e      	mov	r6, r1
	__asm__ volatile(
    71e6:	f04f 0320 	mov.w	r3, #32
    71ea:	f3ef 8711 	mrs	r7, BASEPRI
    71ee:	f383 8812 	msr	BASEPRI_MAX, r3
    71f2:	f3bf 8f6f 	isb	sy
	return z_impl_z_current_get();
    71f6:	f7fe fb45 	bl	5884 <z_impl_z_current_get>
	LOG_ERR("Current thread: %p (%s)", thread,
		log_strdup(thread_name_get(thread)));

	coredump(reason, esf, thread);

	k_sys_fatal_error_handler(reason, esf);
    71fa:	4631      	mov	r1, r6
    71fc:	4604      	mov	r4, r0
    71fe:	4628      	mov	r0, r5
    7200:	f7ff ff38 	bl	7074 <k_sys_fatal_error_handler>
	__asm__ volatile(
    7204:	f387 8811 	msr	BASEPRI, r7
    7208:	f3bf 8f6f 	isb	sy
	z_impl_k_thread_abort(thread);
    720c:	4620      	mov	r0, r4
	arch_irq_unlock(key);

	if (IS_ENABLED(CONFIG_MULTITHREADING)) {
		k_thread_abort(thread);
	}
}
    720e:	e8bd 40f8 	ldmia.w	sp!, {r3, r4, r5, r6, r7, lr}
    7212:	f7fb bc63 	b.w	2adc <z_impl_k_thread_abort>

00007216 <z_pm_save_idle_exit>:
{
    7216:	b508      	push	{r3, lr}
	pm_system_resume();
    7218:	f7fb f896 	bl	2348 <pm_system_resume>
}
    721c:	e8bd 4008 	ldmia.w	sp!, {r3, lr}
	sys_clock_idle_exit();
    7220:	f7ff bf27 	b.w	7072 <sys_clock_idle_exit>

00007224 <k_mem_slab_init>:
{
    7224:	b530      	push	{r4, r5, lr}
	slab->num_used = 0U;
    7226:	2400      	movs	r4, #0
    7228:	6184      	str	r4, [r0, #24]
	CHECKIF(((slab->block_size | (uintptr_t)slab->buffer) &
    722a:	ea41 0402 	orr.w	r4, r1, r2
    722e:	f014 0403 	ands.w	r4, r4, #3
	slab->block_size = block_size;
    7232:	e9c0 3202 	strd	r3, r2, [r0, #8]
	slab->buffer = buffer;
    7236:	6101      	str	r1, [r0, #16]
	CHECKIF(((slab->block_size | (uintptr_t)slab->buffer) &
    7238:	d10c      	bne.n	7254 <k_mem_slab_init+0x30>
	slab->free_list = NULL;
    723a:	6144      	str	r4, [r0, #20]
	for (j = 0U; j < slab->num_blocks; j++) {
    723c:	42a3      	cmp	r3, r4
    723e:	d103      	bne.n	7248 <k_mem_slab_init+0x24>
	list->tail = (sys_dnode_t *)list;
    7240:	e9c0 0000 	strd	r0, r0, [r0]
}
    7244:	2000      	movs	r0, #0
}
    7246:	bd30      	pop	{r4, r5, pc}
		*(char **)p = slab->free_list;
    7248:	6945      	ldr	r5, [r0, #20]
    724a:	600d      	str	r5, [r1, #0]
	for (j = 0U; j < slab->num_blocks; j++) {
    724c:	3401      	adds	r4, #1
		slab->free_list = p;
    724e:	6141      	str	r1, [r0, #20]
		p += slab->block_size;
    7250:	4411      	add	r1, r2
	for (j = 0U; j < slab->num_blocks; j++) {
    7252:	e7f3      	b.n	723c <k_mem_slab_init+0x18>
		return -EINVAL;
    7254:	f06f 0015 	mvn.w	r0, #21
	return rc;
    7258:	e7f5      	b.n	7246 <k_mem_slab_init+0x22>

0000725a <k_mem_slab_free>:

void k_mem_slab_free(struct k_mem_slab *slab, void **mem)
{
    725a:	b5f8      	push	{r3, r4, r5, r6, r7, lr}
    725c:	4604      	mov	r4, r0
    725e:	460d      	mov	r5, r1
	__asm__ volatile(
    7260:	f04f 0320 	mov.w	r3, #32
    7264:	f3ef 8611 	mrs	r6, BASEPRI
    7268:	f383 8812 	msr	BASEPRI_MAX, r3
    726c:	f3bf 8f6f 	isb	sy
	k_spinlock_key_t key = k_spin_lock(&slab->lock);

	SYS_PORT_TRACING_OBJ_FUNC_ENTER(k_mem_slab, free, slab);
	if (slab->free_list == NULL && IS_ENABLED(CONFIG_MULTITHREADING)) {
    7270:	6947      	ldr	r7, [r0, #20]
    7272:	b977      	cbnz	r7, 7292 <k_mem_slab_free+0x38>
		struct k_thread *pending_thread = z_unpend_first_thread(&slab->wait_q);
    7274:	f000 f8d7 	bl	7426 <z_unpend_first_thread>

		if (pending_thread != NULL) {
    7278:	b158      	cbz	r0, 7292 <k_mem_slab_free+0x38>
			SYS_PORT_TRACING_OBJ_FUNC_EXIT(k_mem_slab, free, slab);

			z_thread_return_value_set_with_data(pending_thread, 0, *mem);
    727a:	682a      	ldr	r2, [r5, #0]
z_thread_return_value_set_with_data(struct k_thread *thread,
				   unsigned int value,
				   void *data)
{
	arch_thread_return_value_set(thread, value);
	thread->base.swap_data = data;
    727c:	6142      	str	r2, [r0, #20]
    727e:	6787      	str	r7, [r0, #120]	; 0x78
			z_ready_thread(pending_thread);
    7280:	f000 f85d 	bl	733e <z_ready_thread>
			z_reschedule(&slab->lock, key);
    7284:	4631      	mov	r1, r6
    7286:	f104 0008 	add.w	r0, r4, #8
	slab->num_used--;

	SYS_PORT_TRACING_OBJ_FUNC_EXIT(k_mem_slab, free, slab);

	k_spin_unlock(&slab->lock, key);
}
    728a:	e8bd 40f8 	ldmia.w	sp!, {r3, r4, r5, r6, r7, lr}
			z_reschedule(&slab->lock, key);
    728e:	f7fe b83d 	b.w	530c <z_reschedule>
	**(char ***) mem = slab->free_list;
    7292:	682b      	ldr	r3, [r5, #0]
    7294:	6962      	ldr	r2, [r4, #20]
    7296:	601a      	str	r2, [r3, #0]
	slab->free_list = *(char **) mem;
    7298:	682b      	ldr	r3, [r5, #0]
    729a:	6163      	str	r3, [r4, #20]
	slab->num_used--;
    729c:	69a3      	ldr	r3, [r4, #24]
    729e:	3b01      	subs	r3, #1
    72a0:	61a3      	str	r3, [r4, #24]
	__asm__ volatile(
    72a2:	f386 8811 	msr	BASEPRI, r6
    72a6:	f3bf 8f6f 	isb	sy
}
    72aa:	bdf8      	pop	{r3, r4, r5, r6, r7, pc}

000072ac <z_impl_k_mutex_init>:
{
    72ac:	4603      	mov	r3, r0
	mutex->owner = NULL;
    72ae:	2000      	movs	r0, #0
	mutex->lock_count = 0U;
    72b0:	e9c3 0002 	strd	r0, r0, [r3, #8]
    72b4:	e9c3 3300 	strd	r3, r3, [r3]
}
    72b8:	4770      	bx	lr

000072ba <sys_dlist_remove>:
	sys_dnode_t *const next = node->next;
    72ba:	e9d0 3200 	ldrd	r3, r2, [r0]
	prev->next = next;
    72be:	6013      	str	r3, [r2, #0]
	next->prev = prev;
    72c0:	605a      	str	r2, [r3, #4]
	node->next = NULL;
    72c2:	2300      	movs	r3, #0
	node->prev = NULL;
    72c4:	e9c0 3300 	strd	r3, r3, [r0]
	sys_dnode_init(node);
}
    72c8:	4770      	bx	lr

000072ca <unpend_thread_no_timeout>:
{
    72ca:	b508      	push	{r3, lr}
	sys_dlist_remove(&thread->base.qnode_dlist);
    72cc:	f7ff fff5 	bl	72ba <sys_dlist_remove>
	thread->base.thread_state &= ~_THREAD_PENDING;
    72d0:	7b43      	ldrb	r3, [r0, #13]
    72d2:	f023 0302 	bic.w	r3, r3, #2
    72d6:	7343      	strb	r3, [r0, #13]
	thread->base.pended_on = NULL;
    72d8:	2300      	movs	r3, #0
    72da:	6083      	str	r3, [r0, #8]
}
    72dc:	bd08      	pop	{r3, pc}

000072de <z_unpend_thread_no_timeout>:
{
    72de:	b508      	push	{r3, lr}
	__asm__ volatile(
    72e0:	f04f 0320 	mov.w	r3, #32
    72e4:	f3ef 8111 	mrs	r1, BASEPRI
    72e8:	f383 8812 	msr	BASEPRI_MAX, r3
    72ec:	f3bf 8f6f 	isb	sy
		unpend_thread_no_timeout(thread);
    72f0:	f7ff ffeb 	bl	72ca <unpend_thread_no_timeout>
	__asm__ volatile(
    72f4:	f381 8811 	msr	BASEPRI, r1
    72f8:	f3bf 8f6f 	isb	sy
}
    72fc:	bd08      	pop	{r3, pc}

000072fe <z_reschedule_irqlock>:
	return arch_irq_unlocked(key) && !arch_is_in_isr();
    72fe:	4603      	mov	r3, r0
    7300:	b920      	cbnz	r0, 730c <z_reschedule_irqlock+0xe>
  __ASM volatile ("MRS %0, ipsr" : "=r" (result) );
    7302:	f3ef 8205 	mrs	r2, IPSR
	if (resched(key)) {
    7306:	b90a      	cbnz	r2, 730c <z_reschedule_irqlock+0xe>
	ret = arch_swap(key);
    7308:	f7fb ba00 	b.w	270c <arch_swap>
    730c:	f383 8811 	msr	BASEPRI, r3
    7310:	f3bf 8f6f 	isb	sy
}
    7314:	4770      	bx	lr

00007316 <z_reschedule_unlocked>:
	__asm__ volatile(
    7316:	f04f 0320 	mov.w	r3, #32
    731a:	f3ef 8011 	mrs	r0, BASEPRI
    731e:	f383 8812 	msr	BASEPRI_MAX, r3
    7322:	f3bf 8f6f 	isb	sy
	(void) z_reschedule_irqlock(arch_irq_lock());
    7326:	f7ff bfea 	b.w	72fe <z_reschedule_irqlock>

0000732a <z_priq_dumb_best>:
{
    732a:	4603      	mov	r3, r0
	return list->head == list;
    732c:	6800      	ldr	r0, [r0, #0]
	return sys_dlist_is_empty(list) ? NULL : list->head;
    732e:	4283      	cmp	r3, r0
    7330:	d003      	beq.n	733a <z_priq_dumb_best+0x10>
	if (n != NULL) {
    7332:	2800      	cmp	r0, #0
    7334:	bf38      	it	cc
    7336:	2000      	movcc	r0, #0
    7338:	4770      	bx	lr
	struct k_thread *thread = NULL;
    733a:	2000      	movs	r0, #0
}
    733c:	4770      	bx	lr

0000733e <z_ready_thread>:
{
    733e:	b510      	push	{r4, lr}
    7340:	f04f 0320 	mov.w	r3, #32
    7344:	f3ef 8411 	mrs	r4, BASEPRI
    7348:	f383 8812 	msr	BASEPRI_MAX, r3
    734c:	f3bf 8f6f 	isb	sy
			ready_thread(thread);
    7350:	f7fe f8a2 	bl	5498 <ready_thread>
	__asm__ volatile(
    7354:	f384 8811 	msr	BASEPRI, r4
    7358:	f3bf 8f6f 	isb	sy
}
    735c:	bd10      	pop	{r4, pc}

0000735e <z_thread_timeout>:
{
    735e:	b510      	push	{r4, lr}
    7360:	4601      	mov	r1, r0
	__asm__ volatile(
    7362:	f04f 0320 	mov.w	r3, #32
    7366:	f3ef 8411 	mrs	r4, BASEPRI
    736a:	f383 8812 	msr	BASEPRI_MAX, r3
    736e:	f3bf 8f6f 	isb	sy
		if (!killed) {
    7372:	f810 3c0b 	ldrb.w	r3, [r0, #-11]
    7376:	f013 0f28 	tst.w	r3, #40	; 0x28
    737a:	d10d      	bne.n	7398 <z_thread_timeout+0x3a>
			if (thread->base.pended_on != NULL) {
    737c:	f851 3c10 	ldr.w	r3, [r1, #-16]
	struct k_thread *thread = CONTAINER_OF(timeout,
    7380:	3818      	subs	r0, #24
			if (thread->base.pended_on != NULL) {
    7382:	b10b      	cbz	r3, 7388 <z_thread_timeout+0x2a>
				unpend_thread_no_timeout(thread);
    7384:	f7ff ffa1 	bl	72ca <unpend_thread_no_timeout>
	thread->base.thread_state &= ~_THREAD_SUSPENDED;
    7388:	f811 3c0b 	ldrb.w	r3, [r1, #-11]
    738c:	f023 0314 	bic.w	r3, r3, #20
    7390:	f801 3c0b 	strb.w	r3, [r1, #-11]
			ready_thread(thread);
    7394:	f7fe f880 	bl	5498 <ready_thread>
	__asm__ volatile(
    7398:	f384 8811 	msr	BASEPRI, r4
    739c:	f3bf 8f6f 	isb	sy
}
    73a0:	bd10      	pop	{r4, pc}

000073a2 <add_to_waitq_locked>:
{
    73a2:	b538      	push	{r3, r4, r5, lr}
    73a4:	4604      	mov	r4, r0
    73a6:	460d      	mov	r5, r1
	unready_thread(thread);
    73a8:	f7fe f8cc 	bl	5544 <unready_thread>
	thread->base.thread_state |= _THREAD_PENDING;
    73ac:	7b63      	ldrb	r3, [r4, #13]
    73ae:	f043 0302 	orr.w	r3, r3, #2
    73b2:	7363      	strb	r3, [r4, #13]
	if (wait_q != NULL) {
    73b4:	b1b5      	cbz	r5, 73e4 <add_to_waitq_locked+0x42>
	return list->head == list;
    73b6:	682b      	ldr	r3, [r5, #0]
		thread->base.pended_on = wait_q;
    73b8:	60a5      	str	r5, [r4, #8]
	return sys_dlist_is_empty(list) ? NULL : list->head;
    73ba:	429d      	cmp	r5, r3
    73bc:	bf08      	it	eq
    73be:	2300      	moveq	r3, #0
    73c0:	2b00      	cmp	r3, #0
    73c2:	bf38      	it	cc
    73c4:	2300      	movcc	r3, #0
	SYS_DLIST_FOR_EACH_CONTAINER(pq, t, base.qnode_dlist) {
    73c6:	b19b      	cbz	r3, 73f0 <add_to_waitq_locked+0x4e>
	int32_t b1 = thread_1->base.prio;
    73c8:	f994 100e 	ldrsb.w	r1, [r4, #14]
	int32_t b2 = thread_2->base.prio;
    73cc:	f993 200e 	ldrsb.w	r2, [r3, #14]
	if (b1 != b2) {
    73d0:	4291      	cmp	r1, r2
    73d2:	d008      	beq.n	73e6 <add_to_waitq_locked+0x44>
		return b2 - b1;
    73d4:	1a52      	subs	r2, r2, r1
		if (z_sched_prio_cmp(thread, t) > 0) {
    73d6:	2a00      	cmp	r2, #0
    73d8:	dd05      	ble.n	73e6 <add_to_waitq_locked+0x44>
	sys_dnode_t *const prev = successor->prev;
    73da:	685a      	ldr	r2, [r3, #4]
	node->next = successor;
    73dc:	e9c4 3200 	strd	r3, r2, [r4]
	prev->next = node;
    73e0:	6014      	str	r4, [r2, #0]
	successor->prev = node;
    73e2:	605c      	str	r4, [r3, #4]
}
    73e4:	bd38      	pop	{r3, r4, r5, pc}
	return (node == list->tail) ? NULL : node->next;
    73e6:	686a      	ldr	r2, [r5, #4]
    73e8:	4293      	cmp	r3, r2
    73ea:	d001      	beq.n	73f0 <add_to_waitq_locked+0x4e>
    73ec:	681b      	ldr	r3, [r3, #0]
    73ee:	e7ea      	b.n	73c6 <add_to_waitq_locked+0x24>
	sys_dnode_t *const tail = list->tail;
    73f0:	686b      	ldr	r3, [r5, #4]
	node->prev = tail;
    73f2:	e9c4 5300 	strd	r5, r3, [r4]
	tail->next = node;
    73f6:	601c      	str	r4, [r3, #0]
	list->tail = node;
    73f8:	606c      	str	r4, [r5, #4]
    73fa:	e7f3      	b.n	73e4 <add_to_waitq_locked+0x42>

000073fc <z_unpend1_no_timeout>:
{
    73fc:	b510      	push	{r4, lr}
	__asm__ volatile(
    73fe:	f04f 0320 	mov.w	r3, #32
    7402:	f3ef 8411 	mrs	r4, BASEPRI
    7406:	f383 8812 	msr	BASEPRI_MAX, r3
    740a:	f3bf 8f6f 	isb	sy
		thread = _priq_wait_best(&wait_q->waitq);
    740e:	f7ff ff8c 	bl	732a <z_priq_dumb_best>
		if (thread != NULL) {
    7412:	4601      	mov	r1, r0
    7414:	b108      	cbz	r0, 741a <z_unpend1_no_timeout+0x1e>
			unpend_thread_no_timeout(thread);
    7416:	f7ff ff58 	bl	72ca <unpend_thread_no_timeout>
	__asm__ volatile(
    741a:	f384 8811 	msr	BASEPRI, r4
    741e:	f3bf 8f6f 	isb	sy
}
    7422:	4608      	mov	r0, r1
    7424:	bd10      	pop	{r4, pc}

00007426 <z_unpend_first_thread>:
{
    7426:	b538      	push	{r3, r4, r5, lr}
	__asm__ volatile(
    7428:	f04f 0320 	mov.w	r3, #32
    742c:	f3ef 8511 	mrs	r5, BASEPRI
    7430:	f383 8812 	msr	BASEPRI_MAX, r3
    7434:	f3bf 8f6f 	isb	sy
		thread = _priq_wait_best(&wait_q->waitq);
    7438:	f7ff ff77 	bl	732a <z_priq_dumb_best>
		if (thread != NULL) {
    743c:	4604      	mov	r4, r0
    743e:	b120      	cbz	r0, 744a <z_unpend_first_thread+0x24>
			unpend_thread_no_timeout(thread);
    7440:	f7ff ff43 	bl	72ca <unpend_thread_no_timeout>
	return z_abort_timeout(&thread->base.timeout);
    7444:	3018      	adds	r0, #24
    7446:	f000 f818 	bl	747a <z_abort_timeout>
	__asm__ volatile(
    744a:	f385 8811 	msr	BASEPRI, r5
    744e:	f3bf 8f6f 	isb	sy
}
    7452:	4620      	mov	r0, r4
    7454:	bd38      	pop	{r3, r4, r5, pc}

00007456 <z_impl_k_sem_init>:
	CHECKIF(limit == 0U || limit > K_SEM_MAX_LIMIT || initial_count > limit) {
    7456:	b13a      	cbz	r2, 7468 <z_impl_k_sem_init+0x12>
    7458:	428a      	cmp	r2, r1
    745a:	d305      	bcc.n	7468 <z_impl_k_sem_init+0x12>
	sem->limit = limit;
    745c:	e9c0 1202 	strd	r1, r2, [r0, #8]
	list->tail = (sys_dnode_t *)list;
    7460:	e9c0 0000 	strd	r0, r0, [r0]
	return 0;
    7464:	2000      	movs	r0, #0
    7466:	4770      	bx	lr
		return -EINVAL;
    7468:	f06f 0015 	mvn.w	r0, #21
}
    746c:	4770      	bx	lr

0000746e <k_is_in_isr>:
    746e:	f3ef 8005 	mrs	r0, IPSR
}
    7472:	3800      	subs	r0, #0
    7474:	bf18      	it	ne
    7476:	2001      	movne	r0, #1
    7478:	4770      	bx	lr

0000747a <z_abort_timeout>:
{
    747a:	b510      	push	{r4, lr}
	__asm__ volatile(
    747c:	f04f 0220 	mov.w	r2, #32
    7480:	f3ef 8411 	mrs	r4, BASEPRI
    7484:	f382 8812 	msr	BASEPRI_MAX, r2
    7488:	f3bf 8f6f 	isb	sy
		if (sys_dnode_is_linked(&to->node)) {
    748c:	6803      	ldr	r3, [r0, #0]
    748e:	b13b      	cbz	r3, 74a0 <z_abort_timeout+0x26>
			remove_timeout(to);
    7490:	f7fe fb60 	bl	5b54 <remove_timeout>
			ret = 0;
    7494:	2000      	movs	r0, #0
	__asm__ volatile(
    7496:	f384 8811 	msr	BASEPRI, r4
    749a:	f3bf 8f6f 	isb	sy
}
    749e:	bd10      	pop	{r4, pc}
	int ret = -EINVAL;
    74a0:	f06f 0015 	mvn.w	r0, #21
    74a4:	e7f7      	b.n	7496 <z_abort_timeout+0x1c>

000074a6 <z_get_next_timeout_expiry>:
{
    74a6:	b510      	push	{r4, lr}
	__asm__ volatile(
    74a8:	f04f 0320 	mov.w	r3, #32
    74ac:	f3ef 8411 	mrs	r4, BASEPRI
    74b0:	f383 8812 	msr	BASEPRI_MAX, r3
    74b4:	f3bf 8f6f 	isb	sy
		ret = next_timeout();
    74b8:	f7fe fb66 	bl	5b88 <next_timeout>
	__asm__ volatile(
    74bc:	f384 8811 	msr	BASEPRI, r4
    74c0:	f3bf 8f6f 	isb	sy
}
    74c4:	bd10      	pop	{r4, pc}

000074c6 <z_set_timeout_expiry>:
{
    74c6:	b570      	push	{r4, r5, r6, lr}
    74c8:	4604      	mov	r4, r0
    74ca:	460d      	mov	r5, r1
	__asm__ volatile(
    74cc:	f04f 0320 	mov.w	r3, #32
    74d0:	f3ef 8611 	mrs	r6, BASEPRI
    74d4:	f383 8812 	msr	BASEPRI_MAX, r3
    74d8:	f3bf 8f6f 	isb	sy
		int next_to = next_timeout();
    74dc:	f7fe fb54 	bl	5b88 <next_timeout>
		if (!imminent && (sooner || IS_ENABLED(CONFIG_SMP))) {
    74e0:	2801      	cmp	r0, #1
    74e2:	dd05      	ble.n	74f0 <z_set_timeout_expiry+0x2a>
    74e4:	42a0      	cmp	r0, r4
    74e6:	db03      	blt.n	74f0 <z_set_timeout_expiry+0x2a>
			sys_clock_set_timeout(MIN(ticks, next_to), is_idle);
    74e8:	4629      	mov	r1, r5
    74ea:	4620      	mov	r0, r4
    74ec:	f7fc fdf2 	bl	40d4 <sys_clock_set_timeout>
	__asm__ volatile(
    74f0:	f386 8811 	msr	BASEPRI, r6
    74f4:	f3bf 8f6f 	isb	sy
}
    74f8:	bd70      	pop	{r4, r5, r6, pc}

000074fa <sys_clock_tick_get_32>:

uint32_t sys_clock_tick_get_32(void)
{
    74fa:	b508      	push	{r3, lr}
#ifdef CONFIG_TICKLESS_KERNEL
	return (uint32_t)sys_clock_tick_get();
    74fc:	f7fe fc64 	bl	5dc8 <sys_clock_tick_get>
#else
	return (uint32_t)curr_tick;
#endif
}
    7500:	bd08      	pop	{r3, pc}

00007502 <z_impl_k_uptime_ticks>:

int64_t z_impl_k_uptime_ticks(void)
{
	return sys_clock_tick_get();
    7502:	f7fe bc61 	b.w	5dc8 <sys_clock_tick_get>

00007506 <z_impl_k_busy_wait>:
#endif

void z_impl_k_busy_wait(uint32_t usec_to_wait)
{
	SYS_PORT_TRACING_FUNC_ENTER(k_thread, busy_wait, usec_to_wait);
	if (usec_to_wait == 0U) {
    7506:	b108      	cbz	r0, 750c <z_impl_k_busy_wait+0x6>
		if ((current_cycles - start_cycles) >= cycles_to_wait) {
			break;
		}
	}
#else
	arch_busy_wait(usec_to_wait);
    7508:	f7fb bc22 	b.w	2d50 <arch_busy_wait>
#endif /* CONFIG_ARCH_HAS_CUSTOM_BUSY_WAIT */
	SYS_PORT_TRACING_FUNC_EXIT(k_thread, busy_wait, usec_to_wait);
}
    750c:	4770      	bx	lr

0000750e <z_impl_k_timer_stop>:
}
#include <syscalls/k_timer_start_mrsh.c>
#endif

void z_impl_k_timer_stop(struct k_timer *timer)
{
    750e:	b510      	push	{r4, lr}
    7510:	4604      	mov	r4, r0
	SYS_PORT_TRACING_OBJ_FUNC(k_timer, stop, timer);

	int inactive = z_abort_timeout(&timer->timeout) != 0;
    7512:	f7ff ffb2 	bl	747a <z_abort_timeout>

	if (inactive) {
    7516:	b9b0      	cbnz	r0, 7546 <z_impl_k_timer_stop+0x38>
		return;
	}

	if (timer->stop_fn != NULL) {
    7518:	6a63      	ldr	r3, [r4, #36]	; 0x24
    751a:	b10b      	cbz	r3, 7520 <z_impl_k_timer_stop+0x12>
		timer->stop_fn(timer);
    751c:	4620      	mov	r0, r4
    751e:	4798      	blx	r3
	}

	if (IS_ENABLED(CONFIG_MULTITHREADING)) {
		struct k_thread *pending_thread = z_unpend1_no_timeout(&timer->wait_q);
    7520:	f104 0018 	add.w	r0, r4, #24
    7524:	f7ff ff6a 	bl	73fc <z_unpend1_no_timeout>

		if (pending_thread != NULL) {
    7528:	b168      	cbz	r0, 7546 <z_impl_k_timer_stop+0x38>
			z_ready_thread(pending_thread);
    752a:	f7ff ff08 	bl	733e <z_ready_thread>
	__asm__ volatile(
    752e:	f04f 0320 	mov.w	r3, #32
    7532:	f3ef 8011 	mrs	r0, BASEPRI
    7536:	f383 8812 	msr	BASEPRI_MAX, r3
    753a:	f3bf 8f6f 	isb	sy
			z_reschedule_unlocked();
		}
	}
}
    753e:	e8bd 4010 	ldmia.w	sp!, {r4, lr}
	(void) z_reschedule_irqlock(arch_irq_lock());
    7542:	f7ff bedc 	b.w	72fe <z_reschedule_irqlock>
    7546:	bd10      	pop	{r4, pc}

00007548 <k_heap_init>:
{
    7548:	b410      	push	{r4}
	sys_dlist_init(&w->waitq);
    754a:	f100 040c 	add.w	r4, r0, #12
    754e:	e9c0 4403 	strd	r4, r4, [r0, #12]
}
    7552:	bc10      	pop	{r4}
	sys_heap_init(&h->heap, mem, bytes);
    7554:	f7fe bfc9 	b.w	64ea <sys_heap_init>

00007558 <_OffsetAbsSyms>:

#include <gen_offset.h>

#include "offsets_aarch32.c"

GEN_ABS_SYM_END
    7558:	4770      	bx	lr
	...

0000755c <z_arm_platform_init>:
	 */
#if defined(CONFIG_ARMV6_M_ARMV8_M_BASELINE)
	ldr r0, =SystemInit
	bx r0
#elif defined(CONFIG_ARMV7_M_ARMV8_M_MAINLINE)
	b SystemInit
    755c:	f7fd bb66 	b.w	4c2c <SystemInit>
